ARM GAS  C:\Users\Mariano\AppData\Local\Temp\ccDGb6Es.s 			page 1


   1              		.cpu cortex-m0
   2              		.fpu softvfp
   3              		.eabi_attribute 20, 1	@ Tag_ABI_FP_denormal
   4              		.eabi_attribute 21, 1	@ Tag_ABI_FP_exceptions
   5              		.eabi_attribute 23, 3	@ Tag_ABI_FP_number_model
   6              		.eabi_attribute 24, 1	@ Tag_ABI_align8_needed
   7              		.eabi_attribute 25, 1	@ Tag_ABI_align8_preserved
   8              		.eabi_attribute 26, 1	@ Tag_ABI_enum_size
   9              		.eabi_attribute 30, 6	@ Tag_ABI_optimization_goals
  10              		.eabi_attribute 34, 0	@ Tag_CPU_unaligned_access
  11              		.eabi_attribute 18, 4	@ Tag_ABI_PCS_wchar_t
  12              		.file	"core_cm0.c"
  13              	@ GNU C (GNU Tools for ARM Embedded Processors) version 4.7.4 20130613 (release) [ARM/embedded-4_7-
  14              	@	compiled by GNU C version 4.2.1-sjlj (mingw32-2), GMP version 4.3.2, MPFR version 2.4.2, MPC vers
  15              	@ GGC heuristics: --param ggc-min-expand=100 --param ggc-min-heapsize=131072
  16              	@ options passed:  -I . -I .\src -I .\cmsis_boot -I .\cmsis_core
  17              	@ -I ..\STM32F0xx_StdPeriph_Lib_V1.3.1\Libraries\STM32F0xx_StdPeriph_Driver\inc
  18              	@ -I .\inc -I .\cmsis_boot -imultilib armv6-m
  19              	@ -iprefix c:\program files (x86)\gnu tools arm embedded\4.7 2013q2\bin\../lib/gcc/arm-none-eabi/4.
  20              	@ -isysroot c:\program files (x86)\gnu tools arm embedded\4.7 2013q2\bin\../arm-none-eabi
  21              	@ -MD .\cmsis_core\core_cm0.d -MF .dep\core_cm0.o.d -MP
  22              	@ -MQ .\cmsis_core\core_cm0.o -D__USES_INITFINI__ -D RUN_FROM_FLASH=1
  23              	@ .\cmsis_core\core_cm0.c -mcpu=cortex-m0 -mthumb
  24              	@ -auxbase-strip .\cmsis_core\core_cm0.o -g -gdwarf-2 -O0 -Wall
  25              	@ -fomit-frame-pointer -fdata-sections -ffunction-sections -fverbose-asm
  26              	@ options enabled:  -fauto-inc-dec -fbranch-count-reg -fcommon
  27              	@ -fdata-sections -fdebug-types-section -fdelete-null-pointer-checks
  28              	@ -fdwarf2-cfi-asm -fearly-inlining -feliminate-unused-debug-types
  29              	@ -ffunction-cse -ffunction-sections -fgcse-lm -fgnu-runtime -fident
  30              	@ -finline-atomics -fira-hoist-pressure -fira-share-save-slots
  31              	@ -fira-share-spill-slots -fivopts -fkeep-static-consts
  32              	@ -fleading-underscore -fmath-errno -fmerge-debug-strings
  33              	@ -fmove-loop-invariants -fomit-frame-pointer -fpeephole
  34              	@ -fprefetch-loop-arrays -freg-struct-return
  35              	@ -fsched-critical-path-heuristic -fsched-dep-count-heuristic
  36              	@ -fsched-group-heuristic -fsched-interblock -fsched-last-insn-heuristic
  37              	@ -fsched-rank-heuristic -fsched-spec -fsched-spec-insn-heuristic
  38              	@ -fsched-stalled-insns-dep -fshow-column -fsigned-zeros
  39              	@ -fsplit-ivs-in-unroller -fstrict-volatile-bitfields -ftrapping-math
  40              	@ -ftree-cselim -ftree-forwprop -ftree-loop-if-convert -ftree-loop-im
  41              	@ -ftree-loop-ivcanon -ftree-loop-optimize -ftree-parallelize-loops=
  42              	@ -ftree-phiprop -ftree-pta -ftree-reassoc -ftree-scev-cprop
  43              	@ -ftree-slp-vectorize -ftree-vect-loop-version -funit-at-a-time
  44              	@ -fverbose-asm -fzero-initialized-in-bss -mlittle-endian -msched-prolog
  45              	@ -mthumb -mvectorize-with-neon-quad
  46              	
  47              		.text
  48              	.Ltext0:
  49              		.cfi_sections	.debug_frame
  50              		.section	.text.__get_PSP,"ax",%progbits
  51              		.align	2
  52              		.global	__get_PSP
  53              		.code	16
  54              		.thumb_func
  55              		.type	__get_PSP, %function
  56              	__get_PSP:
  57              	.LFB0:
ARM GAS  C:\Users\Mariano\AppData\Local\Temp\ccDGb6Es.s 			page 2


  58              		.file 1 ".\\cmsis_core\\core_cm0.c"
   1:.\cmsis_core/core_cm0.c **** /**************************************************************************//**
   2:.\cmsis_core/core_cm0.c ****  * @file     core_cm0.c
   3:.\cmsis_core/core_cm0.c ****  * @brief    CMSIS Cortex-M0 Core Peripheral Access Layer Source File
   4:.\cmsis_core/core_cm0.c ****  * @version  V1.30
   5:.\cmsis_core/core_cm0.c ****  * @date     30. October 2009
   6:.\cmsis_core/core_cm0.c ****  *
   7:.\cmsis_core/core_cm0.c ****  * @note
   8:.\cmsis_core/core_cm0.c ****  * Copyright (C) 2009 ARM Limited. All rights reserved.
   9:.\cmsis_core/core_cm0.c ****  *
  10:.\cmsis_core/core_cm0.c ****  * @par
  11:.\cmsis_core/core_cm0.c ****  * ARM Limited (ARM) is supplying this software for use with Cortex-M 
  12:.\cmsis_core/core_cm0.c ****  * processor based microcontrollers.  This file can be freely distributed 
  13:.\cmsis_core/core_cm0.c ****  * within development tools that are supporting such ARM based processors. 
  14:.\cmsis_core/core_cm0.c ****  *
  15:.\cmsis_core/core_cm0.c ****  * @par
  16:.\cmsis_core/core_cm0.c ****  * THIS SOFTWARE IS PROVIDED "AS IS".  NO WARRANTIES, WHETHER EXPRESS, IMPLIED
  17:.\cmsis_core/core_cm0.c ****  * OR STATUTORY, INCLUDING, BUT NOT LIMITED TO, IMPLIED WARRANTIES OF
  18:.\cmsis_core/core_cm0.c ****  * MERCHANTABILITY AND FITNESS FOR A PARTICULAR PURPOSE APPLY TO THIS SOFTWARE.
  19:.\cmsis_core/core_cm0.c ****  * ARM SHALL NOT, IN ANY CIRCUMSTANCES, BE LIABLE FOR SPECIAL, INCIDENTAL, OR
  20:.\cmsis_core/core_cm0.c ****  * CONSEQUENTIAL DAMAGES, FOR ANY REASON WHATSOEVER.
  21:.\cmsis_core/core_cm0.c ****  *
  22:.\cmsis_core/core_cm0.c ****  ******************************************************************************/
  23:.\cmsis_core/core_cm0.c **** 
  24:.\cmsis_core/core_cm0.c **** #include <stdint.h>
  25:.\cmsis_core/core_cm0.c **** 
  26:.\cmsis_core/core_cm0.c **** /* define compiler specific symbols */
  27:.\cmsis_core/core_cm0.c **** #if defined ( __CC_ARM   )
  28:.\cmsis_core/core_cm0.c ****   #define __ASM            __asm                                      /*!< asm keyword for ARM Comp
  29:.\cmsis_core/core_cm0.c ****   #define __INLINE         __inline                                   /*!< inline keyword for ARM C
  30:.\cmsis_core/core_cm0.c **** 
  31:.\cmsis_core/core_cm0.c **** #elif defined ( __ICCARM__ )
  32:.\cmsis_core/core_cm0.c ****   #define __ASM           __asm                                       /*!< asm keyword for IAR Comp
  33:.\cmsis_core/core_cm0.c ****   #define __INLINE        inline                                      /*!< inline keyword for IAR C
  34:.\cmsis_core/core_cm0.c **** 
  35:.\cmsis_core/core_cm0.c **** #elif defined   (  __GNUC__  )
  36:.\cmsis_core/core_cm0.c ****   #define __ASM            __asm                                      /*!< asm keyword for GNU Comp
  37:.\cmsis_core/core_cm0.c ****   #define __INLINE         inline                                     /*!< inline keyword for GNU C
  38:.\cmsis_core/core_cm0.c **** 
  39:.\cmsis_core/core_cm0.c **** #elif defined   (  __TASKING__  )
  40:.\cmsis_core/core_cm0.c ****   #define __ASM            __asm                                      /*!< asm keyword for TASKING 
  41:.\cmsis_core/core_cm0.c ****   #define __INLINE         inline                                     /*!< inline keyword for TASKI
  42:.\cmsis_core/core_cm0.c **** 
  43:.\cmsis_core/core_cm0.c **** #endif
  44:.\cmsis_core/core_cm0.c **** 
  45:.\cmsis_core/core_cm0.c **** 
  46:.\cmsis_core/core_cm0.c **** /* ###################  Compiler specific Intrinsics  ########################### */
  47:.\cmsis_core/core_cm0.c **** 
  48:.\cmsis_core/core_cm0.c **** #if defined ( __CC_ARM   ) /*------------------RealView Compiler -----------------*/
  49:.\cmsis_core/core_cm0.c **** /* ARM armcc specific functions */
  50:.\cmsis_core/core_cm0.c **** 
  51:.\cmsis_core/core_cm0.c **** /**
  52:.\cmsis_core/core_cm0.c ****  * @brief  Return the Process Stack Pointer
  53:.\cmsis_core/core_cm0.c ****  *
  54:.\cmsis_core/core_cm0.c ****  * @return ProcessStackPointer
  55:.\cmsis_core/core_cm0.c ****  *
  56:.\cmsis_core/core_cm0.c ****  * Return the actual process stack pointer
ARM GAS  C:\Users\Mariano\AppData\Local\Temp\ccDGb6Es.s 			page 3


  57:.\cmsis_core/core_cm0.c ****  */
  58:.\cmsis_core/core_cm0.c **** __ASM uint32_t __get_PSP(void)
  59:.\cmsis_core/core_cm0.c **** {
  60:.\cmsis_core/core_cm0.c ****   mrs r0, psp
  61:.\cmsis_core/core_cm0.c ****   bx lr
  62:.\cmsis_core/core_cm0.c **** }
  63:.\cmsis_core/core_cm0.c **** 
  64:.\cmsis_core/core_cm0.c **** /**
  65:.\cmsis_core/core_cm0.c ****  * @brief  Set the Process Stack Pointer
  66:.\cmsis_core/core_cm0.c ****  *
  67:.\cmsis_core/core_cm0.c ****  * @param  topOfProcStack  Process Stack Pointer
  68:.\cmsis_core/core_cm0.c ****  *
  69:.\cmsis_core/core_cm0.c ****  * Assign the value ProcessStackPointer to the MSP 
  70:.\cmsis_core/core_cm0.c ****  * (process stack pointer) Cortex processor register
  71:.\cmsis_core/core_cm0.c ****  */
  72:.\cmsis_core/core_cm0.c **** __ASM void __set_PSP(uint32_t topOfProcStack)
  73:.\cmsis_core/core_cm0.c **** {
  74:.\cmsis_core/core_cm0.c ****   msr psp, r0
  75:.\cmsis_core/core_cm0.c ****   bx lr
  76:.\cmsis_core/core_cm0.c **** }
  77:.\cmsis_core/core_cm0.c **** 
  78:.\cmsis_core/core_cm0.c **** /**
  79:.\cmsis_core/core_cm0.c ****  * @brief  Return the Main Stack Pointer
  80:.\cmsis_core/core_cm0.c ****  *
  81:.\cmsis_core/core_cm0.c ****  * @return Main Stack Pointer
  82:.\cmsis_core/core_cm0.c ****  *
  83:.\cmsis_core/core_cm0.c ****  * Return the current value of the MSP (main stack pointer)
  84:.\cmsis_core/core_cm0.c ****  * Cortex processor register
  85:.\cmsis_core/core_cm0.c ****  */
  86:.\cmsis_core/core_cm0.c **** __ASM uint32_t __get_MSP(void)
  87:.\cmsis_core/core_cm0.c **** {
  88:.\cmsis_core/core_cm0.c ****   mrs r0, msp
  89:.\cmsis_core/core_cm0.c ****   bx lr
  90:.\cmsis_core/core_cm0.c **** }
  91:.\cmsis_core/core_cm0.c **** 
  92:.\cmsis_core/core_cm0.c **** /**
  93:.\cmsis_core/core_cm0.c ****  * @brief  Set the Main Stack Pointer
  94:.\cmsis_core/core_cm0.c ****  *
  95:.\cmsis_core/core_cm0.c ****  * @param  topOfMainStack  Main Stack Pointer
  96:.\cmsis_core/core_cm0.c ****  *
  97:.\cmsis_core/core_cm0.c ****  * Assign the value mainStackPointer to the MSP 
  98:.\cmsis_core/core_cm0.c ****  * (main stack pointer) Cortex processor register
  99:.\cmsis_core/core_cm0.c ****  */
 100:.\cmsis_core/core_cm0.c **** __ASM void __set_MSP(uint32_t mainStackPointer)
 101:.\cmsis_core/core_cm0.c **** {
 102:.\cmsis_core/core_cm0.c ****   msr msp, r0
 103:.\cmsis_core/core_cm0.c ****   bx lr
 104:.\cmsis_core/core_cm0.c **** }
 105:.\cmsis_core/core_cm0.c **** 
 106:.\cmsis_core/core_cm0.c **** /**
 107:.\cmsis_core/core_cm0.c ****  * @brief  Reverse byte order in unsigned short value
 108:.\cmsis_core/core_cm0.c ****  *
 109:.\cmsis_core/core_cm0.c ****  * @param   value  value to reverse
 110:.\cmsis_core/core_cm0.c ****  * @return         reversed value
 111:.\cmsis_core/core_cm0.c ****  *
 112:.\cmsis_core/core_cm0.c ****  * Reverse byte order in unsigned short value
 113:.\cmsis_core/core_cm0.c ****  */
ARM GAS  C:\Users\Mariano\AppData\Local\Temp\ccDGb6Es.s 			page 4


 114:.\cmsis_core/core_cm0.c **** __ASM uint32_t __REV16(uint16_t value)
 115:.\cmsis_core/core_cm0.c **** {
 116:.\cmsis_core/core_cm0.c ****   rev16 r0, r0
 117:.\cmsis_core/core_cm0.c ****   bx lr
 118:.\cmsis_core/core_cm0.c **** }
 119:.\cmsis_core/core_cm0.c **** 
 120:.\cmsis_core/core_cm0.c **** /**
 121:.\cmsis_core/core_cm0.c ****  * @brief  Reverse byte order in signed short value with sign extension to integer
 122:.\cmsis_core/core_cm0.c ****  *
 123:.\cmsis_core/core_cm0.c ****  * @param   value  value to reverse
 124:.\cmsis_core/core_cm0.c ****  * @return         reversed value
 125:.\cmsis_core/core_cm0.c ****  *
 126:.\cmsis_core/core_cm0.c ****  * Reverse byte order in signed short value with sign extension to integer
 127:.\cmsis_core/core_cm0.c ****  */
 128:.\cmsis_core/core_cm0.c **** __ASM int32_t __REVSH(int16_t value)
 129:.\cmsis_core/core_cm0.c **** {
 130:.\cmsis_core/core_cm0.c ****   revsh r0, r0
 131:.\cmsis_core/core_cm0.c ****   bx lr
 132:.\cmsis_core/core_cm0.c **** }
 133:.\cmsis_core/core_cm0.c **** 
 134:.\cmsis_core/core_cm0.c **** 
 135:.\cmsis_core/core_cm0.c **** #if (__ARMCC_VERSION < 400000)
 136:.\cmsis_core/core_cm0.c **** 
 137:.\cmsis_core/core_cm0.c **** 
 138:.\cmsis_core/core_cm0.c **** /**
 139:.\cmsis_core/core_cm0.c ****  * @brief  Return the Priority Mask value
 140:.\cmsis_core/core_cm0.c ****  *
 141:.\cmsis_core/core_cm0.c ****  * @return PriMask
 142:.\cmsis_core/core_cm0.c ****  *
 143:.\cmsis_core/core_cm0.c ****  * Return state of the priority mask bit from the priority mask register
 144:.\cmsis_core/core_cm0.c ****  */
 145:.\cmsis_core/core_cm0.c **** __ASM uint32_t __get_PRIMASK(void)
 146:.\cmsis_core/core_cm0.c **** {
 147:.\cmsis_core/core_cm0.c ****   mrs r0, primask
 148:.\cmsis_core/core_cm0.c ****   bx lr
 149:.\cmsis_core/core_cm0.c **** }
 150:.\cmsis_core/core_cm0.c **** 
 151:.\cmsis_core/core_cm0.c **** /**
 152:.\cmsis_core/core_cm0.c ****  * @brief  Set the Priority Mask value
 153:.\cmsis_core/core_cm0.c ****  *
 154:.\cmsis_core/core_cm0.c ****  * @param  priMask  PriMask
 155:.\cmsis_core/core_cm0.c ****  *
 156:.\cmsis_core/core_cm0.c ****  * Set the priority mask bit in the priority mask register
 157:.\cmsis_core/core_cm0.c ****  */
 158:.\cmsis_core/core_cm0.c **** __ASM void __set_PRIMASK(uint32_t priMask)
 159:.\cmsis_core/core_cm0.c **** {
 160:.\cmsis_core/core_cm0.c ****   msr primask, r0
 161:.\cmsis_core/core_cm0.c ****   bx lr
 162:.\cmsis_core/core_cm0.c **** }
 163:.\cmsis_core/core_cm0.c **** 
 164:.\cmsis_core/core_cm0.c **** /**
 165:.\cmsis_core/core_cm0.c ****  * @brief  Return the Control Register value
 166:.\cmsis_core/core_cm0.c ****  * 
 167:.\cmsis_core/core_cm0.c ****  * @return Control value
 168:.\cmsis_core/core_cm0.c ****  *
 169:.\cmsis_core/core_cm0.c ****  * Return the content of the control register
 170:.\cmsis_core/core_cm0.c ****  */
ARM GAS  C:\Users\Mariano\AppData\Local\Temp\ccDGb6Es.s 			page 5


 171:.\cmsis_core/core_cm0.c **** __ASM uint32_t __get_CONTROL(void)
 172:.\cmsis_core/core_cm0.c **** {
 173:.\cmsis_core/core_cm0.c ****   mrs r0, control
 174:.\cmsis_core/core_cm0.c ****   bx lr
 175:.\cmsis_core/core_cm0.c **** }
 176:.\cmsis_core/core_cm0.c **** 
 177:.\cmsis_core/core_cm0.c **** /**
 178:.\cmsis_core/core_cm0.c ****  * @brief  Set the Control Register value
 179:.\cmsis_core/core_cm0.c ****  *
 180:.\cmsis_core/core_cm0.c ****  * @param  control  Control value
 181:.\cmsis_core/core_cm0.c ****  *
 182:.\cmsis_core/core_cm0.c ****  * Set the control register
 183:.\cmsis_core/core_cm0.c ****  */
 184:.\cmsis_core/core_cm0.c **** __ASM void __set_CONTROL(uint32_t control)
 185:.\cmsis_core/core_cm0.c **** {
 186:.\cmsis_core/core_cm0.c ****   msr control, r0
 187:.\cmsis_core/core_cm0.c ****   bx lr
 188:.\cmsis_core/core_cm0.c **** }
 189:.\cmsis_core/core_cm0.c **** 
 190:.\cmsis_core/core_cm0.c **** #endif /* __ARMCC_VERSION  */ 
 191:.\cmsis_core/core_cm0.c **** 
 192:.\cmsis_core/core_cm0.c **** 
 193:.\cmsis_core/core_cm0.c **** 
 194:.\cmsis_core/core_cm0.c **** #elif (defined (__ICCARM__)) /*------------------ ICC Compiler -------------------*/
 195:.\cmsis_core/core_cm0.c **** /* IAR iccarm specific functions */
 196:.\cmsis_core/core_cm0.c **** #pragma diag_suppress=Pe940
 197:.\cmsis_core/core_cm0.c **** 
 198:.\cmsis_core/core_cm0.c **** /**
 199:.\cmsis_core/core_cm0.c ****  * @brief  Return the Process Stack Pointer
 200:.\cmsis_core/core_cm0.c ****  *
 201:.\cmsis_core/core_cm0.c ****  * @return ProcessStackPointer
 202:.\cmsis_core/core_cm0.c ****  *
 203:.\cmsis_core/core_cm0.c ****  * Return the actual process stack pointer
 204:.\cmsis_core/core_cm0.c ****  */
 205:.\cmsis_core/core_cm0.c **** uint32_t __get_PSP(void)
 206:.\cmsis_core/core_cm0.c **** {
 207:.\cmsis_core/core_cm0.c ****   __ASM("mrs r0, psp");
 208:.\cmsis_core/core_cm0.c ****   __ASM("bx lr");
 209:.\cmsis_core/core_cm0.c **** }
 210:.\cmsis_core/core_cm0.c **** 
 211:.\cmsis_core/core_cm0.c **** /**
 212:.\cmsis_core/core_cm0.c ****  * @brief  Set the Process Stack Pointer
 213:.\cmsis_core/core_cm0.c ****  *
 214:.\cmsis_core/core_cm0.c ****  * @param  topOfProcStack  Process Stack Pointer
 215:.\cmsis_core/core_cm0.c ****  *
 216:.\cmsis_core/core_cm0.c ****  * Assign the value ProcessStackPointer to the MSP 
 217:.\cmsis_core/core_cm0.c ****  * (process stack pointer) Cortex processor register
 218:.\cmsis_core/core_cm0.c ****  */
 219:.\cmsis_core/core_cm0.c **** void __set_PSP(uint32_t topOfProcStack)
 220:.\cmsis_core/core_cm0.c **** {
 221:.\cmsis_core/core_cm0.c ****   __ASM("msr psp, r0");
 222:.\cmsis_core/core_cm0.c ****   __ASM("bx lr");
 223:.\cmsis_core/core_cm0.c **** }
 224:.\cmsis_core/core_cm0.c **** 
 225:.\cmsis_core/core_cm0.c **** /**
 226:.\cmsis_core/core_cm0.c ****  * @brief  Return the Main Stack Pointer
 227:.\cmsis_core/core_cm0.c ****  *
ARM GAS  C:\Users\Mariano\AppData\Local\Temp\ccDGb6Es.s 			page 6


 228:.\cmsis_core/core_cm0.c ****  * @return Main Stack Pointer
 229:.\cmsis_core/core_cm0.c ****  *
 230:.\cmsis_core/core_cm0.c ****  * Return the current value of the MSP (main stack pointer)
 231:.\cmsis_core/core_cm0.c ****  * Cortex processor register
 232:.\cmsis_core/core_cm0.c ****  */
 233:.\cmsis_core/core_cm0.c **** uint32_t __get_MSP(void)
 234:.\cmsis_core/core_cm0.c **** {
 235:.\cmsis_core/core_cm0.c ****   __ASM("mrs r0, msp");
 236:.\cmsis_core/core_cm0.c ****   __ASM("bx lr");
 237:.\cmsis_core/core_cm0.c **** }
 238:.\cmsis_core/core_cm0.c **** 
 239:.\cmsis_core/core_cm0.c **** /**
 240:.\cmsis_core/core_cm0.c ****  * @brief  Set the Main Stack Pointer
 241:.\cmsis_core/core_cm0.c ****  *
 242:.\cmsis_core/core_cm0.c ****  * @param  topOfMainStack  Main Stack Pointer
 243:.\cmsis_core/core_cm0.c ****  *
 244:.\cmsis_core/core_cm0.c ****  * Assign the value mainStackPointer to the MSP 
 245:.\cmsis_core/core_cm0.c ****  * (main stack pointer) Cortex processor register
 246:.\cmsis_core/core_cm0.c ****  */
 247:.\cmsis_core/core_cm0.c **** void __set_MSP(uint32_t topOfMainStack)
 248:.\cmsis_core/core_cm0.c **** {
 249:.\cmsis_core/core_cm0.c ****   __ASM("msr msp, r0");
 250:.\cmsis_core/core_cm0.c ****   __ASM("bx lr");
 251:.\cmsis_core/core_cm0.c **** }
 252:.\cmsis_core/core_cm0.c **** 
 253:.\cmsis_core/core_cm0.c **** /**
 254:.\cmsis_core/core_cm0.c ****  * @brief  Reverse byte order in unsigned short value
 255:.\cmsis_core/core_cm0.c ****  *
 256:.\cmsis_core/core_cm0.c ****  * @param  value  value to reverse
 257:.\cmsis_core/core_cm0.c ****  * @return        reversed value
 258:.\cmsis_core/core_cm0.c ****  *
 259:.\cmsis_core/core_cm0.c ****  * Reverse byte order in unsigned short value
 260:.\cmsis_core/core_cm0.c ****  */
 261:.\cmsis_core/core_cm0.c **** uint32_t __REV16(uint16_t value)
 262:.\cmsis_core/core_cm0.c **** {
 263:.\cmsis_core/core_cm0.c ****   __ASM("rev16 r0, r0");
 264:.\cmsis_core/core_cm0.c ****   __ASM("bx lr");
 265:.\cmsis_core/core_cm0.c **** }
 266:.\cmsis_core/core_cm0.c **** 
 267:.\cmsis_core/core_cm0.c **** 
 268:.\cmsis_core/core_cm0.c **** #pragma diag_default=Pe940
 269:.\cmsis_core/core_cm0.c **** 
 270:.\cmsis_core/core_cm0.c **** 
 271:.\cmsis_core/core_cm0.c **** #elif (defined (__GNUC__)) /*------------------ GNU Compiler ---------------------*/
 272:.\cmsis_core/core_cm0.c **** /* GNU gcc specific functions */
 273:.\cmsis_core/core_cm0.c **** 
 274:.\cmsis_core/core_cm0.c **** /**
 275:.\cmsis_core/core_cm0.c ****  * @brief  Return the Process Stack Pointer
 276:.\cmsis_core/core_cm0.c ****  *
 277:.\cmsis_core/core_cm0.c ****  * @return ProcessStackPointer
 278:.\cmsis_core/core_cm0.c ****  *
 279:.\cmsis_core/core_cm0.c ****  * Return the actual process stack pointer
 280:.\cmsis_core/core_cm0.c ****  */
 281:.\cmsis_core/core_cm0.c **** uint32_t __get_PSP(void) __attribute__( ( naked ) );
 282:.\cmsis_core/core_cm0.c **** uint32_t __get_PSP(void)
 283:.\cmsis_core/core_cm0.c **** {
  59              		.loc 1 283 0
ARM GAS  C:\Users\Mariano\AppData\Local\Temp\ccDGb6Es.s 			page 7


  60              		.cfi_startproc
 284:.\cmsis_core/core_cm0.c ****   uint32_t result=0;
  61              		.loc 1 284 0
  62 0000 0024     		mov	r4, #0	@ result,
 285:.\cmsis_core/core_cm0.c **** 
 286:.\cmsis_core/core_cm0.c ****   __ASM volatile ("MRS %0, psp\n\t" 
  63              		.loc 1 286 0
  64              	@ 286 ".\cmsis_core\core_cm0.c" 1
  65 0002 EFF30984 		MRS r4, psp	@ result
  66 0006 201C     		MOV r0, r4 	@ result
  67 0008 7047     		BX  lr     
  68              		
  69              	@ 0 "" 2
 287:.\cmsis_core/core_cm0.c ****                   "MOV r0, %0 \n\t"
 288:.\cmsis_core/core_cm0.c ****                   "BX  lr     \n\t"  : "=r" (result) );
 289:.\cmsis_core/core_cm0.c ****   return(result);
  70              		.loc 1 289 0
  71              		.code	16
  72 000a 231C     		mov	r3, r4	@ D.4145, result
 290:.\cmsis_core/core_cm0.c **** }
  73              		.loc 1 290 0
  74 000c 181C     		mov	r0, r3	@, <retval>
  75              		.cfi_endproc
  76              	.LFE0:
  77              		.size	__get_PSP, .-__get_PSP
  78 000e C046     		.section	.text.__set_PSP,"ax",%progbits
  79              		.align	2
  80              		.global	__set_PSP
  81              		.code	16
  82              		.thumb_func
  83              		.type	__set_PSP, %function
  84              	__set_PSP:
  85              	.LFB1:
 291:.\cmsis_core/core_cm0.c **** 
 292:.\cmsis_core/core_cm0.c **** /**
 293:.\cmsis_core/core_cm0.c ****  * @brief  Set the Process Stack Pointer
 294:.\cmsis_core/core_cm0.c ****  *
 295:.\cmsis_core/core_cm0.c ****  * @param  topOfProcStack  Process Stack Pointer
 296:.\cmsis_core/core_cm0.c ****  *
 297:.\cmsis_core/core_cm0.c ****  * Assign the value ProcessStackPointer to the MSP 
 298:.\cmsis_core/core_cm0.c ****  * (process stack pointer) Cortex processor register
 299:.\cmsis_core/core_cm0.c ****  */
 300:.\cmsis_core/core_cm0.c **** void __set_PSP(uint32_t topOfProcStack) __attribute__( ( naked ) );
 301:.\cmsis_core/core_cm0.c **** void __set_PSP(uint32_t topOfProcStack)
 302:.\cmsis_core/core_cm0.c **** {
  86              		.loc 1 302 0
  87              		.cfi_startproc
  88 0000 031C     		mov	r3, r0	@ topOfProcStack, topOfProcStack
 303:.\cmsis_core/core_cm0.c ****   __ASM volatile ("MSR psp, %0\n\t"
  89              		.loc 1 303 0
  90              	@ 303 ".\cmsis_core\core_cm0.c" 1
  91 0002 83F30988 		MSR psp, r3	@ topOfProcStack
  92 0006 7047     		BX  lr     
  93              		
  94              	@ 0 "" 2
 304:.\cmsis_core/core_cm0.c ****                   "BX  lr     \n\t" : : "r" (topOfProcStack) );
 305:.\cmsis_core/core_cm0.c **** }
ARM GAS  C:\Users\Mariano\AppData\Local\Temp\ccDGb6Es.s 			page 8


  95              		.loc 1 305 0
  96              		.code	16
  97              		.cfi_endproc
  98              	.LFE1:
  99              		.size	__set_PSP, .-__set_PSP
 100              		.section	.text.__get_MSP,"ax",%progbits
 101              		.align	2
 102              		.global	__get_MSP
 103              		.code	16
 104              		.thumb_func
 105              		.type	__get_MSP, %function
 106              	__get_MSP:
 107              	.LFB2:
 306:.\cmsis_core/core_cm0.c **** 
 307:.\cmsis_core/core_cm0.c **** /**
 308:.\cmsis_core/core_cm0.c ****  * @brief  Return the Main Stack Pointer
 309:.\cmsis_core/core_cm0.c ****  *
 310:.\cmsis_core/core_cm0.c ****  * @return Main Stack Pointer
 311:.\cmsis_core/core_cm0.c ****  *
 312:.\cmsis_core/core_cm0.c ****  * Return the current value of the MSP (main stack pointer)
 313:.\cmsis_core/core_cm0.c ****  * Cortex processor register
 314:.\cmsis_core/core_cm0.c ****  */
 315:.\cmsis_core/core_cm0.c **** uint32_t __get_MSP(void) __attribute__( ( naked ) );
 316:.\cmsis_core/core_cm0.c **** uint32_t __get_MSP(void)
 317:.\cmsis_core/core_cm0.c **** {
 108              		.loc 1 317 0
 109              		.cfi_startproc
 318:.\cmsis_core/core_cm0.c ****   uint32_t result=0;
 110              		.loc 1 318 0
 111 0000 0024     		mov	r4, #0	@ result,
 319:.\cmsis_core/core_cm0.c **** 
 320:.\cmsis_core/core_cm0.c ****   __ASM volatile ("MRS %0, msp\n\t" 
 112              		.loc 1 320 0
 113              	@ 320 ".\cmsis_core\core_cm0.c" 1
 114 0002 EFF30884 		MRS r4, msp	@ result
 115 0006 201C     		MOV r0, r4 	@ result
 116 0008 7047     		BX  lr     
 117              		
 118              	@ 0 "" 2
 321:.\cmsis_core/core_cm0.c ****                   "MOV r0, %0 \n\t"
 322:.\cmsis_core/core_cm0.c ****                   "BX  lr     \n\t"  : "=r" (result) );
 323:.\cmsis_core/core_cm0.c ****   return(result);
 119              		.loc 1 323 0
 120              		.code	16
 121 000a 231C     		mov	r3, r4	@ D.4143, result
 324:.\cmsis_core/core_cm0.c **** }
 122              		.loc 1 324 0
 123 000c 181C     		mov	r0, r3	@, <retval>
 124              		.cfi_endproc
 125              	.LFE2:
 126              		.size	__get_MSP, .-__get_MSP
 127 000e C046     		.section	.text.__set_MSP,"ax",%progbits
 128              		.align	2
 129              		.global	__set_MSP
 130              		.code	16
 131              		.thumb_func
 132              		.type	__set_MSP, %function
ARM GAS  C:\Users\Mariano\AppData\Local\Temp\ccDGb6Es.s 			page 9


 133              	__set_MSP:
 134              	.LFB3:
 325:.\cmsis_core/core_cm0.c **** 
 326:.\cmsis_core/core_cm0.c **** /**
 327:.\cmsis_core/core_cm0.c ****  * @brief  Set the Main Stack Pointer
 328:.\cmsis_core/core_cm0.c ****  *
 329:.\cmsis_core/core_cm0.c ****  * @param  topOfMainStack  Main Stack Pointer
 330:.\cmsis_core/core_cm0.c ****  *
 331:.\cmsis_core/core_cm0.c ****  * Assign the value mainStackPointer to the MSP 
 332:.\cmsis_core/core_cm0.c ****  * (main stack pointer) Cortex processor register
 333:.\cmsis_core/core_cm0.c ****  */
 334:.\cmsis_core/core_cm0.c **** void __set_MSP(uint32_t topOfMainStack) __attribute__( ( naked ) );
 335:.\cmsis_core/core_cm0.c **** void __set_MSP(uint32_t topOfMainStack)
 336:.\cmsis_core/core_cm0.c **** {
 135              		.loc 1 336 0
 136              		.cfi_startproc
 137 0000 031C     		mov	r3, r0	@ topOfMainStack, topOfMainStack
 337:.\cmsis_core/core_cm0.c ****   __ASM volatile ("MSR msp, %0\n\t"
 138              		.loc 1 337 0
 139              	@ 337 ".\cmsis_core\core_cm0.c" 1
 140 0002 83F30888 		MSR msp, r3	@ topOfMainStack
 141 0006 7047     		BX  lr     
 142              		
 143              	@ 0 "" 2
 338:.\cmsis_core/core_cm0.c ****                   "BX  lr     \n\t" : : "r" (topOfMainStack) );
 339:.\cmsis_core/core_cm0.c **** }
 144              		.loc 1 339 0
 145              		.code	16
 146              		.cfi_endproc
 147              	.LFE3:
 148              		.size	__set_MSP, .-__set_MSP
 149              		.section	.text.__get_PRIMASK,"ax",%progbits
 150              		.align	2
 151              		.global	__get_PRIMASK
 152              		.code	16
 153              		.thumb_func
 154              		.type	__get_PRIMASK, %function
 155              	__get_PRIMASK:
 156              	.LFB4:
 340:.\cmsis_core/core_cm0.c **** 
 341:.\cmsis_core/core_cm0.c **** 
 342:.\cmsis_core/core_cm0.c **** /**
 343:.\cmsis_core/core_cm0.c ****  * @brief  Return the Priority Mask value
 344:.\cmsis_core/core_cm0.c ****  *
 345:.\cmsis_core/core_cm0.c ****  * @return PriMask
 346:.\cmsis_core/core_cm0.c ****  *
 347:.\cmsis_core/core_cm0.c ****  * Return state of the priority mask bit from the priority mask register
 348:.\cmsis_core/core_cm0.c ****  */
 349:.\cmsis_core/core_cm0.c **** uint32_t __get_PRIMASK(void)
 350:.\cmsis_core/core_cm0.c **** {
 157              		.loc 1 350 0
 158              		.cfi_startproc
 159 0000 10B5     		push	{r4, lr}	@
 160              	.LCFI0:
 161              		.cfi_def_cfa_offset 8
 162              		.cfi_offset 4, -8
 163              		.cfi_offset 14, -4
ARM GAS  C:\Users\Mariano\AppData\Local\Temp\ccDGb6Es.s 			page 10


 164 0002 82B0     		sub	sp, sp, #8	@,,
 165              	.LCFI1:
 166              		.cfi_def_cfa_offset 16
 351:.\cmsis_core/core_cm0.c ****   uint32_t result=0;
 167              		.loc 1 351 0
 168 0004 0023     		mov	r3, #0	@ tmp136,
 169 0006 0193     		str	r3, [sp, #4]	@ tmp136, result
 352:.\cmsis_core/core_cm0.c **** 
 353:.\cmsis_core/core_cm0.c ****   __ASM volatile ("MRS %0, primask" : "=r" (result) );
 170              		.loc 1 353 0
 171              	@ 353 ".\cmsis_core\core_cm0.c" 1
 172 0008 EFF31084 		MRS r4, primask	@ result
 173              	@ 0 "" 2
 174              		.code	16
 175 000c 0194     		str	r4, [sp, #4]	@ result, result
 354:.\cmsis_core/core_cm0.c ****   return(result);
 176              		.loc 1 354 0
 177 000e 019B     		ldr	r3, [sp, #4]	@ D.4141, result
 355:.\cmsis_core/core_cm0.c **** }
 178              		.loc 1 355 0
 179 0010 181C     		mov	r0, r3	@, <retval>
 180 0012 02B0     		add	sp, sp, #8	@,,
 181              		@ sp needed for prologue	@
 182 0014 10BD     		pop	{r4, pc}
 183              		.cfi_endproc
 184              	.LFE4:
 185              		.size	__get_PRIMASK, .-__get_PRIMASK
 186 0016 C046     		.section	.text.__set_PRIMASK,"ax",%progbits
 187              		.align	2
 188              		.global	__set_PRIMASK
 189              		.code	16
 190              		.thumb_func
 191              		.type	__set_PRIMASK, %function
 192              	__set_PRIMASK:
 193              	.LFB5:
 356:.\cmsis_core/core_cm0.c **** 
 357:.\cmsis_core/core_cm0.c **** /**
 358:.\cmsis_core/core_cm0.c ****  * @brief  Set the Priority Mask value
 359:.\cmsis_core/core_cm0.c ****  *
 360:.\cmsis_core/core_cm0.c ****  * @param  priMask  PriMask
 361:.\cmsis_core/core_cm0.c ****  *
 362:.\cmsis_core/core_cm0.c ****  * Set the priority mask bit in the priority mask register
 363:.\cmsis_core/core_cm0.c ****  */
 364:.\cmsis_core/core_cm0.c **** void __set_PRIMASK(uint32_t priMask)
 365:.\cmsis_core/core_cm0.c **** {
 194              		.loc 1 365 0
 195              		.cfi_startproc
 196 0000 82B0     		sub	sp, sp, #8	@,,
 197              	.LCFI2:
 198              		.cfi_def_cfa_offset 8
 199 0002 0190     		str	r0, [sp, #4]	@ priMask, priMask
 366:.\cmsis_core/core_cm0.c ****   __ASM volatile ("MSR primask, %0" : : "r" (priMask) );
 200              		.loc 1 366 0
 201 0004 019B     		ldr	r3, [sp, #4]	@ tmp134, priMask
 202              	@ 366 ".\cmsis_core\core_cm0.c" 1
 203 0006 83F31088 		MSR primask, r3	@ tmp134
 204              	@ 0 "" 2
ARM GAS  C:\Users\Mariano\AppData\Local\Temp\ccDGb6Es.s 			page 11


 367:.\cmsis_core/core_cm0.c **** }
 205              		.loc 1 367 0
 206              		.code	16
 207 000a 02B0     		add	sp, sp, #8	@,,
 208              		@ sp needed for prologue	@
 209 000c 7047     		bx	lr
 210              		.cfi_endproc
 211              	.LFE5:
 212              		.size	__set_PRIMASK, .-__set_PRIMASK
 213 000e C046     		.section	.text.__get_CONTROL,"ax",%progbits
 214              		.align	2
 215              		.global	__get_CONTROL
 216              		.code	16
 217              		.thumb_func
 218              		.type	__get_CONTROL, %function
 219              	__get_CONTROL:
 220              	.LFB6:
 368:.\cmsis_core/core_cm0.c **** 
 369:.\cmsis_core/core_cm0.c **** /**
 370:.\cmsis_core/core_cm0.c ****  * @brief  Return the Control Register value
 371:.\cmsis_core/core_cm0.c **** * 
 372:.\cmsis_core/core_cm0.c **** *  @return Control value
 373:.\cmsis_core/core_cm0.c ****  *
 374:.\cmsis_core/core_cm0.c ****  * Return the content of the control register
 375:.\cmsis_core/core_cm0.c ****  */
 376:.\cmsis_core/core_cm0.c **** uint32_t __get_CONTROL(void)
 377:.\cmsis_core/core_cm0.c **** {
 221              		.loc 1 377 0
 222              		.cfi_startproc
 223 0000 10B5     		push	{r4, lr}	@
 224              	.LCFI3:
 225              		.cfi_def_cfa_offset 8
 226              		.cfi_offset 4, -8
 227              		.cfi_offset 14, -4
 228 0002 82B0     		sub	sp, sp, #8	@,,
 229              	.LCFI4:
 230              		.cfi_def_cfa_offset 16
 378:.\cmsis_core/core_cm0.c ****   uint32_t result=0;
 231              		.loc 1 378 0
 232 0004 0023     		mov	r3, #0	@ tmp136,
 233 0006 0193     		str	r3, [sp, #4]	@ tmp136, result
 379:.\cmsis_core/core_cm0.c **** 
 380:.\cmsis_core/core_cm0.c ****   __ASM volatile ("MRS %0, control" : "=r" (result) );
 234              		.loc 1 380 0
 235              	@ 380 ".\cmsis_core\core_cm0.c" 1
 236 0008 EFF31484 		MRS r4, control	@ result
 237              	@ 0 "" 2
 238              		.code	16
 239 000c 0194     		str	r4, [sp, #4]	@ result, result
 381:.\cmsis_core/core_cm0.c ****   return(result);
 240              		.loc 1 381 0
 241 000e 019B     		ldr	r3, [sp, #4]	@ D.4139, result
 382:.\cmsis_core/core_cm0.c **** }
 242              		.loc 1 382 0
 243 0010 181C     		mov	r0, r3	@, <retval>
 244 0012 02B0     		add	sp, sp, #8	@,,
 245              		@ sp needed for prologue	@
ARM GAS  C:\Users\Mariano\AppData\Local\Temp\ccDGb6Es.s 			page 12


 246 0014 10BD     		pop	{r4, pc}
 247              		.cfi_endproc
 248              	.LFE6:
 249              		.size	__get_CONTROL, .-__get_CONTROL
 250 0016 C046     		.section	.text.__set_CONTROL,"ax",%progbits
 251              		.align	2
 252              		.global	__set_CONTROL
 253              		.code	16
 254              		.thumb_func
 255              		.type	__set_CONTROL, %function
 256              	__set_CONTROL:
 257              	.LFB7:
 383:.\cmsis_core/core_cm0.c **** 
 384:.\cmsis_core/core_cm0.c **** /**
 385:.\cmsis_core/core_cm0.c ****  * @brief  Set the Control Register value
 386:.\cmsis_core/core_cm0.c ****  *
 387:.\cmsis_core/core_cm0.c ****  * @param  control  Control value
 388:.\cmsis_core/core_cm0.c ****  *
 389:.\cmsis_core/core_cm0.c ****  * Set the control register
 390:.\cmsis_core/core_cm0.c ****  */
 391:.\cmsis_core/core_cm0.c **** void __set_CONTROL(uint32_t control)
 392:.\cmsis_core/core_cm0.c **** {
 258              		.loc 1 392 0
 259              		.cfi_startproc
 260 0000 82B0     		sub	sp, sp, #8	@,,
 261              	.LCFI5:
 262              		.cfi_def_cfa_offset 8
 263 0002 0190     		str	r0, [sp, #4]	@ control, control
 393:.\cmsis_core/core_cm0.c ****   __ASM volatile ("MSR control, %0" : : "r" (control) );
 264              		.loc 1 393 0
 265 0004 019B     		ldr	r3, [sp, #4]	@ tmp134, control
 266              	@ 393 ".\cmsis_core\core_cm0.c" 1
 267 0006 83F31488 		MSR control, r3	@ tmp134
 268              	@ 0 "" 2
 394:.\cmsis_core/core_cm0.c **** }
 269              		.loc 1 394 0
 270              		.code	16
 271 000a 02B0     		add	sp, sp, #8	@,,
 272              		@ sp needed for prologue	@
 273 000c 7047     		bx	lr
 274              		.cfi_endproc
 275              	.LFE7:
 276              		.size	__set_CONTROL, .-__set_CONTROL
 277 000e C046     		.section	.text.__REV,"ax",%progbits
 278              		.align	2
 279              		.global	__REV
 280              		.code	16
 281              		.thumb_func
 282              		.type	__REV, %function
 283              	__REV:
 284              	.LFB8:
 395:.\cmsis_core/core_cm0.c **** 
 396:.\cmsis_core/core_cm0.c **** 
 397:.\cmsis_core/core_cm0.c **** /**
 398:.\cmsis_core/core_cm0.c ****  * @brief  Reverse byte order in integer value
 399:.\cmsis_core/core_cm0.c ****  *
 400:.\cmsis_core/core_cm0.c ****  * @param  value  value to reverse
ARM GAS  C:\Users\Mariano\AppData\Local\Temp\ccDGb6Es.s 			page 13


 401:.\cmsis_core/core_cm0.c ****  * @return        reversed value
 402:.\cmsis_core/core_cm0.c ****  *
 403:.\cmsis_core/core_cm0.c ****  * Reverse byte order in integer value
 404:.\cmsis_core/core_cm0.c ****  */
 405:.\cmsis_core/core_cm0.c **** uint32_t __REV(uint32_t value)
 406:.\cmsis_core/core_cm0.c **** {
 285              		.loc 1 406 0
 286              		.cfi_startproc
 287 0000 10B5     		push	{r4, lr}	@
 288              	.LCFI6:
 289              		.cfi_def_cfa_offset 8
 290              		.cfi_offset 4, -8
 291              		.cfi_offset 14, -4
 292 0002 84B0     		sub	sp, sp, #16	@,,
 293              	.LCFI7:
 294              		.cfi_def_cfa_offset 24
 295 0004 0190     		str	r0, [sp, #4]	@ value, value
 407:.\cmsis_core/core_cm0.c ****   uint32_t result=0;
 296              		.loc 1 407 0
 297 0006 0023     		mov	r3, #0	@ tmp136,
 298 0008 0393     		str	r3, [sp, #12]	@ tmp136, result
 408:.\cmsis_core/core_cm0.c ****   
 409:.\cmsis_core/core_cm0.c ****   __ASM volatile ("rev %0, %1" : "=r" (result) : "r" (value) );
 299              		.loc 1 409 0
 300 000a 019B     		ldr	r3, [sp, #4]	@ tmp138, value
 301              	@ 409 ".\cmsis_core\core_cm0.c" 1
 302 000c 1CBA     		rev r4, r3	@ result, tmp138
 303              	@ 0 "" 2
 304              		.code	16
 305 000e 0394     		str	r4, [sp, #12]	@ result, result
 410:.\cmsis_core/core_cm0.c ****   return(result);
 306              		.loc 1 410 0
 307 0010 039B     		ldr	r3, [sp, #12]	@ D.4137, result
 411:.\cmsis_core/core_cm0.c **** }
 308              		.loc 1 411 0
 309 0012 181C     		mov	r0, r3	@, <retval>
 310 0014 04B0     		add	sp, sp, #16	@,,
 311              		@ sp needed for prologue	@
 312 0016 10BD     		pop	{r4, pc}
 313              		.cfi_endproc
 314              	.LFE8:
 315              		.size	__REV, .-__REV
 316              		.section	.text.__REV16,"ax",%progbits
 317              		.align	2
 318              		.global	__REV16
 319              		.code	16
 320              		.thumb_func
 321              		.type	__REV16, %function
 322              	__REV16:
 323              	.LFB9:
 412:.\cmsis_core/core_cm0.c **** 
 413:.\cmsis_core/core_cm0.c **** /**
 414:.\cmsis_core/core_cm0.c ****  * @brief  Reverse byte order in unsigned short value
 415:.\cmsis_core/core_cm0.c ****  *
 416:.\cmsis_core/core_cm0.c ****  * @param  value  value to reverse
 417:.\cmsis_core/core_cm0.c ****  * @return        reversed value
 418:.\cmsis_core/core_cm0.c ****  *
ARM GAS  C:\Users\Mariano\AppData\Local\Temp\ccDGb6Es.s 			page 14


 419:.\cmsis_core/core_cm0.c ****  * Reverse byte order in unsigned short value
 420:.\cmsis_core/core_cm0.c ****  */
 421:.\cmsis_core/core_cm0.c **** uint32_t __REV16(uint16_t value)
 422:.\cmsis_core/core_cm0.c **** {
 324              		.loc 1 422 0
 325              		.cfi_startproc
 326 0000 10B5     		push	{r4, lr}	@
 327              	.LCFI8:
 328              		.cfi_def_cfa_offset 8
 329              		.cfi_offset 4, -8
 330              		.cfi_offset 14, -4
 331 0002 84B0     		sub	sp, sp, #16	@,,
 332              	.LCFI9:
 333              		.cfi_def_cfa_offset 24
 334 0004 021C     		mov	r2, r0	@ tmp136, value
 335 0006 6B46     		mov	r3, sp	@ tmp137,
 336 0008 0633     		add	r3, r3, #6	@ tmp137,
 337 000a 1A80     		strh	r2, [r3]	@ tmp138, value
 423:.\cmsis_core/core_cm0.c ****   uint32_t result=0;
 338              		.loc 1 423 0
 339 000c 0023     		mov	r3, #0	@ tmp139,
 340 000e 0393     		str	r3, [sp, #12]	@ tmp139, result
 424:.\cmsis_core/core_cm0.c ****   
 425:.\cmsis_core/core_cm0.c ****   __ASM volatile ("rev16 %0, %1" : "=r" (result) : "r" (value) );
 341              		.loc 1 425 0
 342 0010 6B46     		mov	r3, sp	@ tmp141,
 343 0012 0633     		add	r3, r3, #6	@ tmp141,
 344 0014 1B88     		ldrh	r3, [r3]	@ tmp142, value
 345              	@ 425 ".\cmsis_core\core_cm0.c" 1
 346 0016 5CBA     		rev16 r4, r3	@ result, tmp142
 347              	@ 0 "" 2
 348              		.code	16
 349 0018 0394     		str	r4, [sp, #12]	@ result, result
 426:.\cmsis_core/core_cm0.c ****   return(result);
 350              		.loc 1 426 0
 351 001a 039B     		ldr	r3, [sp, #12]	@ D.4135, result
 427:.\cmsis_core/core_cm0.c **** }
 352              		.loc 1 427 0
 353 001c 181C     		mov	r0, r3	@, <retval>
 354 001e 04B0     		add	sp, sp, #16	@,,
 355              		@ sp needed for prologue	@
 356 0020 10BD     		pop	{r4, pc}
 357              		.cfi_endproc
 358              	.LFE9:
 359              		.size	__REV16, .-__REV16
 360 0022 C046     		.section	.text.__REVSH,"ax",%progbits
 361              		.align	2
 362              		.global	__REVSH
 363              		.code	16
 364              		.thumb_func
 365              		.type	__REVSH, %function
 366              	__REVSH:
 367              	.LFB10:
 428:.\cmsis_core/core_cm0.c **** 
 429:.\cmsis_core/core_cm0.c **** /**
 430:.\cmsis_core/core_cm0.c ****  * @brief  Reverse byte order in signed short value with sign extension to integer
 431:.\cmsis_core/core_cm0.c ****  *
ARM GAS  C:\Users\Mariano\AppData\Local\Temp\ccDGb6Es.s 			page 15


 432:.\cmsis_core/core_cm0.c ****  * @param  value  value to reverse
 433:.\cmsis_core/core_cm0.c ****  * @return        reversed value
 434:.\cmsis_core/core_cm0.c ****  *
 435:.\cmsis_core/core_cm0.c ****  * Reverse byte order in signed short value with sign extension to integer
 436:.\cmsis_core/core_cm0.c ****  */
 437:.\cmsis_core/core_cm0.c **** int32_t __REVSH(int16_t value)
 438:.\cmsis_core/core_cm0.c **** {
 368              		.loc 1 438 0
 369              		.cfi_startproc
 370 0000 10B5     		push	{r4, lr}	@
 371              	.LCFI10:
 372              		.cfi_def_cfa_offset 8
 373              		.cfi_offset 4, -8
 374              		.cfi_offset 14, -4
 375 0002 84B0     		sub	sp, sp, #16	@,,
 376              	.LCFI11:
 377              		.cfi_def_cfa_offset 24
 378 0004 021C     		mov	r2, r0	@ tmp136, value
 379 0006 6B46     		mov	r3, sp	@ tmp137,
 380 0008 0633     		add	r3, r3, #6	@ tmp137,
 381 000a 1A80     		strh	r2, [r3]	@ tmp138, value
 439:.\cmsis_core/core_cm0.c ****   uint32_t result=0;
 382              		.loc 1 439 0
 383 000c 0023     		mov	r3, #0	@ tmp139,
 384 000e 0393     		str	r3, [sp, #12]	@ tmp139, result
 440:.\cmsis_core/core_cm0.c ****   
 441:.\cmsis_core/core_cm0.c ****   __ASM volatile ("revsh %0, %1" : "=r" (result) : "r" (value) );
 385              		.loc 1 441 0
 386 0010 6B46     		mov	r3, sp	@ tmp141,
 387 0012 0633     		add	r3, r3, #6	@ tmp141,
 388 0014 1B88     		ldrh	r3, [r3]	@ tmp142, value
 389              	@ 441 ".\cmsis_core\core_cm0.c" 1
 390 0016 DCBA     		revsh r4, r3	@ result, tmp142
 391              	@ 0 "" 2
 392              		.code	16
 393 0018 0394     		str	r4, [sp, #12]	@ result, result
 442:.\cmsis_core/core_cm0.c ****   return(result);
 394              		.loc 1 442 0
 395 001a 039B     		ldr	r3, [sp, #12]	@ D.4133, result
 443:.\cmsis_core/core_cm0.c **** }
 396              		.loc 1 443 0
 397 001c 181C     		mov	r0, r3	@, <retval>
 398 001e 04B0     		add	sp, sp, #16	@,,
 399              		@ sp needed for prologue	@
 400 0020 10BD     		pop	{r4, pc}
 401              		.cfi_endproc
 402              	.LFE10:
 403              		.size	__REVSH, .-__REVSH
 404 0022 C046     		.text
 405              	.Letext0:
 406              		.file 2 "c:\\program files (x86)\\gnu tools arm embedded\\4.7 2013q2\\bin\\../lib/gcc/arm-none-eab