ARM GAS  C:\Users\Mariano\AppData\Local\Temp\ccZCsQIT.s 			page 1


   1              		.cpu cortex-m0
   2              		.fpu softvfp
   3              		.eabi_attribute 20, 1	@ Tag_ABI_FP_denormal
   4              		.eabi_attribute 21, 1	@ Tag_ABI_FP_exceptions
   5              		.eabi_attribute 23, 3	@ Tag_ABI_FP_number_model
   6              		.eabi_attribute 24, 1	@ Tag_ABI_align8_needed
   7              		.eabi_attribute 25, 1	@ Tag_ABI_align8_preserved
   8              		.eabi_attribute 26, 1	@ Tag_ABI_enum_size
   9              		.eabi_attribute 30, 6	@ Tag_ABI_optimization_goals
  10              		.eabi_attribute 34, 0	@ Tag_CPU_unaligned_access
  11              		.eabi_attribute 18, 4	@ Tag_ABI_PCS_wchar_t
  12              		.file	"dmx_transceiver.c"
  13              	@ GNU C (GNU Tools for ARM Embedded Processors) version 4.7.4 20130613 (release) [ARM/embedded-4_7-
  14              	@	compiled by GNU C version 4.2.1-sjlj (mingw32-2), GMP version 4.3.2, MPFR version 2.4.2, MPC vers
  15              	@ GGC heuristics: --param ggc-min-expand=100 --param ggc-min-heapsize=131072
  16              	@ options passed:  -I . -I .\src -I .\cmsis_boot -I .\cmsis_core
  17              	@ -I ..\STM32F0xx_StdPeriph_Lib_V1.3.1\Libraries\STM32F0xx_StdPeriph_Driver\inc
  18              	@ -I .\inc -I .\cmsis_boot -imultilib armv6-m
  19              	@ -iprefix c:\program files (x86)\gnu tools arm embedded\4.7 2013q2\bin\../lib/gcc/arm-none-eabi/4.
  20              	@ -isysroot c:\program files (x86)\gnu tools arm embedded\4.7 2013q2\bin\../arm-none-eabi
  21              	@ -MD .\src\dmx_transceiver.d -MF .dep\dmx_transceiver.o.d -MP
  22              	@ -MQ .\src\dmx_transceiver.o -D__USES_INITFINI__ -D RUN_FROM_FLASH=1
  23              	@ .\src\dmx_transceiver.c -mcpu=cortex-m0 -mthumb
  24              	@ -auxbase-strip .\src\dmx_transceiver.o -g -gdwarf-2 -O0 -Wall
  25              	@ -fomit-frame-pointer -fdata-sections -ffunction-sections -fverbose-asm
  26              	@ options enabled:  -fauto-inc-dec -fbranch-count-reg -fcommon
  27              	@ -fdata-sections -fdebug-types-section -fdelete-null-pointer-checks
  28              	@ -fdwarf2-cfi-asm -fearly-inlining -feliminate-unused-debug-types
  29              	@ -ffunction-cse -ffunction-sections -fgcse-lm -fgnu-runtime -fident
  30              	@ -finline-atomics -fira-hoist-pressure -fira-share-save-slots
  31              	@ -fira-share-spill-slots -fivopts -fkeep-static-consts
  32              	@ -fleading-underscore -fmath-errno -fmerge-debug-strings
  33              	@ -fmove-loop-invariants -fomit-frame-pointer -fpeephole
  34              	@ -fprefetch-loop-arrays -freg-struct-return
  35              	@ -fsched-critical-path-heuristic -fsched-dep-count-heuristic
  36              	@ -fsched-group-heuristic -fsched-interblock -fsched-last-insn-heuristic
  37              	@ -fsched-rank-heuristic -fsched-spec -fsched-spec-insn-heuristic
  38              	@ -fsched-stalled-insns-dep -fshow-column -fsigned-zeros
  39              	@ -fsplit-ivs-in-unroller -fstrict-volatile-bitfields -ftrapping-math
  40              	@ -ftree-cselim -ftree-forwprop -ftree-loop-if-convert -ftree-loop-im
  41              	@ -ftree-loop-ivcanon -ftree-loop-optimize -ftree-parallelize-loops=
  42              	@ -ftree-phiprop -ftree-pta -ftree-reassoc -ftree-scev-cprop
  43              	@ -ftree-slp-vectorize -ftree-vect-loop-version -funit-at-a-time
  44              	@ -fverbose-asm -fzero-initialized-in-bss -mlittle-endian -msched-prolog
  45              	@ -mthumb -mvectorize-with-neon-quad
  46              	
  47              		.text
  48              	.Ltext0:
  49              		.cfi_sections	.debug_frame
  50              		.global	dmx_state
  51              		.section	.bss.dmx_state,"aw",%nobits
  52              		.type	dmx_state, %object
  53              		.size	dmx_state, 1
  54              	dmx_state:
  55 0000 00       		.space	1
  56              		.section	.text.DMX_Ena,"ax",%progbits
  57              		.align	2
ARM GAS  C:\Users\Mariano\AppData\Local\Temp\ccZCsQIT.s 			page 2


  58              		.global	DMX_Ena
  59              		.code	16
  60              		.thumb_func
  61              		.type	DMX_Ena, %function
  62              	DMX_Ena:
  63              	.LFB20:
  64              		.file 1 ".\\src\\dmx_transceiver.c"
   1:.\src/dmx_transceiver.c **** /*
   2:.\src/dmx_transceiver.c ****  * dmx_transceiver.c
   3:.\src/dmx_transceiver.c ****  *
   4:.\src/dmx_transceiver.c ****  *  Created on: 09/02/2016
   5:.\src/dmx_transceiver.c ****  *      Author: Mariano
   6:.\src/dmx_transceiver.c ****  */
   7:.\src/dmx_transceiver.c **** #include "dmx_transceiver.h"
   8:.\src/dmx_transceiver.c **** #include "hard.h"
   9:.\src/dmx_transceiver.c **** #include "stm32f0xx.h"
  10:.\src/dmx_transceiver.c **** #include "stm32f0x_tim.h"
  11:.\src/dmx_transceiver.c **** #include "stm32f0x_uart.h"
  12:.\src/dmx_transceiver.c **** #include "stm32f0x_gpio.h"
  13:.\src/dmx_transceiver.c **** 
  14:.\src/dmx_transceiver.c **** 
  15:.\src/dmx_transceiver.c **** 
  16:.\src/dmx_transceiver.c **** //--- VARIABLES GLOBALES ---//
  17:.\src/dmx_transceiver.c **** volatile unsigned char dmx_state = 0;
  18:.\src/dmx_transceiver.c **** 
  19:.\src/dmx_transceiver.c **** 
  20:.\src/dmx_transceiver.c **** //--- FUNCIONES DEL MODULO ---//
  21:.\src/dmx_transceiver.c **** void DMX_Ena(void)
  22:.\src/dmx_transceiver.c **** {
  65              		.loc 1 22 0
  66              		.cfi_startproc
  67 0000 08B5     		push	{r3, lr}	@
  68              	.LCFI0:
  69              		.cfi_def_cfa_offset 8
  70              		.cfi_offset 3, -8
  71              		.cfi_offset 14, -4
  23:.\src/dmx_transceiver.c **** 	//habilito la interrupción
  24:.\src/dmx_transceiver.c **** 	EXTIOn ();
  72              		.loc 1 24 0
  73 0002 FFF7FEFF 		bl	EXTIOn	@
  25:.\src/dmx_transceiver.c **** 	USART1->CR1 |= USART_CR1_UE;
  74              		.loc 1 25 0
  75 0006 034B     		ldr	r3, .L2	@ D.4684,
  76 0008 024A     		ldr	r2, .L2	@ D.4685,
  77 000a 1268     		ldr	r2, [r2]	@ D.4686, D.4685_2->CR1
  78 000c 0121     		mov	r1, #1	@ tmp138,
  79 000e 0A43     		orr	r2, r1	@ D.4687, tmp138
  80 0010 1A60     		str	r2, [r3]	@ D.4687, D.4684_1->CR1
  26:.\src/dmx_transceiver.c **** }
  81              		.loc 1 26 0
  82              		@ sp needed for prologue	@
  83 0012 08BD     		pop	{r3, pc}
  84              	.L3:
  85              		.align	2
  86              	.L2:
  87 0014 00380140 		.word	1073821696
  88              		.cfi_endproc
ARM GAS  C:\Users\Mariano\AppData\Local\Temp\ccZCsQIT.s 			page 3


  89              	.LFE20:
  90              		.size	DMX_Ena, .-DMX_Ena
  91              		.section	.text.DMX_Disa,"ax",%progbits
  92              		.align	2
  93              		.global	DMX_Disa
  94              		.code	16
  95              		.thumb_func
  96              		.type	DMX_Disa, %function
  97              	DMX_Disa:
  98              	.LFB21:
  27:.\src/dmx_transceiver.c **** 
  28:.\src/dmx_transceiver.c **** void DMX_Disa(void)
  29:.\src/dmx_transceiver.c **** {
  99              		.loc 1 29 0
 100              		.cfi_startproc
 101 0000 08B5     		push	{r3, lr}	@
 102              	.LCFI1:
 103              		.cfi_def_cfa_offset 8
 104              		.cfi_offset 3, -8
 105              		.cfi_offset 14, -4
  30:.\src/dmx_transceiver.c **** 	//deshabilito la interrupción
  31:.\src/dmx_transceiver.c **** 	EXTIOff ();
 106              		.loc 1 31 0
 107 0002 FFF7FEFF 		bl	EXTIOff	@
  32:.\src/dmx_transceiver.c **** 	USART1->CR1 &= ~USART_CR1_UE;
 108              		.loc 1 32 0
 109 0006 034B     		ldr	r3, .L5	@ D.4680,
 110 0008 024A     		ldr	r2, .L5	@ D.4681,
 111 000a 1268     		ldr	r2, [r2]	@ D.4682, D.4681_2->CR1
 112 000c 0121     		mov	r1, #1	@ tmp138,
 113 000e 8A43     		bic	r2, r1	@ D.4683, tmp138
 114 0010 1A60     		str	r2, [r3]	@ D.4683, D.4680_1->CR1
  33:.\src/dmx_transceiver.c **** }
 115              		.loc 1 33 0
 116              		@ sp needed for prologue	@
 117 0012 08BD     		pop	{r3, pc}
 118              	.L6:
 119              		.align	2
 120              	.L5:
 121 0014 00380140 		.word	1073821696
 122              		.cfi_endproc
 123              	.LFE21:
 124              		.size	DMX_Disa, .-DMX_Disa
 125              		.section	.text.SendDMXPacket,"ax",%progbits
 126              		.align	2
 127              		.global	SendDMXPacket
 128              		.code	16
 129              		.thumb_func
 130              		.type	SendDMXPacket, %function
 131              	SendDMXPacket:
 132              	.LFB22:
  34:.\src/dmx_transceiver.c **** 
  35:.\src/dmx_transceiver.c **** 
  36:.\src/dmx_transceiver.c **** void SendDMXPacket (unsigned char new_func)
  37:.\src/dmx_transceiver.c **** {
 133              		.loc 1 37 0
 134              		.cfi_startproc
ARM GAS  C:\Users\Mariano\AppData\Local\Temp\ccZCsQIT.s 			page 4


 135 0000 00B5     		push	{lr}	@
 136              	.LCFI2:
 137              		.cfi_def_cfa_offset 4
 138              		.cfi_offset 14, -4
 139 0002 83B0     		sub	sp, sp, #12	@,,
 140              	.LCFI3:
 141              		.cfi_def_cfa_offset 16
 142 0004 021C     		mov	r2, r0	@ tmp151, new_func
 143 0006 6B46     		mov	r3, sp	@ tmp152,
 144 0008 0733     		add	r3, r3, #7	@ tmp152,
 145 000a 1A70     		strb	r2, [r3]	@ tmp153, new_func
  38:.\src/dmx_transceiver.c **** 	if ((new_func == PCKT_INIT) &&
 146              		.loc 1 38 0
 147 000c 6B46     		mov	r3, sp	@ tmp154,
 148 000e 0733     		add	r3, r3, #7	@ tmp154,
 149 0010 1B78     		ldrb	r3, [r3]	@ tmp155, new_func
 150 0012 002B     		cmp	r3, #0	@ tmp155,
 151 0014 0DD1     		bne	.L8	@,
  39:.\src/dmx_transceiver.c **** 			((dmx_state == PCKT_INIT) || (dmx_state == PCKT_END_TX)))
 152              		.loc 1 39 0 discriminator 1
 153 0016 324B     		ldr	r3, .L21	@ tmp156,
 154 0018 1B78     		ldrb	r3, [r3]	@ tmp157, dmx_state
 155 001a DBB2     		uxtb	r3, r3	@ dmx_state.0, tmp157
  38:.\src/dmx_transceiver.c **** 	if ((new_func == PCKT_INIT) &&
 156              		.loc 1 38 0 discriminator 1
 157 001c 002B     		cmp	r3, #0	@ dmx_state.0,
 158 001e 04D0     		beq	.L9	@,
 159              		.loc 1 39 0
 160 0020 2F4B     		ldr	r3, .L21	@ tmp158,
 161 0022 1B78     		ldrb	r3, [r3]	@ tmp159, dmx_state
 162 0024 DBB2     		uxtb	r3, r3	@ dmx_state.1, tmp159
 163 0026 042B     		cmp	r3, #4	@ dmx_state.1,
 164 0028 03D1     		bne	.L8	@,
 165              	.L9:
  40:.\src/dmx_transceiver.c **** 	{
  41:.\src/dmx_transceiver.c **** 		//empiezo la maquina de estados
  42:.\src/dmx_transceiver.c **** 		dmx_state = PCKT_INIT;
 166              		.loc 1 42 0
 167 002a 2D4B     		ldr	r3, .L21	@ tmp160,
 168 002c 0022     		mov	r2, #0	@ tmp161,
 169 002e 1A70     		strb	r2, [r3]	@ tmp162, dmx_state
 170 0030 04E0     		b	.L10	@
 171              	.L8:
  43:.\src/dmx_transceiver.c **** 	}
  44:.\src/dmx_transceiver.c **** 	else if (new_func != PCKT_UPDATE)	//update de la maquina de estados
 172              		.loc 1 44 0
 173 0032 6B46     		mov	r3, sp	@ tmp163,
 174 0034 0733     		add	r3, r3, #7	@ tmp163,
 175 0036 1B78     		ldrb	r3, [r3]	@ tmp164, new_func
 176 0038 0A2B     		cmp	r3, #10	@ tmp164,
 177 003a 4BD1     		bne	.L19	@,
 178              	.L10:
  45:.\src/dmx_transceiver.c **** 		return;
  46:.\src/dmx_transceiver.c **** 
  47:.\src/dmx_transceiver.c **** 	switch (dmx_state)
 179              		.loc 1 47 0
 180 003c 284B     		ldr	r3, .L21	@ tmp165,
ARM GAS  C:\Users\Mariano\AppData\Local\Temp\ccZCsQIT.s 			page 5


 181 003e 1B78     		ldrb	r3, [r3]	@ tmp166, dmx_state
 182 0040 DBB2     		uxtb	r3, r3	@ dmx_state.2, tmp166
 183 0042 042B     		cmp	r3, #4	@ D.4665,
 184 0044 3ED8     		bhi	.L12	@,
 185 0046 9A00     		lsl	r2, r3, #2	@ tmp167, D.4665,
 186 0048 264B     		ldr	r3, .L21+4	@ tmp169,
 187 004a D318     		add	r3, r2, r3	@ tmp168, tmp167, tmp169
 188 004c 1B68     		ldr	r3, [r3]	@ tmp170,
 189 004e 9F46     		mov	pc, r3	@ tmp170
 190              		.section	.rodata.SendDMXPacket,"a",%progbits
 191              		.align	2
 192              	.L18:
 193 0000 50000000 		.word	.L13
 194 0004 7E000000 		.word	.L14
 195 0008 9A000000 		.word	.L15
 196 000c AE000000 		.word	.L16
 197 0010 D8000000 		.word	.L20
 198              		.section	.text.SendDMXPacket
 199              	.L13:
  48:.\src/dmx_transceiver.c **** 	{
  49:.\src/dmx_transceiver.c **** 		case PCKT_INIT:
  50:.\src/dmx_transceiver.c **** 			SW_TX;
 200              		.loc 1 50 0
 201 0050 9023     		mov	r3, #144	@ tmp200,
 202 0052 DB05     		lsl	r3, r3, #23	@ D.4666, tmp200,
 203 0054 8022     		mov	r2, #128	@ tmp201,
 204 0056 5201     		lsl	r2, r2, #5	@ tmp171, tmp201,
 205 0058 9A61     		str	r2, [r3, #24]	@ tmp171, D.4666_6->BSRR
  51:.\src/dmx_transceiver.c **** 			LED_ON;
 206              		.loc 1 51 0
 207 005a 234B     		ldr	r3, .L21+8	@ D.4667,
 208 005c 8022     		mov	r2, #128	@ tmp172,
 209 005e 9A61     		str	r2, [r3, #24]	@ tmp172, D.4667_7->BSRR
  52:.\src/dmx_transceiver.c **** 			dmx_state++;
 210              		.loc 1 52 0
 211 0060 1F4B     		ldr	r3, .L21	@ tmp173,
 212 0062 1B78     		ldrb	r3, [r3]	@ tmp174, dmx_state
 213 0064 DBB2     		uxtb	r3, r3	@ dmx_state.3, tmp174
 214 0066 0133     		add	r3, r3, #1	@ tmp175,
 215 0068 DAB2     		uxtb	r2, r3	@ dmx_state.4, tmp175
 216 006a 1D4B     		ldr	r3, .L21	@ tmp176,
 217 006c 1A70     		strb	r2, [r3]	@ tmp177, dmx_state
  53:.\src/dmx_transceiver.c **** 			DMX_TX_PIN_ON;	//mando break
 218              		.loc 1 53 0
 219 006e 1E4B     		ldr	r3, .L21+8	@ D.4670,
 220 0070 8022     		mov	r2, #128	@ tmp202,
 221 0072 D203     		lsl	r2, r2, #15	@ tmp178, tmp202,
 222 0074 9A61     		str	r2, [r3, #24]	@ tmp178, D.4670_10->BSRR
  54:.\src/dmx_transceiver.c **** 			OneShootTIM16(88);
 223              		.loc 1 54 0
 224 0076 5820     		mov	r0, #88	@,
 225 0078 FFF7FEFF 		bl	OneShootTIM16	@
  55:.\src/dmx_transceiver.c **** 			break;
 226              		.loc 1 55 0
 227 007c 2DE0     		b	.L7	@
 228              	.L14:
  56:.\src/dmx_transceiver.c **** 
ARM GAS  C:\Users\Mariano\AppData\Local\Temp\ccZCsQIT.s 			page 6


  57:.\src/dmx_transceiver.c **** 		case PCKT_END_BREAK:
  58:.\src/dmx_transceiver.c **** 			dmx_state++;
 229              		.loc 1 58 0
 230 007e 184B     		ldr	r3, .L21	@ tmp179,
 231 0080 1B78     		ldrb	r3, [r3]	@ tmp180, dmx_state
 232 0082 DBB2     		uxtb	r3, r3	@ dmx_state.5, tmp180
 233 0084 0133     		add	r3, r3, #1	@ tmp181,
 234 0086 DAB2     		uxtb	r2, r3	@ dmx_state.6, tmp181
 235 0088 154B     		ldr	r3, .L21	@ tmp182,
 236 008a 1A70     		strb	r2, [r3]	@ tmp183, dmx_state
  59:.\src/dmx_transceiver.c **** 			DMX_TX_PIN_OFF;	//espero mark after break
 237              		.loc 1 59 0
 238 008c 164B     		ldr	r3, .L21+8	@ D.4673,
 239 008e 4022     		mov	r2, #64	@ tmp184,
 240 0090 9A61     		str	r2, [r3, #24]	@ tmp184, D.4673_13->BSRR
  60:.\src/dmx_transceiver.c **** 			OneShootTIM16(8);
 241              		.loc 1 60 0
 242 0092 0820     		mov	r0, #8	@,
 243 0094 FFF7FEFF 		bl	OneShootTIM16	@
  61:.\src/dmx_transceiver.c **** 			break;
 244              		.loc 1 61 0
 245 0098 1FE0     		b	.L7	@
 246              	.L15:
  62:.\src/dmx_transceiver.c **** 
  63:.\src/dmx_transceiver.c **** 		case PCKT_END_MARK:
  64:.\src/dmx_transceiver.c **** 			dmx_state++;
 247              		.loc 1 64 0
 248 009a 114B     		ldr	r3, .L21	@ tmp185,
 249 009c 1B78     		ldrb	r3, [r3]	@ tmp186, dmx_state
 250 009e DBB2     		uxtb	r3, r3	@ dmx_state.7, tmp186
 251 00a0 0133     		add	r3, r3, #1	@ tmp187,
 252 00a2 DAB2     		uxtb	r2, r3	@ dmx_state.8, tmp187
 253 00a4 0E4B     		ldr	r3, .L21	@ tmp188,
 254 00a6 1A70     		strb	r2, [r3]	@ tmp189, dmx_state
  65:.\src/dmx_transceiver.c **** 			UsartSendDMX();
 255              		.loc 1 65 0
 256 00a8 FFF7FEFF 		bl	UsartSendDMX	@
  66:.\src/dmx_transceiver.c **** 			break;
 257              		.loc 1 66 0
 258 00ac 15E0     		b	.L7	@
 259              	.L16:
  67:.\src/dmx_transceiver.c **** 
  68:.\src/dmx_transceiver.c **** 		case PCKT_TRANSMITING:	//se deben haber transmitido el start code + los 512 canales
  69:.\src/dmx_transceiver.c **** 			dmx_state = PCKT_END_TX;	//se a llama al terminar de transmitir con la USART con UPDATE
 260              		.loc 1 69 0
 261 00ae 0C4B     		ldr	r3, .L21	@ tmp190,
 262 00b0 0422     		mov	r2, #4	@ tmp191,
 263 00b2 1A70     		strb	r2, [r3]	@ tmp192, dmx_state
  70:.\src/dmx_transceiver.c **** 			DMX_TX_PIN_OFF;
 264              		.loc 1 70 0
 265 00b4 0C4B     		ldr	r3, .L21+8	@ D.4676,
 266 00b6 4022     		mov	r2, #64	@ tmp193,
 267 00b8 9A61     		str	r2, [r3, #24]	@ tmp193, D.4676_16->BSRR
  71:.\src/dmx_transceiver.c **** 			LED_OFF;
 268              		.loc 1 71 0
 269 00ba 0B4B     		ldr	r3, .L21+8	@ D.4677,
 270 00bc 8022     		mov	r2, #128	@ tmp199,
ARM GAS  C:\Users\Mariano\AppData\Local\Temp\ccZCsQIT.s 			page 7


 271 00be 1204     		lsl	r2, r2, #16	@ tmp194, tmp199,
 272 00c0 9A61     		str	r2, [r3, #24]	@ tmp194, D.4677_17->BSRR
  72:.\src/dmx_transceiver.c **** 			break;
 273              		.loc 1 72 0
 274 00c2 0AE0     		b	.L7	@
 275              	.L12:
  73:.\src/dmx_transceiver.c **** 
  74:.\src/dmx_transceiver.c **** 		case PCKT_END_TX:	//estado de espera luego de transmitir
  75:.\src/dmx_transceiver.c **** 			break;
  76:.\src/dmx_transceiver.c **** 
  77:.\src/dmx_transceiver.c **** 		default:
  78:.\src/dmx_transceiver.c **** 			dmx_state = PCKT_END_TX;
 276              		.loc 1 78 0
 277 00c4 064B     		ldr	r3, .L21	@ tmp195,
 278 00c6 0422     		mov	r2, #4	@ tmp196,
 279 00c8 1A70     		strb	r2, [r3]	@ tmp197, dmx_state
  79:.\src/dmx_transceiver.c **** 			DMX_TX_PIN_OFF;
 280              		.loc 1 79 0
 281 00ca 074B     		ldr	r3, .L21+8	@ D.4678,
 282 00cc 4022     		mov	r2, #64	@ tmp198,
 283 00ce 9A61     		str	r2, [r3, #24]	@ tmp198, D.4678_18->BSRR
  80:.\src/dmx_transceiver.c **** 			break;
 284              		.loc 1 80 0
 285 00d0 C046     		mov	r8, r8
 286 00d2 02E0     		b	.L7	@
 287              	.L19:
  45:.\src/dmx_transceiver.c **** 		return;
 288              		.loc 1 45 0
 289 00d4 C046     		mov	r8, r8
 290 00d6 00E0     		b	.L7	@
 291              	.L20:
  75:.\src/dmx_transceiver.c **** 			break;
 292              		.loc 1 75 0
 293 00d8 C046     		mov	r8, r8
 294              	.L7:
  81:.\src/dmx_transceiver.c **** 	}
  82:.\src/dmx_transceiver.c **** }
 295              		.loc 1 82 0
 296 00da 03B0     		add	sp, sp, #12	@,,
 297              		@ sp needed for prologue	@
 298 00dc 00BD     		pop	{pc}
 299              	.L22:
 300 00de C046     		.align	2
 301              	.L21:
 302 00e0 00000000 		.word	dmx_state
 303 00e4 00000000 		.word	.L18
 304 00e8 00040048 		.word	1207960576
 305              		.cfi_endproc
 306              	.LFE22:
 307              		.size	SendDMXPacket, .-SendDMXPacket
 308              		.text
 309              	.Letext0:
 310              		.file 2 "c:\\program files (x86)\\gnu tools arm embedded\\4.7 2013q2\\bin\\../lib/gcc/arm-none-eab
 311              		.file 3 ".\\cmsis_boot/stm32f0xx.h"