ARM GAS  C:\Users\Mariano\AppData\Local\Temp\cc5SrqNx.s 			page 1


   1              		.cpu cortex-m0
   2              		.fpu softvfp
   3              		.eabi_attribute 20, 1	@ Tag_ABI_FP_denormal
   4              		.eabi_attribute 21, 1	@ Tag_ABI_FP_exceptions
   5              		.eabi_attribute 23, 3	@ Tag_ABI_FP_number_model
   6              		.eabi_attribute 24, 1	@ Tag_ABI_align8_needed
   7              		.eabi_attribute 25, 1	@ Tag_ABI_align8_preserved
   8              		.eabi_attribute 26, 1	@ Tag_ABI_enum_size
   9              		.eabi_attribute 30, 6	@ Tag_ABI_optimization_goals
  10              		.eabi_attribute 34, 0	@ Tag_CPU_unaligned_access
  11              		.eabi_attribute 18, 4	@ Tag_ABI_PCS_wchar_t
  12              		.file	"flash_program.c"
  13              	@ GNU C (GNU Tools for ARM Embedded Processors) version 4.7.4 20130613 (release) [ARM/embedded-4_7-
  14              	@	compiled by GNU C version 4.2.1-sjlj (mingw32-2), GMP version 4.3.2, MPFR version 2.4.2, MPC vers
  15              	@ GGC heuristics: --param ggc-min-expand=100 --param ggc-min-heapsize=131072
  16              	@ options passed:  -I . -I .\src -I .\cmsis_boot -I .\cmsis_core
  17              	@ -I ..\STM32F0xx_StdPeriph_Lib_V1.3.1\Libraries\STM32F0xx_StdPeriph_Driver\inc
  18              	@ -I .\inc -I .\cmsis_boot -imultilib armv6-m
  19              	@ -iprefix c:\program files (x86)\gnu tools arm embedded\4.7 2013q2\bin\../lib/gcc/arm-none-eabi/4.
  20              	@ -isysroot c:\program files (x86)\gnu tools arm embedded\4.7 2013q2\bin\../arm-none-eabi
  21              	@ -MD .\src\flash_program.d -MF .dep\flash_program.o.d -MP
  22              	@ -MQ .\src\flash_program.o -D__USES_INITFINI__ -D RUN_FROM_FLASH=1
  23              	@ .\src\flash_program.c -mcpu=cortex-m0 -mthumb
  24              	@ -auxbase-strip .\src\flash_program.o -g -gdwarf-2 -O0 -Wall
  25              	@ -fomit-frame-pointer -fdata-sections -ffunction-sections -fverbose-asm
  26              	@ options enabled:  -fauto-inc-dec -fbranch-count-reg -fcommon
  27              	@ -fdata-sections -fdebug-types-section -fdelete-null-pointer-checks
  28              	@ -fdwarf2-cfi-asm -fearly-inlining -feliminate-unused-debug-types
  29              	@ -ffunction-cse -ffunction-sections -fgcse-lm -fgnu-runtime -fident
  30              	@ -finline-atomics -fira-hoist-pressure -fira-share-save-slots
  31              	@ -fira-share-spill-slots -fivopts -fkeep-static-consts
  32              	@ -fleading-underscore -fmath-errno -fmerge-debug-strings
  33              	@ -fmove-loop-invariants -fomit-frame-pointer -fpeephole
  34              	@ -fprefetch-loop-arrays -freg-struct-return
  35              	@ -fsched-critical-path-heuristic -fsched-dep-count-heuristic
  36              	@ -fsched-group-heuristic -fsched-interblock -fsched-last-insn-heuristic
  37              	@ -fsched-rank-heuristic -fsched-spec -fsched-spec-insn-heuristic
  38              	@ -fsched-stalled-insns-dep -fshow-column -fsigned-zeros
  39              	@ -fsplit-ivs-in-unroller -fstrict-volatile-bitfields -ftrapping-math
  40              	@ -ftree-cselim -ftree-forwprop -ftree-loop-if-convert -ftree-loop-im
  41              	@ -ftree-loop-ivcanon -ftree-loop-optimize -ftree-parallelize-loops=
  42              	@ -ftree-phiprop -ftree-pta -ftree-reassoc -ftree-scev-cprop
  43              	@ -ftree-slp-vectorize -ftree-vect-loop-version -funit-at-a-time
  44              	@ -fverbose-asm -fzero-initialized-in-bss -mlittle-endian -msched-prolog
  45              	@ -mthumb -mvectorize-with-neon-quad
  46              	
  47              		.text
  48              	.Ltext0:
  49              		.cfi_sections	.debug_frame
  50              		.global	pmem
  51              		.section	.data.pmem,"aw",%progbits
  52              		.align	2
  53              		.type	pmem, %object
  54              		.size	pmem, 4
  55              	pmem:
  56 0000 00700008 		.word	134246400
  57              		.section	.text.ReadMem,"ax",%progbits
ARM GAS  C:\Users\Mariano\AppData\Local\Temp\cc5SrqNx.s 			page 2


  58              		.align	2
  59              		.global	ReadMem
  60              		.code	16
  61              		.thumb_func
  62              		.type	ReadMem, %function
  63              	ReadMem:
  64              	.LFB20:
  65              		.file 1 ".\\src\\flash_program.c"
   1:.\src/flash_program.c **** /**
   2:.\src/flash_program.c ****   *****************************************************************************
   3:.\src/flash_program.c ****   * @title   FLASH_Program.c
   4:.\src/flash_program.c ****   * @author  CooCox
   5:.\src/flash_program.c ****   * @date    31 Oct 2012
   6:.\src/flash_program.c ****   * @brief   This example provides a description of how to program the STM32F
   7:.\src/flash_program.c ****   *          10x FLASH.
   8:.\src/flash_program.c ****   *          the result of the programming operation is stored in
   9:.\src/flash_program.c ****   *          to the MemoryProgramStatus variable.
  10:.\src/flash_program.c ****   *          Four LEDs are toggled if t
  11:.\src/flash_program.c ****   *          he flash program has been down.
  12:.\src/flash_program.c ****   *          This example has been tested on
  13:.\src/flash_program.c ****   *           KEIL MCBSTM32 board, STM32F103RBT6 device.
  14:.\src/flash_program.c ****   *******************************************************************************
  15:.\src/flash_program.c ****   */
  16:.\src/flash_program.c **** ////// The above comment is automatically generated by CoIDE ///////////////////
  17:.\src/flash_program.c **** 
  18:.\src/flash_program.c **** 
  19:.\src/flash_program.c **** #include "flash_program.h"
  20:.\src/flash_program.c **** #include "stm32f0xx_flash.h"
  21:.\src/flash_program.c **** 
  22:.\src/flash_program.c **** 
  23:.\src/flash_program.c **** 
  24:.\src/flash_program.c **** /* Externals variables ---------------------------------------------------------*/
  25:.\src/flash_program.c **** #ifdef CONFIGURATION_IN_FLASH
  26:.\src/flash_program.c **** extern unsigned char b1t;
  27:.\src/flash_program.c **** extern unsigned char b1r;
  28:.\src/flash_program.c **** extern unsigned char b2t;
  29:.\src/flash_program.c **** extern unsigned char b2r;
  30:.\src/flash_program.c **** extern unsigned char b3t;
  31:.\src/flash_program.c **** extern unsigned char b3r;
  32:.\src/flash_program.c **** extern unsigned char b4t;
  33:.\src/flash_program.c **** extern unsigned char b4r;
  34:.\src/flash_program.c **** 
  35:.\src/flash_program.c **** extern parameters_typedef param_struct;
  36:.\src/flash_program.c **** #endif
  37:.\src/flash_program.c **** 
  38:.\src/flash_program.c **** #ifdef CONFIGURATION_IN_SST
  39:.\src/flash_program.c **** extern parameters_typedef param_struct;
  40:.\src/flash_program.c **** #endif
  41:.\src/flash_program.c **** 
  42:.\src/flash_program.c **** /* Private typedef -----------------------------------------------------------*/
  43:.\src/flash_program.c **** 
  44:.\src/flash_program.c **** 
  45:.\src/flash_program.c **** /* Private define ------------------------------------------------------------*/
  46:.\src/flash_program.c **** 
  47:.\src/flash_program.c **** 
  48:.\src/flash_program.c **** extern parameters_typedef param_struct;
  49:.\src/flash_program.c **** extern mem_bkp_typedef memory_backup;
ARM GAS  C:\Users\Mariano\AppData\Local\Temp\cc5SrqNx.s 			page 3


  50:.\src/flash_program.c **** extern filesystem_typedef files;
  51:.\src/flash_program.c **** //extern unsigned int v_bkp [];
  52:.\src/flash_program.c **** 
  53:.\src/flash_program.c **** /* Private macro -------------------------------------------------------------*/
  54:.\src/flash_program.c **** /* Private variables ---------------------------------------------------------*/
  55:.\src/flash_program.c **** 
  56:.\src/flash_program.c **** //const int vmem [1024] ;
  57:.\src/flash_program.c **** unsigned int * pmem = (unsigned int *)0x08007000;	//Sector 7 Page 28
  58:.\src/flash_program.c **** 
  59:.\src/flash_program.c **** 
  60:.\src/flash_program.c **** /* Private function prototypes -----------------------------------------------*/
  61:.\src/flash_program.c **** /* Private functions ---------------------------------------------------------*/
  62:.\src/flash_program.c **** unsigned char ReadMem (void)
  63:.\src/flash_program.c **** {
  66              		.loc 1 63 0
  67              		.cfi_startproc
  64:.\src/flash_program.c **** 	if (*pmem == 0xffffffff)
  68              		.loc 1 64 0
  69 0000 044B     		ldr	r3, .L4	@ tmp138,
  70 0002 1B68     		ldr	r3, [r3]	@ pmem.0, pmem
  71 0004 1B68     		ldr	r3, [r3]	@ D.4919, *pmem.0_2
  72 0006 0133     		add	r3, r3, #1	@, D.4919,
  73 0008 01D1     		bne	.L2	@,
  65:.\src/flash_program.c **** 		return 1;
  74              		.loc 1 65 0
  75 000a 0123     		mov	r3, #1	@ D.4922,
  76 000c 00E0     		b	.L3	@
  77              	.L2:
  66:.\src/flash_program.c **** 	else
  67:.\src/flash_program.c **** 		return 0;
  78              		.loc 1 67 0
  79 000e 0023     		mov	r3, #0	@ D.4922,
  80              	.L3:
  68:.\src/flash_program.c **** }
  81              		.loc 1 68 0
  82 0010 181C     		mov	r0, r3	@, <retval>
  83              		@ sp needed for prologue	@
  84 0012 7047     		bx	lr
  85              	.L5:
  86              		.align	2
  87              	.L4:
  88 0014 00000000 		.word	pmem
  89              		.cfi_endproc
  90              	.LFE20:
  91              		.size	ReadMem, .-ReadMem
  92              		.section	.text.EraseAllMemory_FLASH,"ax",%progbits
  93              		.align	2
  94              		.global	EraseAllMemory_FLASH
  95              		.code	16
  96              		.thumb_func
  97              		.type	EraseAllMemory_FLASH, %function
  98              	EraseAllMemory_FLASH:
  99              	.LFB21:
  69:.\src/flash_program.c **** 
  70:.\src/flash_program.c **** unsigned char EraseAllMemory_FLASH(void)
  71:.\src/flash_program.c **** {
 100              		.loc 1 71 0
ARM GAS  C:\Users\Mariano\AppData\Local\Temp\cc5SrqNx.s 			page 4


 101              		.cfi_startproc
 102 0000 00B5     		push	{lr}	@
 103              	.LCFI0:
 104              		.cfi_def_cfa_offset 4
 105              		.cfi_offset 14, -4
 106 0002 83B0     		sub	sp, sp, #12	@,,
 107              	.LCFI1:
 108              		.cfi_def_cfa_offset 16
  72:.\src/flash_program.c **** 	unsigned char resp = 0;
 109              		.loc 1 72 0
 110 0004 6B46     		mov	r3, sp	@ tmp138,
 111 0006 0733     		add	r3, r3, #7	@ tmp138,
 112 0008 0022     		mov	r2, #0	@ tmp139,
 113 000a 1A70     		strb	r2, [r3]	@ tmp140, resp
  73:.\src/flash_program.c **** 
  74:.\src/flash_program.c **** 	ErasePage(PAGE31,1);
 114              		.loc 1 74 0
 115 000c 0D4B     		ldr	r3, .L10	@ tmp141,
 116 000e 181C     		mov	r0, r3	@, tmp141
 117 0010 0121     		mov	r1, #1	@,
 118 0012 FFF7FEFF 		bl	ErasePage	@
  75:.\src/flash_program.c **** 	//reviso si borre
  76:.\src/flash_program.c **** 
  77:.\src/flash_program.c **** 	if (*(unsigned int *) PAGE31 == 0xFFFFFFFF)
 119              		.loc 1 77 0
 120 0016 0B4B     		ldr	r3, .L10	@ D.4910,
 121 0018 1B68     		ldr	r3, [r3]	@ D.4911, *D.4910_4
 122 001a 0133     		add	r3, r3, #1	@, D.4911,
 123 001c 06D1     		bne	.L7	@,
  78:.\src/flash_program.c **** 		resp++;
 124              		.loc 1 78 0
 125 001e 6B46     		mov	r3, sp	@ tmp142,
 126 0020 0733     		add	r3, r3, #7	@ tmp142,
 127 0022 6A46     		mov	r2, sp	@ tmp143,
 128 0024 0732     		add	r2, r2, #7	@ tmp143,
 129 0026 1278     		ldrb	r2, [r2]	@ tmp144, resp
 130 0028 0132     		add	r2, r2, #1	@ tmp145,
 131 002a 1A70     		strb	r2, [r3]	@ tmp146, resp
 132              	.L7:
  79:.\src/flash_program.c **** 
  80:.\src/flash_program.c **** 	if (resp)
 133              		.loc 1 80 0
 134 002c 6B46     		mov	r3, sp	@ tmp147,
 135 002e 0733     		add	r3, r3, #7	@ tmp147,
 136 0030 1B78     		ldrb	r3, [r3]	@ tmp148, resp
 137 0032 002B     		cmp	r3, #0	@ tmp148,
 138 0034 01D0     		beq	.L8	@,
  81:.\src/flash_program.c **** 		return PASSED;
 139              		.loc 1 81 0
 140 0036 0123     		mov	r3, #1	@ D.4916,
 141 0038 00E0     		b	.L9	@
 142              	.L8:
  82:.\src/flash_program.c **** 	else
  83:.\src/flash_program.c **** 		return FAILED;
 143              		.loc 1 83 0
 144 003a 0023     		mov	r3, #0	@ D.4916,
 145              	.L9:
ARM GAS  C:\Users\Mariano\AppData\Local\Temp\cc5SrqNx.s 			page 5


  84:.\src/flash_program.c **** }
 146              		.loc 1 84 0
 147 003c 181C     		mov	r0, r3	@, <retval>
 148 003e 03B0     		add	sp, sp, #12	@,,
 149              		@ sp needed for prologue	@
 150 0040 00BD     		pop	{pc}
 151              	.L11:
 152 0042 C046     		.align	2
 153              	.L10:
 154 0044 007C0008 		.word	134249472
 155              		.cfi_endproc
 156              	.LFE21:
 157              		.size	EraseAllMemory_FLASH, .-EraseAllMemory_FLASH
 158              		.section	.text.Write_Code_To_Memory_FLASH,"ax",%progbits
 159              		.align	2
 160              		.global	Write_Code_To_Memory_FLASH
 161              		.code	16
 162              		.thumb_func
 163              		.type	Write_Code_To_Memory_FLASH, %function
 164              	Write_Code_To_Memory_FLASH:
 165              	.LFB22:
  85:.\src/flash_program.c **** 
  86:.\src/flash_program.c **** /*
  87:.\src/flash_program.c **** unsigned short Look_Code_In_Memory(unsigned int code_to_look_for)
  88:.\src/flash_program.c **** {
  89:.\src/flash_program.c **** 	unsigned short i;
  90:.\src/flash_program.c **** 
  91:.\src/flash_program.c **** 	for (i = 0; i < FLASH_PAGE_SIZE; i++)
  92:.\src/flash_program.c **** 	{
  93:.\src/flash_program.c **** 		if (*(unsigned int*) (PAGE28_START + i) == code_to_look_for)
  94:.\src/flash_program.c **** 			return i;
  95:.\src/flash_program.c **** 	}
  96:.\src/flash_program.c **** 
  97:.\src/flash_program.c **** 	return 0xFFFF;
  98:.\src/flash_program.c **** }
  99:.\src/flash_program.c **** */
 100:.\src/flash_program.c **** 
 101:.\src/flash_program.c **** unsigned char Write_Code_To_Memory_FLASH(unsigned short position, unsigned int new_code)
 102:.\src/flash_program.c **** {
 166              		.loc 1 102 0
 167              		.cfi_startproc
 168 0000 00B5     		push	{lr}	@
 169              	.LCFI2:
 170              		.cfi_def_cfa_offset 4
 171              		.cfi_offset 14, -4
 172 0002 83B0     		sub	sp, sp, #12	@,,
 173              	.LCFI3:
 174              		.cfi_def_cfa_offset 16
 175 0004 021C     		mov	r2, r0	@ tmp147, position
 176 0006 0091     		str	r1, [sp]	@ new_code, new_code
 177 0008 6B46     		mov	r3, sp	@ tmp148,
 178 000a 0633     		add	r3, r3, #6	@ tmp148,
 179 000c 1A80     		strh	r2, [r3]	@ tmp149, position
 103:.\src/flash_program.c **** 	//check if possition is good
 104:.\src/flash_program.c **** 	if (position > PAGE31_END)
 180              		.loc 1 104 0
 181 000e 6B46     		mov	r3, sp	@ tmp150,
ARM GAS  C:\Users\Mariano\AppData\Local\Temp\cc5SrqNx.s 			page 6


 182 0010 0633     		add	r3, r3, #6	@ tmp150,
 183 0012 1A88     		ldrh	r2, [r3]	@ tmp151, position
 184 0014 5D4B     		ldr	r3, .L23	@ tmp152,
 185 0016 9A42     		cmp	r2, r3	@ tmp151, tmp152
 186 0018 01D9     		bls	.L13	@,
 105:.\src/flash_program.c **** 		return FAILED;
 187              		.loc 1 105 0
 188 001a 0023     		mov	r3, #0	@ D.4870,
 189 001c B3E0     		b	.L14	@
 190              	.L13:
 106:.\src/flash_program.c **** 
 107:.\src/flash_program.c **** 	if (position >= PAGE31_START)
 191              		.loc 1 107 0
 192 001e 6B46     		mov	r3, sp	@ tmp153,
 193 0020 0633     		add	r3, r3, #6	@ tmp153,
 194 0022 1A88     		ldrh	r2, [r3]	@ tmp154, position
 195 0024 5A4B     		ldr	r3, .L23+4	@ tmp155,
 196 0026 9A42     		cmp	r2, r3	@ tmp154, tmp155
 197 0028 29D9     		bls	.L15	@,
 108:.\src/flash_program.c **** 	{
 109:.\src/flash_program.c **** 		BackupPage(memory_backup.v_bkp, (unsigned int *) PAGE31);
 198              		.loc 1 109 0
 199 002a 5A4A     		ldr	r2, .L23+8	@ tmp156,
 200 002c 5A4B     		ldr	r3, .L23+12	@ tmp157,
 201 002e 101C     		mov	r0, r2	@, tmp156
 202 0030 191C     		mov	r1, r3	@, tmp157
 203 0032 FFF7FEFF 		bl	BackupPage	@
 110:.\src/flash_program.c **** 		ErasePage(PAGE31,0);
 204              		.loc 1 110 0
 205 0036 584B     		ldr	r3, .L23+12	@ tmp158,
 206 0038 181C     		mov	r0, r3	@, tmp158
 207 003a 0021     		mov	r1, #0	@,
 208 003c FFF7FEFF 		bl	ErasePage	@
 111:.\src/flash_program.c **** 		if (UpdateNewCode(memory_backup.v_bkp, position - PAGE31_START, new_code) == FAILED)
 209              		.loc 1 111 0
 210 0040 6B46     		mov	r3, sp	@ tmp159,
 211 0042 0633     		add	r3, r3, #6	@ tmp159,
 212 0044 1B88     		ldrh	r3, [r3]	@ tmp160, position
 213 0046 554A     		ldr	r2, .L23+16	@,
 214 0048 9B18     		add	r3, r3, r2	@ tmp161, tmp160,
 215 004a 9AB2     		uxth	r2, r3	@ D.4873, tmp161
 216 004c 5149     		ldr	r1, .L23+8	@ tmp162,
 217 004e 009B     		ldr	r3, [sp]	@ tmp163, new_code
 218 0050 081C     		mov	r0, r1	@, tmp162
 219 0052 111C     		mov	r1, r2	@, D.4873
 220 0054 1A1C     		mov	r2, r3	@, tmp163
 221 0056 FFF7FEFF 		bl	UpdateNewCode	@
 222 005a 031C     		mov	r3, r0	@ tmp164,
 223 005c 002B     		cmp	r3, #0	@ D.4874,
 224 005e 01D1     		bne	.L16	@,
 112:.\src/flash_program.c **** 			return FAILED;
 225              		.loc 1 112 0
 226 0060 0023     		mov	r3, #0	@ D.4870,
 227 0062 90E0     		b	.L14	@
 228              	.L16:
 113:.\src/flash_program.c **** 
 114:.\src/flash_program.c **** 		if (WritePage(memory_backup.v_bkp, PAGE31, 1) == FAILED)
ARM GAS  C:\Users\Mariano\AppData\Local\Temp\cc5SrqNx.s 			page 7


 229              		.loc 1 114 0
 230 0064 4B4A     		ldr	r2, .L23+8	@ tmp166,
 231 0066 4C4B     		ldr	r3, .L23+12	@ tmp167,
 232 0068 101C     		mov	r0, r2	@, tmp166
 233 006a 191C     		mov	r1, r3	@, tmp167
 234 006c 0122     		mov	r2, #1	@,
 235 006e FFF7FEFF 		bl	WritePage	@
 236 0072 031C     		mov	r3, r0	@ tmp168,
 237 0074 002B     		cmp	r3, #0	@ D.4877,
 238 0076 00D0     		beq	.LCB161	@
 239 0078 84E0     		b	.L17	@long jump	@
 240              	.LCB161:
 115:.\src/flash_program.c **** 			return FAILED;
 241              		.loc 1 115 0
 242 007a 0023     		mov	r3, #0	@ D.4870,
 243 007c 83E0     		b	.L14	@
 244              	.L15:
 116:.\src/flash_program.c **** 	}
 117:.\src/flash_program.c **** 	else if (position >= PAGE30_START)
 245              		.loc 1 117 0
 246 007e 6B46     		mov	r3, sp	@ tmp170,
 247 0080 0633     		add	r3, r3, #6	@ tmp170,
 248 0082 1A88     		ldrh	r2, [r3]	@ tmp171, position
 249 0084 464B     		ldr	r3, .L23+20	@ tmp172,
 250 0086 9A42     		cmp	r2, r3	@ tmp171, tmp172
 251 0088 28D9     		bls	.L18	@,
 118:.\src/flash_program.c **** 	{
 119:.\src/flash_program.c **** 		BackupPage(memory_backup.v_bkp, (unsigned int *) PAGE30);
 252              		.loc 1 119 0
 253 008a 424A     		ldr	r2, .L23+8	@ tmp173,
 254 008c 454B     		ldr	r3, .L23+24	@ tmp174,
 255 008e 101C     		mov	r0, r2	@, tmp173
 256 0090 191C     		mov	r1, r3	@, tmp174
 257 0092 FFF7FEFF 		bl	BackupPage	@
 120:.\src/flash_program.c **** 		ErasePage(PAGE30,0);
 258              		.loc 1 120 0
 259 0096 434B     		ldr	r3, .L23+24	@ tmp175,
 260 0098 181C     		mov	r0, r3	@, tmp175
 261 009a 0021     		mov	r1, #0	@,
 262 009c FFF7FEFF 		bl	ErasePage	@
 121:.\src/flash_program.c **** 		if (UpdateNewCode(memory_backup.v_bkp, position - PAGE30_START, new_code) == FAILED)
 263              		.loc 1 121 0
 264 00a0 6B46     		mov	r3, sp	@ tmp176,
 265 00a2 0633     		add	r3, r3, #6	@ tmp176,
 266 00a4 1B88     		ldrh	r3, [r3]	@ tmp177, position
 267 00a6 404A     		ldr	r2, .L23+28	@,
 268 00a8 9B18     		add	r3, r3, r2	@ tmp178, tmp177,
 269 00aa 9AB2     		uxth	r2, r3	@ D.4883, tmp178
 270 00ac 3949     		ldr	r1, .L23+8	@ tmp179,
 271 00ae 009B     		ldr	r3, [sp]	@ tmp180, new_code
 272 00b0 081C     		mov	r0, r1	@, tmp179
 273 00b2 111C     		mov	r1, r2	@, D.4883
 274 00b4 1A1C     		mov	r2, r3	@, tmp180
 275 00b6 FFF7FEFF 		bl	UpdateNewCode	@
 276 00ba 031C     		mov	r3, r0	@ tmp181,
 277 00bc 002B     		cmp	r3, #0	@ D.4884,
 278 00be 01D1     		bne	.L19	@,
ARM GAS  C:\Users\Mariano\AppData\Local\Temp\cc5SrqNx.s 			page 8


 122:.\src/flash_program.c **** 			return FAILED;
 279              		.loc 1 122 0
 280 00c0 0023     		mov	r3, #0	@ D.4870,
 281 00c2 60E0     		b	.L14	@
 282              	.L19:
 123:.\src/flash_program.c **** 
 124:.\src/flash_program.c **** 		if (WritePage(memory_backup.v_bkp, PAGE30, 1) == FAILED)
 283              		.loc 1 124 0
 284 00c4 334A     		ldr	r2, .L23+8	@ tmp183,
 285 00c6 374B     		ldr	r3, .L23+24	@ tmp184,
 286 00c8 101C     		mov	r0, r2	@, tmp183
 287 00ca 191C     		mov	r1, r3	@, tmp184
 288 00cc 0122     		mov	r2, #1	@,
 289 00ce FFF7FEFF 		bl	WritePage	@
 290 00d2 031C     		mov	r3, r0	@ tmp185,
 291 00d4 002B     		cmp	r3, #0	@ D.4887,
 292 00d6 55D1     		bne	.L17	@,
 125:.\src/flash_program.c **** 			return FAILED;
 293              		.loc 1 125 0
 294 00d8 0023     		mov	r3, #0	@ D.4870,
 295 00da 54E0     		b	.L14	@
 296              	.L18:
 126:.\src/flash_program.c **** 	}
 127:.\src/flash_program.c **** 	else if (position >= PAGE29_START)
 297              		.loc 1 127 0
 298 00dc 6B46     		mov	r3, sp	@ tmp187,
 299 00de 0633     		add	r3, r3, #6	@ tmp187,
 300 00e0 1B88     		ldrh	r3, [r3]	@ tmp188, position
 301 00e2 FF2B     		cmp	r3, #255	@ tmp188,
 302 00e4 28D9     		bls	.L20	@,
 128:.\src/flash_program.c **** 	{
 129:.\src/flash_program.c **** 		BackupPage(memory_backup.v_bkp, (unsigned int *) PAGE29);
 303              		.loc 1 129 0
 304 00e6 2B4A     		ldr	r2, .L23+8	@ tmp189,
 305 00e8 304B     		ldr	r3, .L23+32	@ tmp190,
 306 00ea 101C     		mov	r0, r2	@, tmp189
 307 00ec 191C     		mov	r1, r3	@, tmp190
 308 00ee FFF7FEFF 		bl	BackupPage	@
 130:.\src/flash_program.c **** 		ErasePage(PAGE29,0);
 309              		.loc 1 130 0
 310 00f2 2E4B     		ldr	r3, .L23+32	@ tmp191,
 311 00f4 181C     		mov	r0, r3	@, tmp191
 312 00f6 0021     		mov	r1, #0	@,
 313 00f8 FFF7FEFF 		bl	ErasePage	@
 131:.\src/flash_program.c **** 		if (UpdateNewCode(memory_backup.v_bkp, position - PAGE29_START, new_code) == FAILED)
 314              		.loc 1 131 0
 315 00fc 6B46     		mov	r3, sp	@ tmp192,
 316 00fe 0633     		add	r3, r3, #6	@ tmp192,
 317 0100 1B88     		ldrh	r3, [r3]	@ tmp193, position
 318 0102 013B     		sub	r3, r3, #1	@ tmp194,
 319 0104 FF3B     		sub	r3, r3, #255	@ tmp194,
 320 0106 9AB2     		uxth	r2, r3	@ D.4893, tmp194
 321 0108 2249     		ldr	r1, .L23+8	@ tmp195,
 322 010a 009B     		ldr	r3, [sp]	@ tmp196, new_code
 323 010c 081C     		mov	r0, r1	@, tmp195
 324 010e 111C     		mov	r1, r2	@, D.4893
 325 0110 1A1C     		mov	r2, r3	@, tmp196
ARM GAS  C:\Users\Mariano\AppData\Local\Temp\cc5SrqNx.s 			page 9


 326 0112 FFF7FEFF 		bl	UpdateNewCode	@
 327 0116 031C     		mov	r3, r0	@ tmp197,
 328 0118 002B     		cmp	r3, #0	@ D.4894,
 329 011a 01D1     		bne	.L21	@,
 132:.\src/flash_program.c **** 			return FAILED;
 330              		.loc 1 132 0
 331 011c 0023     		mov	r3, #0	@ D.4870,
 332 011e 32E0     		b	.L14	@
 333              	.L21:
 133:.\src/flash_program.c **** 
 134:.\src/flash_program.c **** 		if (WritePage(memory_backup.v_bkp, PAGE29, 1) == FAILED)
 334              		.loc 1 134 0
 335 0120 1C4A     		ldr	r2, .L23+8	@ tmp199,
 336 0122 224B     		ldr	r3, .L23+32	@ tmp200,
 337 0124 101C     		mov	r0, r2	@, tmp199
 338 0126 191C     		mov	r1, r3	@, tmp200
 339 0128 0122     		mov	r2, #1	@,
 340 012a FFF7FEFF 		bl	WritePage	@
 341 012e 031C     		mov	r3, r0	@ tmp201,
 342 0130 002B     		cmp	r3, #0	@ D.4897,
 343 0132 27D1     		bne	.L17	@,
 135:.\src/flash_program.c **** 			return FAILED;
 344              		.loc 1 135 0
 345 0134 0023     		mov	r3, #0	@ D.4870,
 346 0136 26E0     		b	.L14	@
 347              	.L20:
 136:.\src/flash_program.c **** 	}
 137:.\src/flash_program.c **** 	else if (position >= PAGE28_START)
 138:.\src/flash_program.c **** 	{
 139:.\src/flash_program.c **** 		BackupPage(memory_backup.v_bkp, (unsigned int *) PAGE28);
 348              		.loc 1 139 0
 349 0138 164A     		ldr	r2, .L23+8	@ tmp203,
 350 013a 1D4B     		ldr	r3, .L23+36	@ tmp204,
 351 013c 101C     		mov	r0, r2	@, tmp203
 352 013e 191C     		mov	r1, r3	@, tmp204
 353 0140 FFF7FEFF 		bl	BackupPage	@
 140:.\src/flash_program.c **** 		ErasePage(PAGE28,0);
 354              		.loc 1 140 0
 355 0144 1A4B     		ldr	r3, .L23+36	@ tmp205,
 356 0146 181C     		mov	r0, r3	@, tmp205
 357 0148 0021     		mov	r1, #0	@,
 358 014a FFF7FEFF 		bl	ErasePage	@
 141:.\src/flash_program.c **** 		if (UpdateNewCode(memory_backup.v_bkp, position, new_code) == FAILED)
 359              		.loc 1 141 0
 360 014e 1149     		ldr	r1, .L23+8	@ tmp206,
 361 0150 6B46     		mov	r3, sp	@ tmp207,
 362 0152 0633     		add	r3, r3, #6	@ tmp207,
 363 0154 1A88     		ldrh	r2, [r3]	@ tmp208, position
 364 0156 009B     		ldr	r3, [sp]	@ tmp209, new_code
 365 0158 081C     		mov	r0, r1	@, tmp206
 366 015a 111C     		mov	r1, r2	@, tmp208
 367 015c 1A1C     		mov	r2, r3	@, tmp209
 368 015e FFF7FEFF 		bl	UpdateNewCode	@
 369 0162 031C     		mov	r3, r0	@ tmp210,
 370 0164 002B     		cmp	r3, #0	@ D.4903,
 371 0166 01D1     		bne	.L22	@,
 142:.\src/flash_program.c **** 			return FAILED;
ARM GAS  C:\Users\Mariano\AppData\Local\Temp\cc5SrqNx.s 			page 10


 372              		.loc 1 142 0
 373 0168 0023     		mov	r3, #0	@ D.4870,
 374 016a 0CE0     		b	.L14	@
 375              	.L22:
 143:.\src/flash_program.c **** 
 144:.\src/flash_program.c **** 		if (WritePage(memory_backup.v_bkp, PAGE28, 1) == FAILED)
 376              		.loc 1 144 0
 377 016c 094A     		ldr	r2, .L23+8	@ tmp212,
 378 016e 104B     		ldr	r3, .L23+36	@ tmp213,
 379 0170 101C     		mov	r0, r2	@, tmp212
 380 0172 191C     		mov	r1, r3	@, tmp213
 381 0174 0122     		mov	r2, #1	@,
 382 0176 FFF7FEFF 		bl	WritePage	@
 383 017a 031C     		mov	r3, r0	@ tmp214,
 384 017c 002B     		cmp	r3, #0	@ D.4906,
 385 017e 01D1     		bne	.L17	@,
 145:.\src/flash_program.c **** 			return FAILED;
 386              		.loc 1 145 0
 387 0180 0023     		mov	r3, #0	@ D.4870,
 388 0182 00E0     		b	.L14	@
 389              	.L17:
 146:.\src/flash_program.c **** 	}
 147:.\src/flash_program.c **** 
 148:.\src/flash_program.c **** 	return PASSED;
 390              		.loc 1 148 0
 391 0184 0123     		mov	r3, #1	@ D.4870,
 392              	.L14:
 149:.\src/flash_program.c **** }
 393              		.loc 1 149 0
 394 0186 181C     		mov	r0, r3	@, <retval>
 395 0188 03B0     		add	sp, sp, #12	@,,
 396              		@ sp needed for prologue	@
 397 018a 00BD     		pop	{pc}
 398              	.L24:
 399              		.align	2
 400              	.L23:
 401 018c FF030000 		.word	1023
 402 0190 FF020000 		.word	767
 403 0194 00000000 		.word	memory_backup
 404 0198 007C0008 		.word	134249472
 405 019c 00FDFFFF 		.word	-768
 406 01a0 FF010000 		.word	511
 407 01a4 00780008 		.word	134248448
 408 01a8 00FEFFFF 		.word	-512
 409 01ac 00740008 		.word	134247424
 410 01b0 00700008 		.word	134246400
 411              		.cfi_endproc
 412              	.LFE22:
 413              		.size	Write_Code_To_Memory_FLASH, .-Write_Code_To_Memory_FLASH
 414              		.section	.text.BackupPage,"ax",%progbits
 415              		.align	2
 416              		.global	BackupPage
 417              		.code	16
 418              		.thumb_func
 419              		.type	BackupPage, %function
 420              	BackupPage:
 421              	.LFB23:
ARM GAS  C:\Users\Mariano\AppData\Local\Temp\cc5SrqNx.s 			page 11


 150:.\src/flash_program.c **** /**
 151:.\src/flash_program.c ****   * @brief    After Reset, the Flash memory Program/Erase Controller is locked.
 152:.\src/flash_program.c ****   * To unlock it, the FLASH_Unlock function is used. Before programming the
 153:.\src/flash_program.c ****   * desired addresses, an erase operation is performed using the flash erase
 154:.\src/flash_program.c ****   * page feature. The erase procedure starts with the calculation of the number
 155:.\src/flash_program.c ****   * of pages to be used. Then all these pages will be erased one by one by
 156:.\src/flash_program.c ****   * calling FLASH_ErasePage function.
 157:.\src/flash_program.c ****   * Once this operation is finished, the programming operation will be performed by
 158:.\src/flash_program.c ****   * using the FLASH_ProgramWord function. The written data is then checked and the
 159:.\src/flash_program.c ****   * result of the programming operation is stored into the MemoryProgramStatus variable.
 160:.\src/flash_program.c ****   * @param  None
 161:.\src/flash_program.c ****   * @retval None
 162:.\src/flash_program.c ****   */
 163:.\src/flash_program.c **** 
 164:.\src/flash_program.c **** void BackupPage(unsigned int * p, unsigned int * page_addr)
 165:.\src/flash_program.c **** {
 422              		.loc 1 165 0
 423              		.cfi_startproc
 424 0000 84B0     		sub	sp, sp, #16	@,,
 425              	.LCFI4:
 426              		.cfi_def_cfa_offset 16
 427 0002 0190     		str	r0, [sp, #4]	@ p, p
 428 0004 0091     		str	r1, [sp]	@ page_addr, page_addr
 166:.\src/flash_program.c **** 	unsigned short i;
 167:.\src/flash_program.c **** 
 168:.\src/flash_program.c **** 	for (i = 0; i < 255; i++)
 429              		.loc 1 168 0
 430 0006 6B46     		mov	r3, sp	@ tmp141,
 431 0008 0E33     		add	r3, r3, #14	@ tmp141,
 432 000a 0022     		mov	r2, #0	@ tmp142,
 433 000c 1A80     		strh	r2, [r3]	@ tmp143, i
 434 000e 14E0     		b	.L26	@
 435              	.L27:
 169:.\src/flash_program.c **** 	{
 170:.\src/flash_program.c **** 		*(p + i) = *(page_addr + i);
 436              		.loc 1 170 0 discriminator 2
 437 0010 6B46     		mov	r3, sp	@ tmp144,
 438 0012 0E33     		add	r3, r3, #14	@ tmp144,
 439 0014 1B88     		ldrh	r3, [r3]	@ D.4861, i
 440 0016 9B00     		lsl	r3, r3, #2	@ D.4862, D.4861,
 441 0018 019A     		ldr	r2, [sp, #4]	@ tmp145, p
 442 001a D318     		add	r3, r2, r3	@ D.4863, tmp145, D.4862
 443 001c 6A46     		mov	r2, sp	@ tmp146,
 444 001e 0E32     		add	r2, r2, #14	@ tmp146,
 445 0020 1288     		ldrh	r2, [r2]	@ D.4864, i
 446 0022 9200     		lsl	r2, r2, #2	@ D.4865, D.4864,
 447 0024 0099     		ldr	r1, [sp]	@ tmp147, page_addr
 448 0026 8A18     		add	r2, r1, r2	@ D.4866, tmp147, D.4865
 449 0028 1268     		ldr	r2, [r2]	@ D.4867, *D.4866_10
 450 002a 1A60     		str	r2, [r3]	@ D.4867, *D.4863_6
 168:.\src/flash_program.c **** 	for (i = 0; i < 255; i++)
 451              		.loc 1 168 0 discriminator 2
 452 002c 6B46     		mov	r3, sp	@ tmp148,
 453 002e 0E33     		add	r3, r3, #14	@ tmp148,
 454 0030 6A46     		mov	r2, sp	@ tmp149,
 455 0032 0E32     		add	r2, r2, #14	@ tmp149,
 456 0034 1288     		ldrh	r2, [r2]	@ tmp150, i
ARM GAS  C:\Users\Mariano\AppData\Local\Temp\cc5SrqNx.s 			page 12


 457 0036 0132     		add	r2, r2, #1	@ tmp151,
 458 0038 1A80     		strh	r2, [r3]	@ tmp152, i
 459              	.L26:
 168:.\src/flash_program.c **** 	for (i = 0; i < 255; i++)
 460              		.loc 1 168 0 is_stmt 0 discriminator 1
 461 003a 6B46     		mov	r3, sp	@ tmp153,
 462 003c 0E33     		add	r3, r3, #14	@ tmp153,
 463 003e 1B88     		ldrh	r3, [r3]	@ tmp154, i
 464 0040 FE2B     		cmp	r3, #254	@ tmp154,
 465 0042 E5D9     		bls	.L27	@,
 171:.\src/flash_program.c **** 	}
 172:.\src/flash_program.c **** }
 466              		.loc 1 172 0 is_stmt 1
 467 0044 04B0     		add	sp, sp, #16	@,,
 468              		@ sp needed for prologue	@
 469 0046 7047     		bx	lr
 470              		.cfi_endproc
 471              	.LFE23:
 472              		.size	BackupPage, .-BackupPage
 473              		.section	.text.ErasePage,"ax",%progbits
 474              		.align	2
 475              		.global	ErasePage
 476              		.code	16
 477              		.thumb_func
 478              		.type	ErasePage, %function
 479              	ErasePage:
 480              	.LFB24:
 173:.\src/flash_program.c **** 
 174:.\src/flash_program.c **** void ErasePage(uint32_t p_addr, unsigned char with_lock)
 175:.\src/flash_program.c **** {
 481              		.loc 1 175 0
 482              		.cfi_startproc
 483 0000 00B5     		push	{lr}	@
 484              	.LCFI5:
 485              		.cfi_def_cfa_offset 4
 486              		.cfi_offset 14, -4
 487 0002 83B0     		sub	sp, sp, #12	@,,
 488              	.LCFI6:
 489              		.cfi_def_cfa_offset 16
 490 0004 0190     		str	r0, [sp, #4]	@ p_addr, p_addr
 491 0006 0A1C     		mov	r2, r1	@ tmp134, with_lock
 492 0008 6B46     		mov	r3, sp	@ tmp135,
 493 000a 0333     		add	r3, r3, #3	@ tmp135,
 494 000c 1A70     		strb	r2, [r3]	@ tmp136, with_lock
 176:.\src/flash_program.c **** 	FLASH_Unlock();
 495              		.loc 1 176 0
 496 000e FFF7FEFF 		bl	FLASH_Unlock	@
 177:.\src/flash_program.c **** 	FLASH_ErasePage(p_addr);
 497              		.loc 1 177 0
 498 0012 019B     		ldr	r3, [sp, #4]	@ tmp137, p_addr
 499 0014 181C     		mov	r0, r3	@, tmp137
 500 0016 FFF7FEFF 		bl	FLASH_ErasePage	@
 178:.\src/flash_program.c **** 	if (with_lock)
 501              		.loc 1 178 0
 502 001a 6B46     		mov	r3, sp	@ tmp138,
 503 001c 0333     		add	r3, r3, #3	@ tmp138,
 504 001e 1B78     		ldrb	r3, [r3]	@ tmp139, with_lock
ARM GAS  C:\Users\Mariano\AppData\Local\Temp\cc5SrqNx.s 			page 13


 505 0020 002B     		cmp	r3, #0	@ tmp139,
 506 0022 01D0     		beq	.L28	@,
 179:.\src/flash_program.c **** 		FLASH_Lock();
 507              		.loc 1 179 0
 508 0024 FFF7FEFF 		bl	FLASH_Lock	@
 509              	.L28:
 180:.\src/flash_program.c **** }
 510              		.loc 1 180 0
 511 0028 03B0     		add	sp, sp, #12	@,,
 512              		@ sp needed for prologue	@
 513 002a 00BD     		pop	{pc}
 514              		.cfi_endproc
 515              	.LFE24:
 516              		.size	ErasePage, .-ErasePage
 517              		.section	.text.UpdateNewCode,"ax",%progbits
 518              		.align	2
 519              		.global	UpdateNewCode
 520              		.code	16
 521              		.thumb_func
 522              		.type	UpdateNewCode, %function
 523              	UpdateNewCode:
 524              	.LFB25:
 181:.\src/flash_program.c **** 
 182:.\src/flash_program.c **** unsigned char UpdateNewCode(unsigned int * p, unsigned short posi, unsigned int new_code)
 183:.\src/flash_program.c **** {
 525              		.loc 1 183 0
 526              		.cfi_startproc
 527 0000 84B0     		sub	sp, sp, #16	@,,
 528              	.LCFI7:
 529              		.cfi_def_cfa_offset 16
 530 0002 0390     		str	r0, [sp, #12]	@ p, p
 531 0004 0192     		str	r2, [sp, #4]	@ new_code, new_code
 532 0006 6B46     		mov	r3, sp	@ tmp140,
 533 0008 0A33     		add	r3, r3, #10	@ tmp140,
 534 000a 0A1C     		add	r2, r1, #0	@ tmp141, tmp139
 535 000c 1A80     		strh	r2, [r3]	@ tmp141, posi
 184:.\src/flash_program.c **** 	if (posi > 255)
 536              		.loc 1 184 0
 537 000e 6B46     		mov	r3, sp	@ tmp142,
 538 0010 0A33     		add	r3, r3, #10	@ tmp142,
 539 0012 1B88     		ldrh	r3, [r3]	@ tmp143, posi
 540 0014 FF2B     		cmp	r3, #255	@ tmp143,
 541 0016 01D9     		bls	.L31	@,
 185:.\src/flash_program.c **** 		return FAILED;
 542              		.loc 1 185 0
 543 0018 0023     		mov	r3, #0	@ D.4854,
 544 001a 08E0     		b	.L32	@
 545              	.L31:
 186:.\src/flash_program.c **** 
 187:.\src/flash_program.c **** 	*(p + posi ) = new_code;
 546              		.loc 1 187 0
 547 001c 6B46     		mov	r3, sp	@ tmp144,
 548 001e 0A33     		add	r3, r3, #10	@ tmp144,
 549 0020 1B88     		ldrh	r3, [r3]	@ D.4855, posi
 550 0022 9B00     		lsl	r3, r3, #2	@ D.4856, D.4855,
 551 0024 039A     		ldr	r2, [sp, #12]	@ tmp145, p
 552 0026 D318     		add	r3, r2, r3	@ D.4857, tmp145, D.4856
ARM GAS  C:\Users\Mariano\AppData\Local\Temp\cc5SrqNx.s 			page 14


 553 0028 019A     		ldr	r2, [sp, #4]	@ tmp146, new_code
 554 002a 1A60     		str	r2, [r3]	@ tmp146, *D.4857_7
 188:.\src/flash_program.c **** 
 189:.\src/flash_program.c **** 	return PASSED;
 555              		.loc 1 189 0
 556 002c 0123     		mov	r3, #1	@ D.4854,
 557              	.L32:
 190:.\src/flash_program.c **** }
 558              		.loc 1 190 0
 559 002e 181C     		mov	r0, r3	@, <retval>
 560 0030 04B0     		add	sp, sp, #16	@,,
 561              		@ sp needed for prologue	@
 562 0032 7047     		bx	lr
 563              		.cfi_endproc
 564              	.LFE25:
 565              		.size	UpdateNewCode, .-UpdateNewCode
 566              		.section	.text.WritePage,"ax",%progbits
 567              		.align	2
 568              		.global	WritePage
 569              		.code	16
 570              		.thumb_func
 571              		.type	WritePage, %function
 572              	WritePage:
 573              	.LFB26:
 191:.\src/flash_program.c **** 
 192:.\src/flash_program.c **** unsigned char WritePage(unsigned int * p, uint32_t p_addr, unsigned char with_lock)
 193:.\src/flash_program.c **** {
 574              		.loc 1 193 0
 575              		.cfi_startproc
 576 0000 00B5     		push	{lr}	@
 577              	.LCFI8:
 578              		.cfi_def_cfa_offset 4
 579              		.cfi_offset 14, -4
 580 0002 87B0     		sub	sp, sp, #28	@,,
 581              	.LCFI9:
 582              		.cfi_def_cfa_offset 32
 583 0004 0390     		str	r0, [sp, #12]	@ p, p
 584 0006 0291     		str	r1, [sp, #8]	@ p_addr, p_addr
 585 0008 6B46     		mov	r3, sp	@ tmp149,
 586 000a 0733     		add	r3, r3, #7	@ tmp149,
 587 000c 1A70     		strb	r2, [r3]	@ tmp150, with_lock
 194:.\src/flash_program.c **** 	unsigned short i;
 195:.\src/flash_program.c **** 	unsigned int * p_verif;
 196:.\src/flash_program.c **** 
 197:.\src/flash_program.c **** 	p_verif = (unsigned int *) p_addr;
 588              		.loc 1 197 0
 589 000e 029B     		ldr	r3, [sp, #8]	@ tmp151, p_addr
 590 0010 0493     		str	r3, [sp, #16]	@ tmp151, p_verif
 198:.\src/flash_program.c **** 
 199:.\src/flash_program.c **** 	for (i = 0; i < 255; i++)
 591              		.loc 1 199 0
 592 0012 6B46     		mov	r3, sp	@ tmp152,
 593 0014 1633     		add	r3, r3, #22	@ tmp152,
 594 0016 0022     		mov	r2, #0	@ tmp153,
 595 0018 1A80     		strh	r2, [r3]	@ tmp154, i
 596 001a 15E0     		b	.L34	@
 597              	.L35:
ARM GAS  C:\Users\Mariano\AppData\Local\Temp\cc5SrqNx.s 			page 15


 200:.\src/flash_program.c **** 	{
 201:.\src/flash_program.c **** 		FLASH_ProgramWord(p_addr, *(p + i));
 598              		.loc 1 201 0 discriminator 2
 599 001c 6B46     		mov	r3, sp	@ tmp155,
 600 001e 1633     		add	r3, r3, #22	@ tmp155,
 601 0020 1B88     		ldrh	r3, [r3]	@ D.4834, i
 602 0022 9B00     		lsl	r3, r3, #2	@ D.4835, D.4834,
 603 0024 039A     		ldr	r2, [sp, #12]	@ tmp156, p
 604 0026 D318     		add	r3, r2, r3	@ D.4836, tmp156, D.4835
 605 0028 1B68     		ldr	r3, [r3]	@ D.4837, *D.4836_11
 606 002a 029A     		ldr	r2, [sp, #8]	@ tmp157, p_addr
 607 002c 101C     		mov	r0, r2	@, tmp157
 608 002e 191C     		mov	r1, r3	@, D.4837
 609 0030 FFF7FEFF 		bl	FLASH_ProgramWord	@
 202:.\src/flash_program.c **** 		p_addr += 4;
 610              		.loc 1 202 0 discriminator 2
 611 0034 029B     		ldr	r3, [sp, #8]	@ tmp159, p_addr
 612 0036 0433     		add	r3, r3, #4	@ tmp158,
 613 0038 0293     		str	r3, [sp, #8]	@ tmp158, p_addr
 199:.\src/flash_program.c **** 	for (i = 0; i < 255; i++)
 614              		.loc 1 199 0 discriminator 2
 615 003a 6B46     		mov	r3, sp	@ tmp160,
 616 003c 1633     		add	r3, r3, #22	@ tmp160,
 617 003e 6A46     		mov	r2, sp	@ tmp161,
 618 0040 1632     		add	r2, r2, #22	@ tmp161,
 619 0042 1288     		ldrh	r2, [r2]	@ tmp162, i
 620 0044 0132     		add	r2, r2, #1	@ tmp163,
 621 0046 1A80     		strh	r2, [r3]	@ tmp164, i
 622              	.L34:
 199:.\src/flash_program.c **** 	for (i = 0; i < 255; i++)
 623              		.loc 1 199 0 is_stmt 0 discriminator 1
 624 0048 6B46     		mov	r3, sp	@ tmp165,
 625 004a 1633     		add	r3, r3, #22	@ tmp165,
 626 004c 1B88     		ldrh	r3, [r3]	@ tmp166, i
 627 004e FE2B     		cmp	r3, #254	@ tmp166,
 628 0050 E4D9     		bls	.L35	@,
 203:.\src/flash_program.c **** 	}
 204:.\src/flash_program.c **** 
 205:.\src/flash_program.c **** 	if (with_lock)
 629              		.loc 1 205 0 is_stmt 1
 630 0052 6B46     		mov	r3, sp	@ tmp167,
 631 0054 0733     		add	r3, r3, #7	@ tmp167,
 632 0056 1B78     		ldrb	r3, [r3]	@ tmp168, with_lock
 633 0058 002B     		cmp	r3, #0	@ tmp168,
 634 005a 01D0     		beq	.L36	@,
 206:.\src/flash_program.c **** 		FLASH_Lock();
 635              		.loc 1 206 0
 636 005c FFF7FEFF 		bl	FLASH_Lock	@
 637              	.L36:
 207:.\src/flash_program.c **** 
 208:.\src/flash_program.c **** 	//verifico memoria
 209:.\src/flash_program.c **** 	for (i = 0; i < 255; i++)
 638              		.loc 1 209 0
 639 0060 6B46     		mov	r3, sp	@ tmp169,
 640 0062 1633     		add	r3, r3, #22	@ tmp169,
 641 0064 0022     		mov	r2, #0	@ tmp170,
 642 0066 1A80     		strh	r2, [r3]	@ tmp171, i
ARM GAS  C:\Users\Mariano\AppData\Local\Temp\cc5SrqNx.s 			page 16


 643 0068 18E0     		b	.L37	@
 644              	.L40:
 210:.\src/flash_program.c **** 	{
 211:.\src/flash_program.c **** 		if (*(p_verif + i) != *(p + i))
 645              		.loc 1 211 0
 646 006a 6B46     		mov	r3, sp	@ tmp172,
 647 006c 1633     		add	r3, r3, #22	@ tmp172,
 648 006e 1B88     		ldrh	r3, [r3]	@ D.4840, i
 649 0070 9B00     		lsl	r3, r3, #2	@ D.4841, D.4840,
 650 0072 049A     		ldr	r2, [sp, #16]	@ tmp173, p_verif
 651 0074 D318     		add	r3, r2, r3	@ D.4842, tmp173, D.4841
 652 0076 1A68     		ldr	r2, [r3]	@ D.4843, *D.4842_19
 653 0078 6B46     		mov	r3, sp	@ tmp174,
 654 007a 1633     		add	r3, r3, #22	@ tmp174,
 655 007c 1B88     		ldrh	r3, [r3]	@ D.4844, i
 656 007e 9B00     		lsl	r3, r3, #2	@ D.4845, D.4844,
 657 0080 0399     		ldr	r1, [sp, #12]	@ tmp175, p
 658 0082 CB18     		add	r3, r1, r3	@ D.4846, tmp175, D.4845
 659 0084 1B68     		ldr	r3, [r3]	@ D.4847, *D.4846_23
 660 0086 9A42     		cmp	r2, r3	@ D.4843, D.4847
 661 0088 01D0     		beq	.L38	@,
 212:.\src/flash_program.c **** 			return FAILED;
 662              		.loc 1 212 0
 663 008a 0023     		mov	r3, #0	@ D.4850,
 664 008c 0CE0     		b	.L39	@
 665              	.L38:
 209:.\src/flash_program.c **** 	for (i = 0; i < 255; i++)
 666              		.loc 1 209 0
 667 008e 6B46     		mov	r3, sp	@ tmp176,
 668 0090 1633     		add	r3, r3, #22	@ tmp176,
 669 0092 6A46     		mov	r2, sp	@ tmp177,
 670 0094 1632     		add	r2, r2, #22	@ tmp177,
 671 0096 1288     		ldrh	r2, [r2]	@ tmp178, i
 672 0098 0132     		add	r2, r2, #1	@ tmp179,
 673 009a 1A80     		strh	r2, [r3]	@ tmp180, i
 674              	.L37:
 209:.\src/flash_program.c **** 	for (i = 0; i < 255; i++)
 675              		.loc 1 209 0 is_stmt 0 discriminator 1
 676 009c 6B46     		mov	r3, sp	@ tmp181,
 677 009e 1633     		add	r3, r3, #22	@ tmp181,
 678 00a0 1B88     		ldrh	r3, [r3]	@ tmp182, i
 679 00a2 FE2B     		cmp	r3, #254	@ tmp182,
 680 00a4 E1D9     		bls	.L40	@,
 213:.\src/flash_program.c **** 	}
 214:.\src/flash_program.c **** 	return PASSED;
 681              		.loc 1 214 0 is_stmt 1
 682 00a6 0123     		mov	r3, #1	@ D.4850,
 683              	.L39:
 215:.\src/flash_program.c **** }
 684              		.loc 1 215 0
 685 00a8 181C     		mov	r0, r3	@, <retval>
 686 00aa 07B0     		add	sp, sp, #28	@,,
 687              		@ sp needed for prologue	@
 688 00ac 00BD     		pop	{pc}
 689              		.cfi_endproc
 690              	.LFE26:
 691              		.size	WritePage, .-WritePage
ARM GAS  C:\Users\Mariano\AppData\Local\Temp\cc5SrqNx.s 			page 17


 692 00ae C046     		.section	.text.WriteConfigurations,"ax",%progbits
 693              		.align	2
 694              		.global	WriteConfigurations
 695              		.code	16
 696              		.thumb_func
 697              		.type	WriteConfigurations, %function
 698              	WriteConfigurations:
 699              	.LFB27:
 216:.\src/flash_program.c **** 
 217:.\src/flash_program.c **** 
 218:.\src/flash_program.c **** unsigned char WriteConfigurations (void)
 219:.\src/flash_program.c **** {
 700              		.loc 1 219 0
 701              		.cfi_startproc
 702 0000 00B5     		push	{lr}	@
 703              	.LCFI10:
 704              		.cfi_def_cfa_offset 4
 705              		.cfi_offset 14, -4
 706 0002 83B0     		sub	sp, sp, #12	@,,
 707              	.LCFI11:
 708              		.cfi_def_cfa_offset 16
 220:.\src/flash_program.c **** 	parameters_typedef * p_param;
 221:.\src/flash_program.c **** 
 222:.\src/flash_program.c **** 	ErasePage(PAGE31,0);
 709              		.loc 1 222 0
 710 0004 0B4B     		ldr	r3, .L44	@ tmp137,
 711 0006 181C     		mov	r0, r3	@, tmp137
 712 0008 0021     		mov	r1, #0	@,
 713 000a FFF7FEFF 		bl	ErasePage	@
 223:.\src/flash_program.c **** 
 224:.\src/flash_program.c **** 	//update en memoria
 225:.\src/flash_program.c **** 	p_param = &param_struct;
 714              		.loc 1 225 0
 715 000e 0A4B     		ldr	r3, .L44+4	@ tmp138,
 716 0010 0193     		str	r3, [sp, #4]	@ tmp138, p_param
 226:.\src/flash_program.c **** 
 227:.\src/flash_program.c **** 	if (WriteFlash((unsigned int *) p_param, PAGE31, 1, sizeof(parameters_typedef)) == FAILED)
 717              		.loc 1 227 0
 718 0012 019A     		ldr	r2, [sp, #4]	@ tmp139, p_param
 719 0014 074B     		ldr	r3, .L44	@ tmp140,
 720 0016 101C     		mov	r0, r2	@, tmp139
 721 0018 191C     		mov	r1, r3	@, tmp140
 722 001a 0122     		mov	r2, #1	@,
 723 001c 0C23     		mov	r3, #12	@,
 724 001e FFF7FEFF 		bl	WriteFlash	@
 725 0022 031C     		mov	r3, r0	@ tmp141,
 726 0024 002B     		cmp	r3, #0	@ D.4829,
 727 0026 01D1     		bne	.L42	@,
 228:.\src/flash_program.c **** 		return FAILED;
 728              		.loc 1 228 0
 729 0028 0023     		mov	r3, #0	@ D.4832,
 730 002a 00E0     		b	.L43	@
 731              	.L42:
 229:.\src/flash_program.c **** 
 230:.\src/flash_program.c **** 	return PASSED;
 732              		.loc 1 230 0
 733 002c 0123     		mov	r3, #1	@ D.4832,
ARM GAS  C:\Users\Mariano\AppData\Local\Temp\cc5SrqNx.s 			page 18


 734              	.L43:
 231:.\src/flash_program.c **** }
 735              		.loc 1 231 0
 736 002e 181C     		mov	r0, r3	@, <retval>
 737 0030 03B0     		add	sp, sp, #12	@,,
 738              		@ sp needed for prologue	@
 739 0032 00BD     		pop	{pc}
 740              	.L45:
 741              		.align	2
 742              	.L44:
 743 0034 007C0008 		.word	134249472
 744 0038 00000000 		.word	param_struct
 745              		.cfi_endproc
 746              	.LFE27:
 747              		.size	WriteConfigurations, .-WriteConfigurations
 748              		.section	.text.WriteFlash,"ax",%progbits
 749              		.align	2
 750              		.global	WriteFlash
 751              		.code	16
 752              		.thumb_func
 753              		.type	WriteFlash, %function
 754              	WriteFlash:
 755              	.LFB28:
 232:.\src/flash_program.c **** 
 233:.\src/flash_program.c **** unsigned char WriteFlash(unsigned int * p, uint32_t p_addr, unsigned char with_lock, unsigned char 
 234:.\src/flash_program.c **** {
 756              		.loc 1 234 0
 757              		.cfi_startproc
 758 0000 00B5     		push	{lr}	@
 759              	.LCFI12:
 760              		.cfi_def_cfa_offset 4
 761              		.cfi_offset 14, -4
 762 0002 87B0     		sub	sp, sp, #28	@,,
 763              	.LCFI13:
 764              		.cfi_def_cfa_offset 32
 765 0004 0390     		str	r0, [sp, #12]	@ p, p
 766 0006 0291     		str	r1, [sp, #8]	@ p_addr, p_addr
 767 0008 111C     		mov	r1, r2	@ tmp150, with_lock
 768 000a 1A1C     		mov	r2, r3	@ tmp153, len_in_4
 769 000c 6B46     		mov	r3, sp	@ tmp151,
 770 000e 0733     		add	r3, r3, #7	@ tmp151,
 771 0010 1970     		strb	r1, [r3]	@ tmp152, with_lock
 772 0012 6B46     		mov	r3, sp	@ tmp154,
 773 0014 0633     		add	r3, r3, #6	@ tmp154,
 774 0016 1A70     		strb	r2, [r3]	@ tmp155, len_in_4
 235:.\src/flash_program.c **** 	unsigned short i;
 236:.\src/flash_program.c **** 	unsigned int * p_verif;
 237:.\src/flash_program.c **** 
 238:.\src/flash_program.c **** 	p_verif = (unsigned int *) p_addr;
 775              		.loc 1 238 0
 776 0018 029B     		ldr	r3, [sp, #8]	@ tmp156, p_addr
 777 001a 0493     		str	r3, [sp, #16]	@ tmp156, p_verif
 239:.\src/flash_program.c **** 
 240:.\src/flash_program.c **** 	for (i = 0; i < len_in_4; i++)
 778              		.loc 1 240 0
 779 001c 6B46     		mov	r3, sp	@ tmp157,
 780 001e 1633     		add	r3, r3, #22	@ tmp157,
ARM GAS  C:\Users\Mariano\AppData\Local\Temp\cc5SrqNx.s 			page 19


 781 0020 0022     		mov	r2, #0	@ tmp158,
 782 0022 1A80     		strh	r2, [r3]	@ tmp159, i
 783 0024 15E0     		b	.L47	@
 784              	.L48:
 241:.\src/flash_program.c **** 	{
 242:.\src/flash_program.c **** 		FLASH_ProgramWord(p_addr, *(p + i));
 785              		.loc 1 242 0 discriminator 2
 786 0026 6B46     		mov	r3, sp	@ tmp160,
 787 0028 1633     		add	r3, r3, #22	@ tmp160,
 788 002a 1B88     		ldrh	r3, [r3]	@ D.4809, i
 789 002c 9B00     		lsl	r3, r3, #2	@ D.4810, D.4809,
 790 002e 039A     		ldr	r2, [sp, #12]	@ tmp161, p
 791 0030 D318     		add	r3, r2, r3	@ D.4811, tmp161, D.4810
 792 0032 1B68     		ldr	r3, [r3]	@ D.4812, *D.4811_13
 793 0034 029A     		ldr	r2, [sp, #8]	@ tmp162, p_addr
 794 0036 101C     		mov	r0, r2	@, tmp162
 795 0038 191C     		mov	r1, r3	@, D.4812
 796 003a FFF7FEFF 		bl	FLASH_ProgramWord	@
 243:.\src/flash_program.c **** 		p_addr += 4;
 797              		.loc 1 243 0 discriminator 2
 798 003e 029B     		ldr	r3, [sp, #8]	@ tmp164, p_addr
 799 0040 0433     		add	r3, r3, #4	@ tmp163,
 800 0042 0293     		str	r3, [sp, #8]	@ tmp163, p_addr
 240:.\src/flash_program.c **** 	for (i = 0; i < len_in_4; i++)
 801              		.loc 1 240 0 discriminator 2
 802 0044 6B46     		mov	r3, sp	@ tmp165,
 803 0046 1633     		add	r3, r3, #22	@ tmp165,
 804 0048 6A46     		mov	r2, sp	@ tmp166,
 805 004a 1632     		add	r2, r2, #22	@ tmp166,
 806 004c 1288     		ldrh	r2, [r2]	@ tmp167, i
 807 004e 0132     		add	r2, r2, #1	@ tmp168,
 808 0050 1A80     		strh	r2, [r3]	@ tmp169, i
 809              	.L47:
 240:.\src/flash_program.c **** 	for (i = 0; i < len_in_4; i++)
 810              		.loc 1 240 0 is_stmt 0 discriminator 1
 811 0052 6B46     		mov	r3, sp	@ tmp170,
 812 0054 0633     		add	r3, r3, #6	@ tmp170,
 813 0056 1B78     		ldrb	r3, [r3]	@ tmp172, len_in_4
 814 0058 9BB2     		uxth	r3, r3	@ D.4813, tmp171
 815 005a 6A46     		mov	r2, sp	@ tmp173,
 816 005c 1632     		add	r2, r2, #22	@ tmp173,
 817 005e 1288     		ldrh	r2, [r2]	@ tmp174, i
 818 0060 9A42     		cmp	r2, r3	@ tmp174, D.4813
 819 0062 E0D3     		bcc	.L48	@,
 244:.\src/flash_program.c **** 	}
 245:.\src/flash_program.c **** 
 246:.\src/flash_program.c **** 	if (with_lock)
 820              		.loc 1 246 0 is_stmt 1
 821 0064 6B46     		mov	r3, sp	@ tmp175,
 822 0066 0733     		add	r3, r3, #7	@ tmp175,
 823 0068 1B78     		ldrb	r3, [r3]	@ tmp176, with_lock
 824 006a 002B     		cmp	r3, #0	@ tmp176,
 825 006c 01D0     		beq	.L49	@,
 247:.\src/flash_program.c **** 		FLASH_Lock();
 826              		.loc 1 247 0
 827 006e FFF7FEFF 		bl	FLASH_Lock	@
 828              	.L49:
ARM GAS  C:\Users\Mariano\AppData\Local\Temp\cc5SrqNx.s 			page 20


 248:.\src/flash_program.c **** 
 249:.\src/flash_program.c **** 	//verifico memoria
 250:.\src/flash_program.c **** 	for (i = 0; i < len_in_4; i++)
 829              		.loc 1 250 0
 830 0072 6B46     		mov	r3, sp	@ tmp177,
 831 0074 1633     		add	r3, r3, #22	@ tmp177,
 832 0076 0022     		mov	r2, #0	@ tmp178,
 833 0078 1A80     		strh	r2, [r3]	@ tmp179, i
 834 007a 18E0     		b	.L50	@
 835              	.L53:
 251:.\src/flash_program.c **** 	{
 252:.\src/flash_program.c **** 		if (*(p_verif + i) != *(p + i))
 836              		.loc 1 252 0
 837 007c 6B46     		mov	r3, sp	@ tmp180,
 838 007e 1633     		add	r3, r3, #22	@ tmp180,
 839 0080 1B88     		ldrh	r3, [r3]	@ D.4816, i
 840 0082 9B00     		lsl	r3, r3, #2	@ D.4817, D.4816,
 841 0084 049A     		ldr	r2, [sp, #16]	@ tmp181, p_verif
 842 0086 D318     		add	r3, r2, r3	@ D.4818, tmp181, D.4817
 843 0088 1A68     		ldr	r2, [r3]	@ D.4819, *D.4818_22
 844 008a 6B46     		mov	r3, sp	@ tmp182,
 845 008c 1633     		add	r3, r3, #22	@ tmp182,
 846 008e 1B88     		ldrh	r3, [r3]	@ D.4820, i
 847 0090 9B00     		lsl	r3, r3, #2	@ D.4821, D.4820,
 848 0092 0399     		ldr	r1, [sp, #12]	@ tmp183, p
 849 0094 CB18     		add	r3, r1, r3	@ D.4822, tmp183, D.4821
 850 0096 1B68     		ldr	r3, [r3]	@ D.4823, *D.4822_26
 851 0098 9A42     		cmp	r2, r3	@ D.4819, D.4823
 852 009a 01D0     		beq	.L51	@,
 253:.\src/flash_program.c **** 			return FAILED;
 853              		.loc 1 253 0
 854 009c 0023     		mov	r3, #0	@ D.4826,
 855 009e 10E0     		b	.L52	@
 856              	.L51:
 250:.\src/flash_program.c **** 	for (i = 0; i < len_in_4; i++)
 857              		.loc 1 250 0
 858 00a0 6B46     		mov	r3, sp	@ tmp184,
 859 00a2 1633     		add	r3, r3, #22	@ tmp184,
 860 00a4 6A46     		mov	r2, sp	@ tmp185,
 861 00a6 1632     		add	r2, r2, #22	@ tmp185,
 862 00a8 1288     		ldrh	r2, [r2]	@ tmp186, i
 863 00aa 0132     		add	r2, r2, #1	@ tmp187,
 864 00ac 1A80     		strh	r2, [r3]	@ tmp188, i
 865              	.L50:
 250:.\src/flash_program.c **** 	for (i = 0; i < len_in_4; i++)
 866              		.loc 1 250 0 is_stmt 0 discriminator 1
 867 00ae 6B46     		mov	r3, sp	@ tmp189,
 868 00b0 0633     		add	r3, r3, #6	@ tmp189,
 869 00b2 1B78     		ldrb	r3, [r3]	@ tmp191, len_in_4
 870 00b4 9BB2     		uxth	r3, r3	@ D.4827, tmp190
 871 00b6 6A46     		mov	r2, sp	@ tmp192,
 872 00b8 1632     		add	r2, r2, #22	@ tmp192,
 873 00ba 1288     		ldrh	r2, [r2]	@ tmp193, i
 874 00bc 9A42     		cmp	r2, r3	@ tmp193, D.4827
 875 00be DDD3     		bcc	.L53	@,
 254:.\src/flash_program.c **** 	}
 255:.\src/flash_program.c **** 	return PASSED;
ARM GAS  C:\Users\Mariano\AppData\Local\Temp\cc5SrqNx.s 			page 21


 876              		.loc 1 255 0 is_stmt 1
 877 00c0 0123     		mov	r3, #1	@ D.4826,
 878              	.L52:
 256:.\src/flash_program.c **** }
 879              		.loc 1 256 0
 880 00c2 181C     		mov	r0, r3	@, <retval>
 881 00c4 07B0     		add	sp, sp, #28	@,,
 882              		@ sp needed for prologue	@
 883 00c6 00BD     		pop	{pc}
 884              		.cfi_endproc
 885              	.LFE28:
 886              		.size	WriteFlash, .-WriteFlash
 887              		.text
 888              	.Letext0:
 889              		.file 2 ".\\src\\flash_program.h"
 890              		.file 3 "c:\\program files (x86)\\gnu tools arm embedded\\4.7 2013q2\\bin\\../lib/gcc/arm-none-eab
 891              		.section	.debug_info,"",%progbits
 892              	.Ldebug_info0:
 893 0000 26040000 		.4byte	0x426
 894 0004 0200     		.2byte	0x2
 895 0006 00000000 		.4byte	.Ldebug_abbrev0
 896 000a 04       		.byte	0x4
 897 000b 01       		.uleb128 0x1
 898 000c 7D010000 		.4byte	.LASF50
 899 0010 01       		.byte	0x1
 900 0011 1E010000 		.4byte	.LASF51
 901 0015 0D020000 		.4byte	.LASF52
 902 0019 00000000 		.4byte	.Ldebug_ranges0+0
 903 001d 00000000 		.4byte	0
 904 0021 00000000 		.4byte	0
 905 0025 00000000 		.4byte	.Ldebug_line0
 906 0029 02       		.uleb128 0x2
 907 002a 01       		.byte	0x1
 908 002b 06       		.byte	0x6
 909 002c E7020000 		.4byte	.LASF0
 910 0030 02       		.uleb128 0x2
 911 0031 01       		.byte	0x1
 912 0032 08       		.byte	0x8
 913 0033 99000000 		.4byte	.LASF1
 914 0037 02       		.uleb128 0x2
 915 0038 02       		.byte	0x2
 916 0039 05       		.byte	0x5
 917 003a 9C020000 		.4byte	.LASF2
 918 003e 02       		.uleb128 0x2
 919 003f 02       		.byte	0x2
 920 0040 07       		.byte	0x7
 921 0041 5C000000 		.4byte	.LASF3
 922 0045 02       		.uleb128 0x2
 923 0046 04       		.byte	0x4
 924 0047 05       		.byte	0x5
 925 0048 D5020000 		.4byte	.LASF4
 926 004c 03       		.uleb128 0x3
 927 004d CC020000 		.4byte	.LASF13
 928 0051 03       		.byte	0x3
 929 0052 50       		.byte	0x50
 930 0053 57000000 		.4byte	0x57
 931 0057 02       		.uleb128 0x2
ARM GAS  C:\Users\Mariano\AppData\Local\Temp\cc5SrqNx.s 			page 22


 932 0058 04       		.byte	0x4
 933 0059 07       		.byte	0x7
 934 005a E8000000 		.4byte	.LASF5
 935 005e 02       		.uleb128 0x2
 936 005f 08       		.byte	0x8
 937 0060 05       		.byte	0x5
 938 0061 FF010000 		.4byte	.LASF6
 939 0065 02       		.uleb128 0x2
 940 0066 08       		.byte	0x8
 941 0067 07       		.byte	0x7
 942 0068 D1010000 		.4byte	.LASF7
 943 006c 04       		.uleb128 0x4
 944 006d 04       		.byte	0x4
 945 006e 05       		.byte	0x5
 946 006f 696E7400 		.ascii	"int\000"
 947 0073 02       		.uleb128 0x2
 948 0074 04       		.byte	0x4
 949 0075 07       		.byte	0x7
 950 0076 70010000 		.4byte	.LASF8
 951 007a 05       		.uleb128 0x5
 952 007b B0020000 		.4byte	.LASF53
 953 007f 0004     		.2byte	0x400
 954 0081 02       		.byte	0x2
 955 0082 2E       		.byte	0x2e
 956 0083 A9000000 		.4byte	0xa9
 957 0087 06       		.uleb128 0x6
 958 0088 00000000 		.4byte	.LASF9
 959 008c 02       		.byte	0x2
 960 008d 2F       		.byte	0x2f
 961 008e A9000000 		.4byte	0xa9
 962 0092 06       		.uleb128 0x6
 963 0093 DE020000 		.4byte	.LASF10
 964 0097 02       		.byte	0x2
 965 0098 30       		.byte	0x30
 966 0099 C0000000 		.4byte	0xc0
 967 009d 06       		.uleb128 0x6
 968 009e 92020000 		.4byte	.LASF11
 969 00a2 02       		.byte	0x2
 970 00a3 31       		.byte	0x31
 971 00a4 D1000000 		.4byte	0xd1
 972 00a8 00       		.byte	0
 973 00a9 07       		.uleb128 0x7
 974 00aa 73000000 		.4byte	0x73
 975 00ae B9000000 		.4byte	0xb9
 976 00b2 08       		.uleb128 0x8
 977 00b3 B9000000 		.4byte	0xb9
 978 00b7 FF       		.byte	0xff
 979 00b8 00       		.byte	0
 980 00b9 02       		.uleb128 0x2
 981 00ba 04       		.byte	0x4
 982 00bb 07       		.byte	0x7
 983 00bc F6010000 		.4byte	.LASF12
 984 00c0 07       		.uleb128 0x7
 985 00c1 30000000 		.4byte	0x30
 986 00c5 D1000000 		.4byte	0xd1
 987 00c9 09       		.uleb128 0x9
 988 00ca B9000000 		.4byte	0xb9
ARM GAS  C:\Users\Mariano\AppData\Local\Temp\cc5SrqNx.s 			page 23


 989 00ce FF03     		.2byte	0x3ff
 990 00d0 00       		.byte	0
 991 00d1 07       		.uleb128 0x7
 992 00d2 3E000000 		.4byte	0x3e
 993 00d6 E2000000 		.4byte	0xe2
 994 00da 09       		.uleb128 0x9
 995 00db B9000000 		.4byte	0xb9
 996 00df FF01     		.2byte	0x1ff
 997 00e1 00       		.byte	0
 998 00e2 03       		.uleb128 0x3
 999 00e3 00010000 		.4byte	.LASF14
 1000 00e7 02       		.byte	0x2
 1001 00e8 32       		.byte	0x32
 1002 00e9 7A000000 		.4byte	0x7a
 1003 00ed 0A       		.uleb128 0xa
 1004 00ee DD000000 		.4byte	.LASF54
 1005 00f2 0C       		.byte	0xc
 1006 00f3 02       		.byte	0x2
 1007 00f4 34       		.byte	0x34
 1008 00f5 94010000 		.4byte	0x194
 1009 00f9 0B       		.uleb128 0xb
 1010 00fa C6000000 		.4byte	.LASF15
 1011 00fe 02       		.byte	0x2
 1012 00ff 36       		.byte	0x36
 1013 0100 30000000 		.4byte	0x30
 1014 0104 02       		.byte	0x2
 1015 0105 23       		.byte	0x23
 1016 0106 00       		.uleb128 0
 1017 0107 0B       		.uleb128 0xb
 1018 0108 37000000 		.4byte	.LASF16
 1019 010c 02       		.byte	0x2
 1020 010d 38       		.byte	0x38
 1021 010e 30000000 		.4byte	0x30
 1022 0112 02       		.byte	0x2
 1023 0113 23       		.byte	0x23
 1024 0114 01       		.uleb128 0x1
 1025 0115 0B       		.uleb128 0xb
 1026 0116 55010000 		.4byte	.LASF17
 1027 011a 02       		.byte	0x2
 1028 011b 39       		.byte	0x39
 1029 011c 30000000 		.4byte	0x30
 1030 0120 02       		.byte	0x2
 1031 0121 23       		.byte	0x23
 1032 0122 02       		.uleb128 0x2
 1033 0123 0B       		.uleb128 0xb
 1034 0124 FA000000 		.4byte	.LASF18
 1035 0128 02       		.byte	0x2
 1036 0129 3A       		.byte	0x3a
 1037 012a 30000000 		.4byte	0x30
 1038 012e 02       		.byte	0x2
 1039 012f 23       		.byte	0x23
 1040 0130 03       		.uleb128 0x3
 1041 0131 0B       		.uleb128 0xb
 1042 0132 19000000 		.4byte	.LASF19
 1043 0136 02       		.byte	0x2
 1044 0137 3C       		.byte	0x3c
 1045 0138 3E000000 		.4byte	0x3e
ARM GAS  C:\Users\Mariano\AppData\Local\Temp\cc5SrqNx.s 			page 24


 1046 013c 02       		.byte	0x2
 1047 013d 23       		.byte	0x23
 1048 013e 04       		.uleb128 0x4
 1049 013f 0B       		.uleb128 0xb
 1050 0140 8B020000 		.4byte	.LASF20
 1051 0144 02       		.byte	0x2
 1052 0145 3D       		.byte	0x3d
 1053 0146 30000000 		.4byte	0x30
 1054 014a 02       		.byte	0x2
 1055 014b 23       		.byte	0x23
 1056 014c 06       		.uleb128 0x6
 1057 014d 0B       		.uleb128 0xb
 1058 014e 34010000 		.4byte	.LASF21
 1059 0152 02       		.byte	0x2
 1060 0153 3E       		.byte	0x3e
 1061 0154 30000000 		.4byte	0x30
 1062 0158 02       		.byte	0x2
 1063 0159 23       		.byte	0x23
 1064 015a 07       		.uleb128 0x7
 1065 015b 0B       		.uleb128 0xb
 1066 015c 53020000 		.4byte	.LASF22
 1067 0160 02       		.byte	0x2
 1068 0161 41       		.byte	0x41
 1069 0162 30000000 		.4byte	0x30
 1070 0166 02       		.byte	0x2
 1071 0167 23       		.byte	0x23
 1072 0168 08       		.uleb128 0x8
 1073 0169 0B       		.uleb128 0xb
 1074 016a 61020000 		.4byte	.LASF23
 1075 016e 02       		.byte	0x2
 1076 016f 42       		.byte	0x42
 1077 0170 30000000 		.4byte	0x30
 1078 0174 02       		.byte	0x2
 1079 0175 23       		.byte	0x23
 1080 0176 09       		.uleb128 0x9
 1081 0177 0B       		.uleb128 0xb
 1082 0178 6F020000 		.4byte	.LASF24
 1083 017c 02       		.byte	0x2
 1084 017d 43       		.byte	0x43
 1085 017e 30000000 		.4byte	0x30
 1086 0182 02       		.byte	0x2
 1087 0183 23       		.byte	0x23
 1088 0184 0A       		.uleb128 0xa
 1089 0185 0B       		.uleb128 0xb
 1090 0186 7D020000 		.4byte	.LASF25
 1091 018a 02       		.byte	0x2
 1092 018b 44       		.byte	0x44
 1093 018c 30000000 		.4byte	0x30
 1094 0190 02       		.byte	0x2
 1095 0191 23       		.byte	0x23
 1096 0192 0B       		.uleb128 0xb
 1097 0193 00       		.byte	0
 1098 0194 03       		.uleb128 0x3
 1099 0195 06000000 		.4byte	.LASF26
 1100 0199 02       		.byte	0x2
 1101 019a 46       		.byte	0x46
 1102 019b ED000000 		.4byte	0xed
ARM GAS  C:\Users\Mariano\AppData\Local\Temp\cc5SrqNx.s 			page 25


 1103 019f 0C       		.uleb128 0xc
 1104 01a0 01       		.byte	0x1
 1105 01a1 02       		.byte	0x2
 1106 01a2 6C       		.byte	0x6c
 1107 01a3 B4010000 		.4byte	0x1b4
 1108 01a7 0D       		.uleb128 0xd
 1109 01a8 F3020000 		.4byte	.LASF27
 1110 01ac 00       		.sleb128 0
 1111 01ad 0D       		.uleb128 0xd
 1112 01ae EF010000 		.4byte	.LASF28
 1113 01b2 01       		.sleb128 1
 1114 01b3 00       		.byte	0
 1115 01b4 0E       		.uleb128 0xe
 1116 01b5 01       		.byte	0x1
 1117 01b6 2F000000 		.4byte	.LASF55
 1118 01ba 01       		.byte	0x1
 1119 01bb 3E       		.byte	0x3e
 1120 01bc 01       		.byte	0x1
 1121 01bd 30000000 		.4byte	0x30
 1122 01c1 00000000 		.4byte	.LFB20
 1123 01c5 18000000 		.4byte	.LFE20
 1124 01c9 02       		.byte	0x2
 1125 01ca 7D       		.byte	0x7d
 1126 01cb 00       		.sleb128 0
 1127 01cc 01       		.byte	0x1
 1128 01cd 0F       		.uleb128 0xf
 1129 01ce 01       		.byte	0x1
 1130 01cf B1000000 		.4byte	.LASF29
 1131 01d3 01       		.byte	0x1
 1132 01d4 46       		.byte	0x46
 1133 01d5 01       		.byte	0x1
 1134 01d6 30000000 		.4byte	0x30
 1135 01da 00000000 		.4byte	.LFB21
 1136 01de 48000000 		.4byte	.LFE21
 1137 01e2 00000000 		.4byte	.LLST0
 1138 01e6 01       		.byte	0x1
 1139 01e7 FA010000 		.4byte	0x1fa
 1140 01eb 10       		.uleb128 0x10
 1141 01ec 4D000000 		.4byte	.LASF34
 1142 01f0 01       		.byte	0x1
 1143 01f1 48       		.byte	0x48
 1144 01f2 30000000 		.4byte	0x30
 1145 01f6 02       		.byte	0x2
 1146 01f7 91       		.byte	0x91
 1147 01f8 77       		.sleb128 -9
 1148 01f9 00       		.byte	0
 1149 01fa 0F       		.uleb128 0xf
 1150 01fb 01       		.byte	0x1
 1151 01fc 1B030000 		.4byte	.LASF30
 1152 0200 01       		.byte	0x1
 1153 0201 65       		.byte	0x65
 1154 0202 01       		.byte	0x1
 1155 0203 30000000 		.4byte	0x30
 1156 0207 00000000 		.4byte	.LFB22
 1157 020b B4010000 		.4byte	.LFE22
 1158 020f 2C000000 		.4byte	.LLST1
 1159 0213 01       		.byte	0x1
ARM GAS  C:\Users\Mariano\AppData\Local\Temp\cc5SrqNx.s 			page 26


 1160 0214 35020000 		.4byte	0x235
 1161 0218 11       		.uleb128 0x11
 1162 0219 4C010000 		.4byte	.LASF31
 1163 021d 01       		.byte	0x1
 1164 021e 65       		.byte	0x65
 1165 021f 3E000000 		.4byte	0x3e
 1166 0223 02       		.byte	0x2
 1167 0224 91       		.byte	0x91
 1168 0225 76       		.sleb128 -10
 1169 0226 11       		.uleb128 0x11
 1170 0227 3B010000 		.4byte	.LASF32
 1171 022b 01       		.byte	0x1
 1172 022c 65       		.byte	0x65
 1173 022d 73000000 		.4byte	0x73
 1174 0231 02       		.byte	0x2
 1175 0232 91       		.byte	0x91
 1176 0233 70       		.sleb128 -16
 1177 0234 00       		.byte	0
 1178 0235 12       		.uleb128 0x12
 1179 0236 01       		.byte	0x1
 1180 0237 C6010000 		.4byte	.LASF35
 1181 023b 01       		.byte	0x1
 1182 023c A4       		.byte	0xa4
 1183 023d 01       		.byte	0x1
 1184 023e 00000000 		.4byte	.LFB23
 1185 0242 48000000 		.4byte	.LFE23
 1186 0246 58000000 		.4byte	.LLST2
 1187 024a 01       		.byte	0x1
 1188 024b 76020000 		.4byte	0x276
 1189 024f 13       		.uleb128 0x13
 1190 0250 7000     		.ascii	"p\000"
 1191 0252 01       		.byte	0x1
 1192 0253 A4       		.byte	0xa4
 1193 0254 76020000 		.4byte	0x276
 1194 0258 02       		.byte	0x2
 1195 0259 91       		.byte	0x91
 1196 025a 74       		.sleb128 -12
 1197 025b 11       		.uleb128 0x11
 1198 025c 52000000 		.4byte	.LASF33
 1199 0260 01       		.byte	0x1
 1200 0261 A4       		.byte	0xa4
 1201 0262 76020000 		.4byte	0x276
 1202 0266 02       		.byte	0x2
 1203 0267 91       		.byte	0x91
 1204 0268 70       		.sleb128 -16
 1205 0269 14       		.uleb128 0x14
 1206 026a 6900     		.ascii	"i\000"
 1207 026c 01       		.byte	0x1
 1208 026d A6       		.byte	0xa6
 1209 026e 3E000000 		.4byte	0x3e
 1210 0272 02       		.byte	0x2
 1211 0273 91       		.byte	0x91
 1212 0274 7E       		.sleb128 -2
 1213 0275 00       		.byte	0
 1214 0276 15       		.uleb128 0x15
 1215 0277 04       		.byte	0x4
 1216 0278 73000000 		.4byte	0x73
ARM GAS  C:\Users\Mariano\AppData\Local\Temp\cc5SrqNx.s 			page 27


 1217 027c 16       		.uleb128 0x16
 1218 027d 01       		.byte	0x1
 1219 027e A7000000 		.4byte	.LASF36
 1220 0282 01       		.byte	0x1
 1221 0283 AE       		.byte	0xae
 1222 0284 01       		.byte	0x1
 1223 0285 00000000 		.4byte	.LFB24
 1224 0289 2C000000 		.4byte	.LFE24
 1225 028d 78000000 		.4byte	.LLST3
 1226 0291 01       		.byte	0x1
 1227 0292 B3020000 		.4byte	0x2b3
 1228 0296 11       		.uleb128 0x11
 1229 0297 E8010000 		.4byte	.LASF37
 1230 029b 01       		.byte	0x1
 1231 029c AE       		.byte	0xae
 1232 029d 4C000000 		.4byte	0x4c
 1233 02a1 02       		.byte	0x2
 1234 02a2 91       		.byte	0x91
 1235 02a3 74       		.sleb128 -12
 1236 02a4 11       		.uleb128 0x11
 1237 02a5 A6020000 		.4byte	.LASF38
 1238 02a9 01       		.byte	0x1
 1239 02aa AE       		.byte	0xae
 1240 02ab 30000000 		.4byte	0x30
 1241 02af 02       		.byte	0x2
 1242 02b0 91       		.byte	0x91
 1243 02b1 73       		.sleb128 -13
 1244 02b2 00       		.byte	0
 1245 02b3 17       		.uleb128 0x17
 1246 02b4 01       		.byte	0x1
 1247 02b5 10010000 		.4byte	.LASF39
 1248 02b9 01       		.byte	0x1
 1249 02ba B6       		.byte	0xb6
 1250 02bb 01       		.byte	0x1
 1251 02bc 30000000 		.4byte	0x30
 1252 02c0 00000000 		.4byte	.LFB25
 1253 02c4 34000000 		.4byte	.LFE25
 1254 02c8 A4000000 		.4byte	.LLST4
 1255 02cc 01       		.byte	0x1
 1256 02cd FA020000 		.4byte	0x2fa
 1257 02d1 13       		.uleb128 0x13
 1258 02d2 7000     		.ascii	"p\000"
 1259 02d4 01       		.byte	0x1
 1260 02d5 B6       		.byte	0xb6
 1261 02d6 76020000 		.4byte	0x276
 1262 02da 02       		.byte	0x2
 1263 02db 91       		.byte	0x91
 1264 02dc 7C       		.sleb128 -4
 1265 02dd 11       		.uleb128 0x11
 1266 02de 74000000 		.4byte	.LASF40
 1267 02e2 01       		.byte	0x1
 1268 02e3 B6       		.byte	0xb6
 1269 02e4 3E000000 		.4byte	0x3e
 1270 02e8 02       		.byte	0x2
 1271 02e9 91       		.byte	0x91
 1272 02ea 7A       		.sleb128 -6
 1273 02eb 11       		.uleb128 0x11
ARM GAS  C:\Users\Mariano\AppData\Local\Temp\cc5SrqNx.s 			page 28


 1274 02ec 3B010000 		.4byte	.LASF32
 1275 02f0 01       		.byte	0x1
 1276 02f1 B6       		.byte	0xb6
 1277 02f2 73000000 		.4byte	0x73
 1278 02f6 02       		.byte	0x2
 1279 02f7 91       		.byte	0x91
 1280 02f8 74       		.sleb128 -12
 1281 02f9 00       		.byte	0
 1282 02fa 0F       		.uleb128 0xf
 1283 02fb 01       		.byte	0x1
 1284 02fc 87000000 		.4byte	.LASF41
 1285 0300 01       		.byte	0x1
 1286 0301 C0       		.byte	0xc0
 1287 0302 01       		.byte	0x1
 1288 0303 30000000 		.4byte	0x30
 1289 0307 00000000 		.4byte	.LFB26
 1290 030b AE000000 		.4byte	.LFE26
 1291 030f C4000000 		.4byte	.LLST5
 1292 0313 01       		.byte	0x1
 1293 0314 5B030000 		.4byte	0x35b
 1294 0318 13       		.uleb128 0x13
 1295 0319 7000     		.ascii	"p\000"
 1296 031b 01       		.byte	0x1
 1297 031c C0       		.byte	0xc0
 1298 031d 76020000 		.4byte	0x276
 1299 0321 02       		.byte	0x2
 1300 0322 91       		.byte	0x91
 1301 0323 6C       		.sleb128 -20
 1302 0324 11       		.uleb128 0x11
 1303 0325 E8010000 		.4byte	.LASF37
 1304 0329 01       		.byte	0x1
 1305 032a C0       		.byte	0xc0
 1306 032b 4C000000 		.4byte	0x4c
 1307 032f 02       		.byte	0x2
 1308 0330 91       		.byte	0x91
 1309 0331 68       		.sleb128 -24
 1310 0332 11       		.uleb128 0x11
 1311 0333 A6020000 		.4byte	.LASF38
 1312 0337 01       		.byte	0x1
 1313 0338 C0       		.byte	0xc0
 1314 0339 30000000 		.4byte	0x30
 1315 033d 02       		.byte	0x2
 1316 033e 91       		.byte	0x91
 1317 033f 67       		.sleb128 -25
 1318 0340 14       		.uleb128 0x14
 1319 0341 6900     		.ascii	"i\000"
 1320 0343 01       		.byte	0x1
 1321 0344 C2       		.byte	0xc2
 1322 0345 3E000000 		.4byte	0x3e
 1323 0349 02       		.byte	0x2
 1324 034a 91       		.byte	0x91
 1325 034b 76       		.sleb128 -10
 1326 034c 10       		.uleb128 0x10
 1327 034d 91000000 		.4byte	.LASF42
 1328 0351 01       		.byte	0x1
 1329 0352 C3       		.byte	0xc3
 1330 0353 76020000 		.4byte	0x276
ARM GAS  C:\Users\Mariano\AppData\Local\Temp\cc5SrqNx.s 			page 29


 1331 0357 02       		.byte	0x2
 1332 0358 91       		.byte	0x91
 1333 0359 70       		.sleb128 -16
 1334 035a 00       		.byte	0
 1335 035b 0F       		.uleb128 0xf
 1336 035c 01       		.byte	0x1
 1337 035d B8020000 		.4byte	.LASF43
 1338 0361 01       		.byte	0x1
 1339 0362 DA       		.byte	0xda
 1340 0363 01       		.byte	0x1
 1341 0364 30000000 		.4byte	0x30
 1342 0368 00000000 		.4byte	.LFB27
 1343 036c 3C000000 		.4byte	.LFE27
 1344 0370 F0000000 		.4byte	.LLST6
 1345 0374 01       		.byte	0x1
 1346 0375 88030000 		.4byte	0x388
 1347 0379 10       		.uleb128 0x10
 1348 037a 44010000 		.4byte	.LASF44
 1349 037e 01       		.byte	0x1
 1350 037f DC       		.byte	0xdc
 1351 0380 88030000 		.4byte	0x388
 1352 0384 02       		.byte	0x2
 1353 0385 91       		.byte	0x91
 1354 0386 74       		.sleb128 -12
 1355 0387 00       		.byte	0
 1356 0388 15       		.uleb128 0x15
 1357 0389 04       		.byte	0x4
 1358 038a 94010000 		.4byte	0x194
 1359 038e 0F       		.uleb128 0xf
 1360 038f 01       		.byte	0x1
 1361 0390 03030000 		.4byte	.LASF45
 1362 0394 01       		.byte	0x1
 1363 0395 E9       		.byte	0xe9
 1364 0396 01       		.byte	0x1
 1365 0397 30000000 		.4byte	0x30
 1366 039b 00000000 		.4byte	.LFB28
 1367 039f C8000000 		.4byte	.LFE28
 1368 03a3 1C010000 		.4byte	.LLST7
 1369 03a7 01       		.byte	0x1
 1370 03a8 FD030000 		.4byte	0x3fd
 1371 03ac 13       		.uleb128 0x13
 1372 03ad 7000     		.ascii	"p\000"
 1373 03af 01       		.byte	0x1
 1374 03b0 E9       		.byte	0xe9
 1375 03b1 76020000 		.4byte	0x276
 1376 03b5 02       		.byte	0x2
 1377 03b6 91       		.byte	0x91
 1378 03b7 6C       		.sleb128 -20
 1379 03b8 11       		.uleb128 0x11
 1380 03b9 E8010000 		.4byte	.LASF37
 1381 03bd 01       		.byte	0x1
 1382 03be E9       		.byte	0xe9
 1383 03bf 4C000000 		.4byte	0x4c
 1384 03c3 02       		.byte	0x2
 1385 03c4 91       		.byte	0x91
 1386 03c5 68       		.sleb128 -24
 1387 03c6 11       		.uleb128 0x11
ARM GAS  C:\Users\Mariano\AppData\Local\Temp\cc5SrqNx.s 			page 30


 1388 03c7 A6020000 		.4byte	.LASF38
 1389 03cb 01       		.byte	0x1
 1390 03cc E9       		.byte	0xe9
 1391 03cd 30000000 		.4byte	0x30
 1392 03d1 02       		.byte	0x2
 1393 03d2 91       		.byte	0x91
 1394 03d3 67       		.sleb128 -25
 1395 03d4 11       		.uleb128 0x11
 1396 03d5 FA020000 		.4byte	.LASF46
 1397 03d9 01       		.byte	0x1
 1398 03da E9       		.byte	0xe9
 1399 03db 30000000 		.4byte	0x30
 1400 03df 02       		.byte	0x2
 1401 03e0 91       		.byte	0x91
 1402 03e1 66       		.sleb128 -26
 1403 03e2 14       		.uleb128 0x14
 1404 03e3 6900     		.ascii	"i\000"
 1405 03e5 01       		.byte	0x1
 1406 03e6 EB       		.byte	0xeb
 1407 03e7 3E000000 		.4byte	0x3e
 1408 03eb 02       		.byte	0x2
 1409 03ec 91       		.byte	0x91
 1410 03ed 76       		.sleb128 -10
 1411 03ee 10       		.uleb128 0x10
 1412 03ef 91000000 		.4byte	.LASF42
 1413 03f3 01       		.byte	0x1
 1414 03f4 EC       		.byte	0xec
 1415 03f5 76020000 		.4byte	0x276
 1416 03f9 02       		.byte	0x2
 1417 03fa 91       		.byte	0x91
 1418 03fb 70       		.sleb128 -16
 1419 03fc 00       		.byte	0
 1420 03fd 18       		.uleb128 0x18
 1421 03fe 0E030000 		.4byte	.LASF47
 1422 0402 01       		.byte	0x1
 1423 0403 30       		.byte	0x30
 1424 0404 94010000 		.4byte	0x194
 1425 0408 01       		.byte	0x1
 1426 0409 01       		.byte	0x1
 1427 040a 18       		.uleb128 0x18
 1428 040b 79000000 		.4byte	.LASF48
 1429 040f 01       		.byte	0x1
 1430 0410 31       		.byte	0x31
 1431 0411 E2000000 		.4byte	0xe2
 1432 0415 01       		.byte	0x1
 1433 0416 01       		.byte	0x1
 1434 0417 19       		.uleb128 0x19
 1435 0418 6F000000 		.4byte	.LASF49
 1436 041c 01       		.byte	0x1
 1437 041d 39       		.byte	0x39
 1438 041e 76020000 		.4byte	0x276
 1439 0422 01       		.byte	0x1
 1440 0423 05       		.byte	0x5
 1441 0424 03       		.byte	0x3
 1442 0425 00000000 		.4byte	pmem
 1443 0429 00       		.byte	0
 1444              		.section	.debug_abbrev,"",%progbits
ARM GAS  C:\Users\Mariano\AppData\Local\Temp\cc5SrqNx.s 			page 31


 1445              	.Ldebug_abbrev0:
 1446 0000 01       		.uleb128 0x1
 1447 0001 11       		.uleb128 0x11
 1448 0002 01       		.byte	0x1
 1449 0003 25       		.uleb128 0x25
 1450 0004 0E       		.uleb128 0xe
 1451 0005 13       		.uleb128 0x13
 1452 0006 0B       		.uleb128 0xb
 1453 0007 03       		.uleb128 0x3
 1454 0008 0E       		.uleb128 0xe
 1455 0009 1B       		.uleb128 0x1b
 1456 000a 0E       		.uleb128 0xe
 1457 000b 55       		.uleb128 0x55
 1458 000c 06       		.uleb128 0x6
 1459 000d 11       		.uleb128 0x11
 1460 000e 01       		.uleb128 0x1
 1461 000f 52       		.uleb128 0x52
 1462 0010 01       		.uleb128 0x1
 1463 0011 10       		.uleb128 0x10
 1464 0012 06       		.uleb128 0x6
 1465 0013 00       		.byte	0
 1466 0014 00       		.byte	0
 1467 0015 02       		.uleb128 0x2
 1468 0016 24       		.uleb128 0x24
 1469 0017 00       		.byte	0
 1470 0018 0B       		.uleb128 0xb
 1471 0019 0B       		.uleb128 0xb
 1472 001a 3E       		.uleb128 0x3e
 1473 001b 0B       		.uleb128 0xb
 1474 001c 03       		.uleb128 0x3
 1475 001d 0E       		.uleb128 0xe
 1476 001e 00       		.byte	0
 1477 001f 00       		.byte	0
 1478 0020 03       		.uleb128 0x3
 1479 0021 16       		.uleb128 0x16
 1480 0022 00       		.byte	0
 1481 0023 03       		.uleb128 0x3
 1482 0024 0E       		.uleb128 0xe
 1483 0025 3A       		.uleb128 0x3a
 1484 0026 0B       		.uleb128 0xb
 1485 0027 3B       		.uleb128 0x3b
 1486 0028 0B       		.uleb128 0xb
 1487 0029 49       		.uleb128 0x49
 1488 002a 13       		.uleb128 0x13
 1489 002b 00       		.byte	0
 1490 002c 00       		.byte	0
 1491 002d 04       		.uleb128 0x4
 1492 002e 24       		.uleb128 0x24
 1493 002f 00       		.byte	0
 1494 0030 0B       		.uleb128 0xb
 1495 0031 0B       		.uleb128 0xb
 1496 0032 3E       		.uleb128 0x3e
 1497 0033 0B       		.uleb128 0xb
 1498 0034 03       		.uleb128 0x3
 1499 0035 08       		.uleb128 0x8
 1500 0036 00       		.byte	0
 1501 0037 00       		.byte	0
ARM GAS  C:\Users\Mariano\AppData\Local\Temp\cc5SrqNx.s 			page 32


 1502 0038 05       		.uleb128 0x5
 1503 0039 17       		.uleb128 0x17
 1504 003a 01       		.byte	0x1
 1505 003b 03       		.uleb128 0x3
 1506 003c 0E       		.uleb128 0xe
 1507 003d 0B       		.uleb128 0xb
 1508 003e 05       		.uleb128 0x5
 1509 003f 3A       		.uleb128 0x3a
 1510 0040 0B       		.uleb128 0xb
 1511 0041 3B       		.uleb128 0x3b
 1512 0042 0B       		.uleb128 0xb
 1513 0043 01       		.uleb128 0x1
 1514 0044 13       		.uleb128 0x13
 1515 0045 00       		.byte	0
 1516 0046 00       		.byte	0
 1517 0047 06       		.uleb128 0x6
 1518 0048 0D       		.uleb128 0xd
 1519 0049 00       		.byte	0
 1520 004a 03       		.uleb128 0x3
 1521 004b 0E       		.uleb128 0xe
 1522 004c 3A       		.uleb128 0x3a
 1523 004d 0B       		.uleb128 0xb
 1524 004e 3B       		.uleb128 0x3b
 1525 004f 0B       		.uleb128 0xb
 1526 0050 49       		.uleb128 0x49
 1527 0051 13       		.uleb128 0x13
 1528 0052 00       		.byte	0
 1529 0053 00       		.byte	0
 1530 0054 07       		.uleb128 0x7
 1531 0055 01       		.uleb128 0x1
 1532 0056 01       		.byte	0x1
 1533 0057 49       		.uleb128 0x49
 1534 0058 13       		.uleb128 0x13
 1535 0059 01       		.uleb128 0x1
 1536 005a 13       		.uleb128 0x13
 1537 005b 00       		.byte	0
 1538 005c 00       		.byte	0
 1539 005d 08       		.uleb128 0x8
 1540 005e 21       		.uleb128 0x21
 1541 005f 00       		.byte	0
 1542 0060 49       		.uleb128 0x49
 1543 0061 13       		.uleb128 0x13
 1544 0062 2F       		.uleb128 0x2f
 1545 0063 0B       		.uleb128 0xb
 1546 0064 00       		.byte	0
 1547 0065 00       		.byte	0
 1548 0066 09       		.uleb128 0x9
 1549 0067 21       		.uleb128 0x21
 1550 0068 00       		.byte	0
 1551 0069 49       		.uleb128 0x49
 1552 006a 13       		.uleb128 0x13
 1553 006b 2F       		.uleb128 0x2f
 1554 006c 05       		.uleb128 0x5
 1555 006d 00       		.byte	0
 1556 006e 00       		.byte	0
 1557 006f 0A       		.uleb128 0xa
 1558 0070 13       		.uleb128 0x13
ARM GAS  C:\Users\Mariano\AppData\Local\Temp\cc5SrqNx.s 			page 33


 1559 0071 01       		.byte	0x1
 1560 0072 03       		.uleb128 0x3
 1561 0073 0E       		.uleb128 0xe
 1562 0074 0B       		.uleb128 0xb
 1563 0075 0B       		.uleb128 0xb
 1564 0076 3A       		.uleb128 0x3a
 1565 0077 0B       		.uleb128 0xb
 1566 0078 3B       		.uleb128 0x3b
 1567 0079 0B       		.uleb128 0xb
 1568 007a 01       		.uleb128 0x1
 1569 007b 13       		.uleb128 0x13
 1570 007c 00       		.byte	0
 1571 007d 00       		.byte	0
 1572 007e 0B       		.uleb128 0xb
 1573 007f 0D       		.uleb128 0xd
 1574 0080 00       		.byte	0
 1575 0081 03       		.uleb128 0x3
 1576 0082 0E       		.uleb128 0xe
 1577 0083 3A       		.uleb128 0x3a
 1578 0084 0B       		.uleb128 0xb
 1579 0085 3B       		.uleb128 0x3b
 1580 0086 0B       		.uleb128 0xb
 1581 0087 49       		.uleb128 0x49
 1582 0088 13       		.uleb128 0x13
 1583 0089 38       		.uleb128 0x38
 1584 008a 0A       		.uleb128 0xa
 1585 008b 00       		.byte	0
 1586 008c 00       		.byte	0
 1587 008d 0C       		.uleb128 0xc
 1588 008e 04       		.uleb128 0x4
 1589 008f 01       		.byte	0x1
 1590 0090 0B       		.uleb128 0xb
 1591 0091 0B       		.uleb128 0xb
 1592 0092 3A       		.uleb128 0x3a
 1593 0093 0B       		.uleb128 0xb
 1594 0094 3B       		.uleb128 0x3b
 1595 0095 0B       		.uleb128 0xb
 1596 0096 01       		.uleb128 0x1
 1597 0097 13       		.uleb128 0x13
 1598 0098 00       		.byte	0
 1599 0099 00       		.byte	0
 1600 009a 0D       		.uleb128 0xd
 1601 009b 28       		.uleb128 0x28
 1602 009c 00       		.byte	0
 1603 009d 03       		.uleb128 0x3
 1604 009e 0E       		.uleb128 0xe
 1605 009f 1C       		.uleb128 0x1c
 1606 00a0 0D       		.uleb128 0xd
 1607 00a1 00       		.byte	0
 1608 00a2 00       		.byte	0
 1609 00a3 0E       		.uleb128 0xe
 1610 00a4 2E       		.uleb128 0x2e
 1611 00a5 00       		.byte	0
 1612 00a6 3F       		.uleb128 0x3f
 1613 00a7 0C       		.uleb128 0xc
 1614 00a8 03       		.uleb128 0x3
 1615 00a9 0E       		.uleb128 0xe
ARM GAS  C:\Users\Mariano\AppData\Local\Temp\cc5SrqNx.s 			page 34


 1616 00aa 3A       		.uleb128 0x3a
 1617 00ab 0B       		.uleb128 0xb
 1618 00ac 3B       		.uleb128 0x3b
 1619 00ad 0B       		.uleb128 0xb
 1620 00ae 27       		.uleb128 0x27
 1621 00af 0C       		.uleb128 0xc
 1622 00b0 49       		.uleb128 0x49
 1623 00b1 13       		.uleb128 0x13
 1624 00b2 11       		.uleb128 0x11
 1625 00b3 01       		.uleb128 0x1
 1626 00b4 12       		.uleb128 0x12
 1627 00b5 01       		.uleb128 0x1
 1628 00b6 40       		.uleb128 0x40
 1629 00b7 0A       		.uleb128 0xa
 1630 00b8 9742     		.uleb128 0x2117
 1631 00ba 0C       		.uleb128 0xc
 1632 00bb 00       		.byte	0
 1633 00bc 00       		.byte	0
 1634 00bd 0F       		.uleb128 0xf
 1635 00be 2E       		.uleb128 0x2e
 1636 00bf 01       		.byte	0x1
 1637 00c0 3F       		.uleb128 0x3f
 1638 00c1 0C       		.uleb128 0xc
 1639 00c2 03       		.uleb128 0x3
 1640 00c3 0E       		.uleb128 0xe
 1641 00c4 3A       		.uleb128 0x3a
 1642 00c5 0B       		.uleb128 0xb
 1643 00c6 3B       		.uleb128 0x3b
 1644 00c7 0B       		.uleb128 0xb
 1645 00c8 27       		.uleb128 0x27
 1646 00c9 0C       		.uleb128 0xc
 1647 00ca 49       		.uleb128 0x49
 1648 00cb 13       		.uleb128 0x13
 1649 00cc 11       		.uleb128 0x11
 1650 00cd 01       		.uleb128 0x1
 1651 00ce 12       		.uleb128 0x12
 1652 00cf 01       		.uleb128 0x1
 1653 00d0 40       		.uleb128 0x40
 1654 00d1 06       		.uleb128 0x6
 1655 00d2 9642     		.uleb128 0x2116
 1656 00d4 0C       		.uleb128 0xc
 1657 00d5 01       		.uleb128 0x1
 1658 00d6 13       		.uleb128 0x13
 1659 00d7 00       		.byte	0
 1660 00d8 00       		.byte	0
 1661 00d9 10       		.uleb128 0x10
 1662 00da 34       		.uleb128 0x34
 1663 00db 00       		.byte	0
 1664 00dc 03       		.uleb128 0x3
 1665 00dd 0E       		.uleb128 0xe
 1666 00de 3A       		.uleb128 0x3a
 1667 00df 0B       		.uleb128 0xb
 1668 00e0 3B       		.uleb128 0x3b
 1669 00e1 0B       		.uleb128 0xb
 1670 00e2 49       		.uleb128 0x49
 1671 00e3 13       		.uleb128 0x13
 1672 00e4 02       		.uleb128 0x2
ARM GAS  C:\Users\Mariano\AppData\Local\Temp\cc5SrqNx.s 			page 35


 1673 00e5 0A       		.uleb128 0xa
 1674 00e6 00       		.byte	0
 1675 00e7 00       		.byte	0
 1676 00e8 11       		.uleb128 0x11
 1677 00e9 05       		.uleb128 0x5
 1678 00ea 00       		.byte	0
 1679 00eb 03       		.uleb128 0x3
 1680 00ec 0E       		.uleb128 0xe
 1681 00ed 3A       		.uleb128 0x3a
 1682 00ee 0B       		.uleb128 0xb
 1683 00ef 3B       		.uleb128 0x3b
 1684 00f0 0B       		.uleb128 0xb
 1685 00f1 49       		.uleb128 0x49
 1686 00f2 13       		.uleb128 0x13
 1687 00f3 02       		.uleb128 0x2
 1688 00f4 0A       		.uleb128 0xa
 1689 00f5 00       		.byte	0
 1690 00f6 00       		.byte	0
 1691 00f7 12       		.uleb128 0x12
 1692 00f8 2E       		.uleb128 0x2e
 1693 00f9 01       		.byte	0x1
 1694 00fa 3F       		.uleb128 0x3f
 1695 00fb 0C       		.uleb128 0xc
 1696 00fc 03       		.uleb128 0x3
 1697 00fd 0E       		.uleb128 0xe
 1698 00fe 3A       		.uleb128 0x3a
 1699 00ff 0B       		.uleb128 0xb
 1700 0100 3B       		.uleb128 0x3b
 1701 0101 0B       		.uleb128 0xb
 1702 0102 27       		.uleb128 0x27
 1703 0103 0C       		.uleb128 0xc
 1704 0104 11       		.uleb128 0x11
 1705 0105 01       		.uleb128 0x1
 1706 0106 12       		.uleb128 0x12
 1707 0107 01       		.uleb128 0x1
 1708 0108 40       		.uleb128 0x40
 1709 0109 06       		.uleb128 0x6
 1710 010a 9742     		.uleb128 0x2117
 1711 010c 0C       		.uleb128 0xc
 1712 010d 01       		.uleb128 0x1
 1713 010e 13       		.uleb128 0x13
 1714 010f 00       		.byte	0
 1715 0110 00       		.byte	0
 1716 0111 13       		.uleb128 0x13
 1717 0112 05       		.uleb128 0x5
 1718 0113 00       		.byte	0
 1719 0114 03       		.uleb128 0x3
 1720 0115 08       		.uleb128 0x8
 1721 0116 3A       		.uleb128 0x3a
 1722 0117 0B       		.uleb128 0xb
 1723 0118 3B       		.uleb128 0x3b
 1724 0119 0B       		.uleb128 0xb
 1725 011a 49       		.uleb128 0x49
 1726 011b 13       		.uleb128 0x13
 1727 011c 02       		.uleb128 0x2
 1728 011d 0A       		.uleb128 0xa
 1729 011e 00       		.byte	0
ARM GAS  C:\Users\Mariano\AppData\Local\Temp\cc5SrqNx.s 			page 36


 1730 011f 00       		.byte	0
 1731 0120 14       		.uleb128 0x14
 1732 0121 34       		.uleb128 0x34
 1733 0122 00       		.byte	0
 1734 0123 03       		.uleb128 0x3
 1735 0124 08       		.uleb128 0x8
 1736 0125 3A       		.uleb128 0x3a
 1737 0126 0B       		.uleb128 0xb
 1738 0127 3B       		.uleb128 0x3b
 1739 0128 0B       		.uleb128 0xb
 1740 0129 49       		.uleb128 0x49
 1741 012a 13       		.uleb128 0x13
 1742 012b 02       		.uleb128 0x2
 1743 012c 0A       		.uleb128 0xa
 1744 012d 00       		.byte	0
 1745 012e 00       		.byte	0
 1746 012f 15       		.uleb128 0x15
 1747 0130 0F       		.uleb128 0xf
 1748 0131 00       		.byte	0
 1749 0132 0B       		.uleb128 0xb
 1750 0133 0B       		.uleb128 0xb
 1751 0134 49       		.uleb128 0x49
 1752 0135 13       		.uleb128 0x13
 1753 0136 00       		.byte	0
 1754 0137 00       		.byte	0
 1755 0138 16       		.uleb128 0x16
 1756 0139 2E       		.uleb128 0x2e
 1757 013a 01       		.byte	0x1
 1758 013b 3F       		.uleb128 0x3f
 1759 013c 0C       		.uleb128 0xc
 1760 013d 03       		.uleb128 0x3
 1761 013e 0E       		.uleb128 0xe
 1762 013f 3A       		.uleb128 0x3a
 1763 0140 0B       		.uleb128 0xb
 1764 0141 3B       		.uleb128 0x3b
 1765 0142 0B       		.uleb128 0xb
 1766 0143 27       		.uleb128 0x27
 1767 0144 0C       		.uleb128 0xc
 1768 0145 11       		.uleb128 0x11
 1769 0146 01       		.uleb128 0x1
 1770 0147 12       		.uleb128 0x12
 1771 0148 01       		.uleb128 0x1
 1772 0149 40       		.uleb128 0x40
 1773 014a 06       		.uleb128 0x6
 1774 014b 9642     		.uleb128 0x2116
 1775 014d 0C       		.uleb128 0xc
 1776 014e 01       		.uleb128 0x1
 1777 014f 13       		.uleb128 0x13
 1778 0150 00       		.byte	0
 1779 0151 00       		.byte	0
 1780 0152 17       		.uleb128 0x17
 1781 0153 2E       		.uleb128 0x2e
 1782 0154 01       		.byte	0x1
 1783 0155 3F       		.uleb128 0x3f
 1784 0156 0C       		.uleb128 0xc
 1785 0157 03       		.uleb128 0x3
 1786 0158 0E       		.uleb128 0xe
ARM GAS  C:\Users\Mariano\AppData\Local\Temp\cc5SrqNx.s 			page 37


 1787 0159 3A       		.uleb128 0x3a
 1788 015a 0B       		.uleb128 0xb
 1789 015b 3B       		.uleb128 0x3b
 1790 015c 0B       		.uleb128 0xb
 1791 015d 27       		.uleb128 0x27
 1792 015e 0C       		.uleb128 0xc
 1793 015f 49       		.uleb128 0x49
 1794 0160 13       		.uleb128 0x13
 1795 0161 11       		.uleb128 0x11
 1796 0162 01       		.uleb128 0x1
 1797 0163 12       		.uleb128 0x12
 1798 0164 01       		.uleb128 0x1
 1799 0165 40       		.uleb128 0x40
 1800 0166 06       		.uleb128 0x6
 1801 0167 9742     		.uleb128 0x2117
 1802 0169 0C       		.uleb128 0xc
 1803 016a 01       		.uleb128 0x1
 1804 016b 13       		.uleb128 0x13
 1805 016c 00       		.byte	0
 1806 016d 00       		.byte	0
 1807 016e 18       		.uleb128 0x18
 1808 016f 34       		.uleb128 0x34
 1809 0170 00       		.byte	0
 1810 0171 03       		.uleb128 0x3
 1811 0172 0E       		.uleb128 0xe
 1812 0173 3A       		.uleb128 0x3a
 1813 0174 0B       		.uleb128 0xb
 1814 0175 3B       		.uleb128 0x3b
 1815 0176 0B       		.uleb128 0xb
 1816 0177 49       		.uleb128 0x49
 1817 0178 13       		.uleb128 0x13
 1818 0179 3F       		.uleb128 0x3f
 1819 017a 0C       		.uleb128 0xc
 1820 017b 3C       		.uleb128 0x3c
 1821 017c 0C       		.uleb128 0xc
 1822 017d 00       		.byte	0
 1823 017e 00       		.byte	0
 1824 017f 19       		.uleb128 0x19
 1825 0180 34       		.uleb128 0x34
 1826 0181 00       		.byte	0
 1827 0182 03       		.uleb128 0x3
 1828 0183 0E       		.uleb128 0xe
 1829 0184 3A       		.uleb128 0x3a
 1830 0185 0B       		.uleb128 0xb
 1831 0186 3B       		.uleb128 0x3b
 1832 0187 0B       		.uleb128 0xb
 1833 0188 49       		.uleb128 0x49
 1834 0189 13       		.uleb128 0x13
 1835 018a 3F       		.uleb128 0x3f
 1836 018b 0C       		.uleb128 0xc
 1837 018c 02       		.uleb128 0x2
 1838 018d 0A       		.uleb128 0xa
 1839 018e 00       		.byte	0
 1840 018f 00       		.byte	0
 1841 0190 00       		.byte	0
 1842              		.section	.debug_loc,"",%progbits
 1843              	.Ldebug_loc0:
ARM GAS  C:\Users\Mariano\AppData\Local\Temp\cc5SrqNx.s 			page 38


 1844              	.LLST0:
 1845 0000 00000000 		.4byte	.LFB21
 1846 0004 02000000 		.4byte	.LCFI0
 1847 0008 0200     		.2byte	0x2
 1848 000a 7D       		.byte	0x7d
 1849 000b 00       		.sleb128 0
 1850 000c 02000000 		.4byte	.LCFI0
 1851 0010 04000000 		.4byte	.LCFI1
 1852 0014 0200     		.2byte	0x2
 1853 0016 7D       		.byte	0x7d
 1854 0017 04       		.sleb128 4
 1855 0018 04000000 		.4byte	.LCFI1
 1856 001c 48000000 		.4byte	.LFE21
 1857 0020 0200     		.2byte	0x2
 1858 0022 7D       		.byte	0x7d
 1859 0023 10       		.sleb128 16
 1860 0024 00000000 		.4byte	0
 1861 0028 00000000 		.4byte	0
 1862              	.LLST1:
 1863 002c 00000000 		.4byte	.LFB22
 1864 0030 02000000 		.4byte	.LCFI2
 1865 0034 0200     		.2byte	0x2
 1866 0036 7D       		.byte	0x7d
 1867 0037 00       		.sleb128 0
 1868 0038 02000000 		.4byte	.LCFI2
 1869 003c 04000000 		.4byte	.LCFI3
 1870 0040 0200     		.2byte	0x2
 1871 0042 7D       		.byte	0x7d
 1872 0043 04       		.sleb128 4
 1873 0044 04000000 		.4byte	.LCFI3
 1874 0048 B4010000 		.4byte	.LFE22
 1875 004c 0200     		.2byte	0x2
 1876 004e 7D       		.byte	0x7d
 1877 004f 10       		.sleb128 16
 1878 0050 00000000 		.4byte	0
 1879 0054 00000000 		.4byte	0
 1880              	.LLST2:
 1881 0058 00000000 		.4byte	.LFB23
 1882 005c 02000000 		.4byte	.LCFI4
 1883 0060 0200     		.2byte	0x2
 1884 0062 7D       		.byte	0x7d
 1885 0063 00       		.sleb128 0
 1886 0064 02000000 		.4byte	.LCFI4
 1887 0068 48000000 		.4byte	.LFE23
 1888 006c 0200     		.2byte	0x2
 1889 006e 7D       		.byte	0x7d
 1890 006f 10       		.sleb128 16
 1891 0070 00000000 		.4byte	0
 1892 0074 00000000 		.4byte	0
 1893              	.LLST3:
 1894 0078 00000000 		.4byte	.LFB24
 1895 007c 02000000 		.4byte	.LCFI5
 1896 0080 0200     		.2byte	0x2
 1897 0082 7D       		.byte	0x7d
 1898 0083 00       		.sleb128 0
 1899 0084 02000000 		.4byte	.LCFI5
 1900 0088 04000000 		.4byte	.LCFI6
ARM GAS  C:\Users\Mariano\AppData\Local\Temp\cc5SrqNx.s 			page 39


 1901 008c 0200     		.2byte	0x2
 1902 008e 7D       		.byte	0x7d
 1903 008f 04       		.sleb128 4
 1904 0090 04000000 		.4byte	.LCFI6
 1905 0094 2C000000 		.4byte	.LFE24
 1906 0098 0200     		.2byte	0x2
 1907 009a 7D       		.byte	0x7d
 1908 009b 10       		.sleb128 16
 1909 009c 00000000 		.4byte	0
 1910 00a0 00000000 		.4byte	0
 1911              	.LLST4:
 1912 00a4 00000000 		.4byte	.LFB25
 1913 00a8 02000000 		.4byte	.LCFI7
 1914 00ac 0200     		.2byte	0x2
 1915 00ae 7D       		.byte	0x7d
 1916 00af 00       		.sleb128 0
 1917 00b0 02000000 		.4byte	.LCFI7
 1918 00b4 34000000 		.4byte	.LFE25
 1919 00b8 0200     		.2byte	0x2
 1920 00ba 7D       		.byte	0x7d
 1921 00bb 10       		.sleb128 16
 1922 00bc 00000000 		.4byte	0
 1923 00c0 00000000 		.4byte	0
 1924              	.LLST5:
 1925 00c4 00000000 		.4byte	.LFB26
 1926 00c8 02000000 		.4byte	.LCFI8
 1927 00cc 0200     		.2byte	0x2
 1928 00ce 7D       		.byte	0x7d
 1929 00cf 00       		.sleb128 0
 1930 00d0 02000000 		.4byte	.LCFI8
 1931 00d4 04000000 		.4byte	.LCFI9
 1932 00d8 0200     		.2byte	0x2
 1933 00da 7D       		.byte	0x7d
 1934 00db 04       		.sleb128 4
 1935 00dc 04000000 		.4byte	.LCFI9
 1936 00e0 AE000000 		.4byte	.LFE26
 1937 00e4 0200     		.2byte	0x2
 1938 00e6 7D       		.byte	0x7d
 1939 00e7 20       		.sleb128 32
 1940 00e8 00000000 		.4byte	0
 1941 00ec 00000000 		.4byte	0
 1942              	.LLST6:
 1943 00f0 00000000 		.4byte	.LFB27
 1944 00f4 02000000 		.4byte	.LCFI10
 1945 00f8 0200     		.2byte	0x2
 1946 00fa 7D       		.byte	0x7d
 1947 00fb 00       		.sleb128 0
 1948 00fc 02000000 		.4byte	.LCFI10
 1949 0100 04000000 		.4byte	.LCFI11
 1950 0104 0200     		.2byte	0x2
 1951 0106 7D       		.byte	0x7d
 1952 0107 04       		.sleb128 4
 1953 0108 04000000 		.4byte	.LCFI11
 1954 010c 3C000000 		.4byte	.LFE27
 1955 0110 0200     		.2byte	0x2
 1956 0112 7D       		.byte	0x7d
 1957 0113 10       		.sleb128 16
ARM GAS  C:\Users\Mariano\AppData\Local\Temp\cc5SrqNx.s 			page 40


 1958 0114 00000000 		.4byte	0
 1959 0118 00000000 		.4byte	0
 1960              	.LLST7:
 1961 011c 00000000 		.4byte	.LFB28
 1962 0120 02000000 		.4byte	.LCFI12
 1963 0124 0200     		.2byte	0x2
 1964 0126 7D       		.byte	0x7d
 1965 0127 00       		.sleb128 0
 1966 0128 02000000 		.4byte	.LCFI12
 1967 012c 04000000 		.4byte	.LCFI13
 1968 0130 0200     		.2byte	0x2
 1969 0132 7D       		.byte	0x7d
 1970 0133 04       		.sleb128 4
 1971 0134 04000000 		.4byte	.LCFI13
 1972 0138 C8000000 		.4byte	.LFE28
 1973 013c 0200     		.2byte	0x2
 1974 013e 7D       		.byte	0x7d
 1975 013f 20       		.sleb128 32
 1976 0140 00000000 		.4byte	0
 1977 0144 00000000 		.4byte	0
 1978              		.section	.debug_aranges,"",%progbits
 1979 0000 5C000000 		.4byte	0x5c
 1980 0004 0200     		.2byte	0x2
 1981 0006 00000000 		.4byte	.Ldebug_info0
 1982 000a 04       		.byte	0x4
 1983 000b 00       		.byte	0
 1984 000c 0000     		.2byte	0
 1985 000e 0000     		.2byte	0
 1986 0010 00000000 		.4byte	.LFB20
 1987 0014 18000000 		.4byte	.LFE20-.LFB20
 1988 0018 00000000 		.4byte	.LFB21
 1989 001c 48000000 		.4byte	.LFE21-.LFB21
 1990 0020 00000000 		.4byte	.LFB22
 1991 0024 B4010000 		.4byte	.LFE22-.LFB22
 1992 0028 00000000 		.4byte	.LFB23
 1993 002c 48000000 		.4byte	.LFE23-.LFB23
 1994 0030 00000000 		.4byte	.LFB24
 1995 0034 2C000000 		.4byte	.LFE24-.LFB24
 1996 0038 00000000 		.4byte	.LFB25
 1997 003c 34000000 		.4byte	.LFE25-.LFB25
 1998 0040 00000000 		.4byte	.LFB26
 1999 0044 AE000000 		.4byte	.LFE26-.LFB26
 2000 0048 00000000 		.4byte	.LFB27
 2001 004c 3C000000 		.4byte	.LFE27-.LFB27
 2002 0050 00000000 		.4byte	.LFB28
 2003 0054 C8000000 		.4byte	.LFE28-.LFB28
 2004 0058 00000000 		.4byte	0
 2005 005c 00000000 		.4byte	0
 2006              		.section	.debug_ranges,"",%progbits
 2007              	.Ldebug_ranges0:
 2008 0000 00000000 		.4byte	.LFB20
 2009 0004 18000000 		.4byte	.LFE20
 2010 0008 00000000 		.4byte	.LFB21
 2011 000c 48000000 		.4byte	.LFE21
 2012 0010 00000000 		.4byte	.LFB22
 2013 0014 B4010000 		.4byte	.LFE22
 2014 0018 00000000 		.4byte	.LFB23
ARM GAS  C:\Users\Mariano\AppData\Local\Temp\cc5SrqNx.s 			page 41


 2015 001c 48000000 		.4byte	.LFE23
 2016 0020 00000000 		.4byte	.LFB24
 2017 0024 2C000000 		.4byte	.LFE24
 2018 0028 00000000 		.4byte	.LFB25
 2019 002c 34000000 		.4byte	.LFE25
 2020 0030 00000000 		.4byte	.LFB26
 2021 0034 AE000000 		.4byte	.LFE26
 2022 0038 00000000 		.4byte	.LFB27
 2023 003c 3C000000 		.4byte	.LFE27
 2024 0040 00000000 		.4byte	.LFB28
 2025 0044 C8000000 		.4byte	.LFE28
 2026 0048 00000000 		.4byte	0
 2027 004c 00000000 		.4byte	0
 2028              		.section	.debug_line,"",%progbits
 2029              	.Ldebug_line0:
 2030 0000 FA010000 		.section	.debug_str,"MS",%progbits,1
 2030      0200C900 
 2030      00000201 
 2030      FB0E0D00 
 2030      01010101 
 2031              	.LASF9:
 2032 0000 765F626B 		.ascii	"v_bkp\000"
 2032      7000
 2033              	.LASF26:
 2034 0006 70617261 		.ascii	"parameters_typedef\000"
 2034      6D657465 
 2034      72735F74 
 2034      79706564 
 2034      656600
 2035              	.LASF19:
 2036 0019 6C617374 		.ascii	"last_channel_in_flash\000"
 2036      5F636861 
 2036      6E6E656C 
 2036      5F696E5F 
 2036      666C6173 
 2037              	.LASF55:
 2038 002f 52656164 		.ascii	"ReadMem\000"
 2038      4D656D00 
 2039              	.LASF16:
 2040 0037 6C617374 		.ascii	"last_program_in_flash\000"
 2040      5F70726F 
 2040      6772616D 
 2040      5F696E5F 
 2040      666C6173 
 2041              	.LASF34:
 2042 004d 72657370 		.ascii	"resp\000"
 2042      00
 2043              	.LASF33:
 2044 0052 70616765 		.ascii	"page_addr\000"
 2044      5F616464 
 2044      7200
 2045              	.LASF3:
 2046 005c 73686F72 		.ascii	"short unsigned int\000"
 2046      7420756E 
 2046      7369676E 
 2046      65642069 
 2046      6E7400
ARM GAS  C:\Users\Mariano\AppData\Local\Temp\cc5SrqNx.s 			page 42


 2047              	.LASF49:
 2048 006f 706D656D 		.ascii	"pmem\000"
 2048      00
 2049              	.LASF40:
 2050 0074 706F7369 		.ascii	"posi\000"
 2050      00
 2051              	.LASF48:
 2052 0079 6D656D6F 		.ascii	"memory_backup\000"
 2052      72795F62 
 2052      61636B75 
 2052      7000
 2053              	.LASF41:
 2054 0087 57726974 		.ascii	"WritePage\000"
 2054      65506167 
 2054      6500
 2055              	.LASF42:
 2056 0091 705F7665 		.ascii	"p_verif\000"
 2056      72696600 
 2057              	.LASF1:
 2058 0099 756E7369 		.ascii	"unsigned char\000"
 2058      676E6564 
 2058      20636861 
 2058      7200
 2059              	.LASF36:
 2060 00a7 45726173 		.ascii	"ErasePage\000"
 2060      65506167 
 2060      6500
 2061              	.LASF29:
 2062 00b1 45726173 		.ascii	"EraseAllMemory_FLASH\000"
 2062      65416C6C 
 2062      4D656D6F 
 2062      72795F46 
 2062      4C415348 
 2063              	.LASF15:
 2064 00c6 6C617374 		.ascii	"last_function_in_flash\000"
 2064      5F66756E 
 2064      6374696F 
 2064      6E5F696E 
 2064      5F666C61 
 2065              	.LASF54:
 2066 00dd 70617261 		.ascii	"parameters\000"
 2066      6D657465 
 2066      727300
 2067              	.LASF5:
 2068 00e8 6C6F6E67 		.ascii	"long unsigned int\000"
 2068      20756E73 
 2068      69676E65 
 2068      6420696E 
 2068      7400
 2069              	.LASF18:
 2070 00fa 64756D6D 		.ascii	"dummy\000"
 2070      7900
 2071              	.LASF14:
 2072 0100 6D656D5F 		.ascii	"mem_bkp_typedef\000"
 2072      626B705F 
 2072      74797065 
 2072      64656600 
ARM GAS  C:\Users\Mariano\AppData\Local\Temp\cc5SrqNx.s 			page 43


 2073              	.LASF39:
 2074 0110 55706461 		.ascii	"UpdateNewCode\000"
 2074      74654E65 
 2074      77436F64 
 2074      6500
 2075              	.LASF51:
 2076 011e 2E5C7372 		.ascii	".\\src\\flash_program.c\000"
 2076      635C666C 
 2076      6173685F 
 2076      70726F67 
 2076      72616D2E 
 2077              	.LASF21:
 2078 0134 64756D6D 		.ascii	"dummy2\000"
 2078      793200
 2079              	.LASF32:
 2080 013b 6E65775F 		.ascii	"new_code\000"
 2080      636F6465 
 2080      00
 2081              	.LASF44:
 2082 0144 705F7061 		.ascii	"p_param\000"
 2082      72616D00 
 2083              	.LASF31:
 2084 014c 706F7369 		.ascii	"position\000"
 2084      74696F6E 
 2084      00
 2085              	.LASF17:
 2086 0155 6C617374 		.ascii	"last_program_deep_in_flash\000"
 2086      5F70726F 
 2086      6772616D 
 2086      5F646565 
 2086      705F696E 
 2087              	.LASF8:
 2088 0170 756E7369 		.ascii	"unsigned int\000"
 2088      676E6564 
 2088      20696E74 
 2088      00
 2089              	.LASF50:
 2090 017d 474E5520 		.ascii	"GNU C 4.7.4 20130613 (release) [ARM/embedded-4_7-br"
 2090      4320342E 
 2090      372E3420 
 2090      32303133 
 2090      30363133 
 2091 01b0 616E6368 		.ascii	"anch revision 200083]\000"
 2091      20726576 
 2091      6973696F 
 2091      6E203230 
 2091      30303833 
 2092              	.LASF35:
 2093 01c6 4261636B 		.ascii	"BackupPage\000"
 2093      75705061 
 2093      676500
 2094              	.LASF7:
 2095 01d1 6C6F6E67 		.ascii	"long long unsigned int\000"
 2095      206C6F6E 
 2095      6720756E 
 2095      7369676E 
 2095      65642069 
ARM GAS  C:\Users\Mariano\AppData\Local\Temp\cc5SrqNx.s 			page 44


 2096              	.LASF37:
 2097 01e8 705F6164 		.ascii	"p_addr\000"
 2097      647200
 2098              	.LASF28:
 2099 01ef 50415353 		.ascii	"PASSED\000"
 2099      454400
 2100              	.LASF12:
 2101 01f6 73697A65 		.ascii	"sizetype\000"
 2101      74797065 
 2101      00
 2102              	.LASF6:
 2103 01ff 6C6F6E67 		.ascii	"long long int\000"
 2103      206C6F6E 
 2103      6720696E 
 2103      7400
 2104              	.LASF52:
 2105 020d 433A5C55 		.ascii	"C:\\Users\\Mariano\\Documents\\Proyectos\\eclipse_s"
 2105      73657273 
 2105      5C4D6172 
 2105      69616E6F 
 2105      5C446F63 
 2106 023b 746D3332 		.ascii	"tm32\\Planolux_DMX512_P1\000"
 2106      5C506C61 
 2106      6E6F6C75 
 2106      785F444D 
 2106      58353132 
 2107              	.LASF22:
 2108 0253 70776D5F 		.ascii	"pwm_channel_1\000"
 2108      6368616E 
 2108      6E656C5F 
 2108      3100
 2109              	.LASF23:
 2110 0261 70776D5F 		.ascii	"pwm_channel_2\000"
 2110      6368616E 
 2110      6E656C5F 
 2110      3200
 2111              	.LASF24:
 2112 026f 70776D5F 		.ascii	"pwm_channel_3\000"
 2112      6368616E 
 2112      6E656C5F 
 2112      3300
 2113              	.LASF25:
 2114 027d 70776D5F 		.ascii	"pwm_channel_4\000"
 2114      6368616E 
 2114      6E656C5F 
 2114      3400
 2115              	.LASF20:
 2116 028b 64756D6D 		.ascii	"dummy1\000"
 2116      793100
 2117              	.LASF11:
 2118 0292 765F626B 		.ascii	"v_bkp_16u\000"
 2118      705F3136 
 2118      7500
 2119              	.LASF2:
 2120 029c 73686F72 		.ascii	"short int\000"
 2120      7420696E 
 2120      7400
ARM GAS  C:\Users\Mariano\AppData\Local\Temp\cc5SrqNx.s 			page 45


 2121              	.LASF38:
 2122 02a6 77697468 		.ascii	"with_lock\000"
 2122      5F6C6F63 
 2122      6B00
 2123              	.LASF53:
 2124 02b0 6D656D5F 		.ascii	"mem_bkp\000"
 2124      626B7000 
 2125              	.LASF43:
 2126 02b8 57726974 		.ascii	"WriteConfigurations\000"
 2126      65436F6E 
 2126      66696775 
 2126      72617469 
 2126      6F6E7300 
 2127              	.LASF13:
 2128 02cc 75696E74 		.ascii	"uint32_t\000"
 2128      33325F74 
 2128      00
 2129              	.LASF4:
 2130 02d5 6C6F6E67 		.ascii	"long int\000"
 2130      20696E74 
 2130      00
 2131              	.LASF10:
 2132 02de 765F626B 		.ascii	"v_bkp_8u\000"
 2132      705F3875 
 2132      00
 2133              	.LASF0:
 2134 02e7 7369676E 		.ascii	"signed char\000"
 2134      65642063 
 2134      68617200 
 2135              	.LASF27:
 2136 02f3 4641494C 		.ascii	"FAILED\000"
 2136      454400
 2137              	.LASF46:
 2138 02fa 6C656E5F 		.ascii	"len_in_4\000"
 2138      696E5F34 
 2138      00
 2139              	.LASF45:
 2140 0303 57726974 		.ascii	"WriteFlash\000"
 2140      65466C61 
 2140      736800
 2141              	.LASF47:
 2142 030e 70617261 		.ascii	"param_struct\000"
 2142      6D5F7374 
 2142      72756374 
 2142      00
 2143              	.LASF30:
 2144 031b 57726974 		.ascii	"Write_Code_To_Memory_FLASH\000"
 2144      655F436F 
 2144      64655F54 
 2144      6F5F4D65 
 2144      6D6F7279 
 2145              		.ident	"GCC: (GNU Tools for ARM Embedded Processors) 4.7.4 20130613 (release) [ARM/embedded-4_7-br
ARM GAS  C:\Users\Mariano\AppData\Local\Temp\cc5SrqNx.s 			page 46


DEFINED SYMBOLS
                            *ABS*:00000000 flash_program.c
C:\Users\Mariano\AppData\Local\Temp\cc5SrqNx.s:55     .data.pmem:00000000 pmem
C:\Users\Mariano\AppData\Local\Temp\cc5SrqNx.s:52     .data.pmem:00000000 $d
C:\Users\Mariano\AppData\Local\Temp\cc5SrqNx.s:58     .text.ReadMem:00000000 $t
C:\Users\Mariano\AppData\Local\Temp\cc5SrqNx.s:63     .text.ReadMem:00000000 ReadMem
C:\Users\Mariano\AppData\Local\Temp\cc5SrqNx.s:88     .text.ReadMem:00000014 $d
C:\Users\Mariano\AppData\Local\Temp\cc5SrqNx.s:93     .text.EraseAllMemory_FLASH:00000000 $t
C:\Users\Mariano\AppData\Local\Temp\cc5SrqNx.s:98     .text.EraseAllMemory_FLASH:00000000 EraseAllMemory_FLASH
C:\Users\Mariano\AppData\Local\Temp\cc5SrqNx.s:479    .text.ErasePage:00000000 ErasePage
C:\Users\Mariano\AppData\Local\Temp\cc5SrqNx.s:154    .text.EraseAllMemory_FLASH:00000044 $d
C:\Users\Mariano\AppData\Local\Temp\cc5SrqNx.s:159    .text.Write_Code_To_Memory_FLASH:00000000 $t
C:\Users\Mariano\AppData\Local\Temp\cc5SrqNx.s:164    .text.Write_Code_To_Memory_FLASH:00000000 Write_Code_To_Memory_FLASH
C:\Users\Mariano\AppData\Local\Temp\cc5SrqNx.s:420    .text.BackupPage:00000000 BackupPage
C:\Users\Mariano\AppData\Local\Temp\cc5SrqNx.s:523    .text.UpdateNewCode:00000000 UpdateNewCode
C:\Users\Mariano\AppData\Local\Temp\cc5SrqNx.s:572    .text.WritePage:00000000 WritePage
C:\Users\Mariano\AppData\Local\Temp\cc5SrqNx.s:401    .text.Write_Code_To_Memory_FLASH:0000018c $d
C:\Users\Mariano\AppData\Local\Temp\cc5SrqNx.s:415    .text.BackupPage:00000000 $t
C:\Users\Mariano\AppData\Local\Temp\cc5SrqNx.s:474    .text.ErasePage:00000000 $t
C:\Users\Mariano\AppData\Local\Temp\cc5SrqNx.s:518    .text.UpdateNewCode:00000000 $t
C:\Users\Mariano\AppData\Local\Temp\cc5SrqNx.s:567    .text.WritePage:00000000 $t
C:\Users\Mariano\AppData\Local\Temp\cc5SrqNx.s:693    .text.WriteConfigurations:00000000 $t
C:\Users\Mariano\AppData\Local\Temp\cc5SrqNx.s:698    .text.WriteConfigurations:00000000 WriteConfigurations
C:\Users\Mariano\AppData\Local\Temp\cc5SrqNx.s:754    .text.WriteFlash:00000000 WriteFlash
C:\Users\Mariano\AppData\Local\Temp\cc5SrqNx.s:743    .text.WriteConfigurations:00000034 $d
C:\Users\Mariano\AppData\Local\Temp\cc5SrqNx.s:749    .text.WriteFlash:00000000 $t
                     .debug_frame:00000010 $d

UNDEFINED SYMBOLS
memory_backup
FLASH_Unlock
FLASH_ErasePage
FLASH_Lock
FLASH_ProgramWord
param_struct
