ARM GAS  C:\Users\Mariano\AppData\Local\Temp\cc5SrqNx.s 			page 1


   1              		.cpu cortex-m0
   2              		.fpu softvfp
   3              		.eabi_attribute 20, 1	@ Tag_ABI_FP_denormal
   4              		.eabi_attribute 21, 1	@ Tag_ABI_FP_exceptions
   5              		.eabi_attribute 23, 3	@ Tag_ABI_FP_number_model
   6              		.eabi_attribute 24, 1	@ Tag_ABI_align8_needed
   7              		.eabi_attribute 25, 1	@ Tag_ABI_align8_preserved
   8              		.eabi_attribute 26, 1	@ Tag_ABI_enum_size
   9              		.eabi_attribute 30, 6	@ Tag_ABI_optimization_goals
  10              		.eabi_attribute 34, 0	@ Tag_CPU_unaligned_access
  11              		.eabi_attribute 18, 4	@ Tag_ABI_PCS_wchar_t
  12              		.file	"flash_program.c"
  13              	@ GNU C (GNU Tools for ARM Embedded Processors) version 4.7.4 20130613 (release) [ARM/embedded-4_7-
  14              	@	compiled by GNU C version 4.2.1-sjlj (mingw32-2), GMP version 4.3.2, MPFR version 2.4.2, MPC vers
  15              	@ GGC heuristics: --param ggc-min-expand=100 --param ggc-min-heapsize=131072
  16              	@ options passed:  -I . -I .\src -I .\cmsis_boot -I .\cmsis_core
  17              	@ -I ..\STM32F0xx_StdPeriph_Lib_V1.3.1\Libraries\STM32F0xx_StdPeriph_Driver\inc
  18              	@ -I .\inc -I .\cmsis_boot -imultilib armv6-m
  19              	@ -iprefix c:\program files (x86)\gnu tools arm embedded\4.7 2013q2\bin\../lib/gcc/arm-none-eabi/4.
  20              	@ -isysroot c:\program files (x86)\gnu tools arm embedded\4.7 2013q2\bin\../arm-none-eabi
  21              	@ -MD .\src\flash_program.d -MF .dep\flash_program.o.d -MP
  22              	@ -MQ .\src\flash_program.o -D__USES_INITFINI__ -D RUN_FROM_FLASH=1
  23              	@ .\src\flash_program.c -mcpu=cortex-m0 -mthumb
  24              	@ -auxbase-strip .\src\flash_program.o -g -gdwarf-2 -O0 -Wall
  25              	@ -fomit-frame-pointer -fdata-sections -ffunction-sections -fverbose-asm
  26              	@ options enabled:  -fauto-inc-dec -fbranch-count-reg -fcommon
  27              	@ -fdata-sections -fdebug-types-section -fdelete-null-pointer-checks
  28              	@ -fdwarf2-cfi-asm -fearly-inlining -feliminate-unused-debug-types
  29              	@ -ffunction-cse -ffunction-sections -fgcse-lm -fgnu-runtime -fident
  30              	@ -finline-atomics -fira-hoist-pressure -fira-share-save-slots
  31              	@ -fira-share-spill-slots -fivopts -fkeep-static-consts
  32              	@ -fleading-underscore -fmath-errno -fmerge-debug-strings
  33              	@ -fmove-loop-invariants -fomit-frame-pointer -fpeephole
  34              	@ -fprefetch-loop-arrays -freg-struct-return
  35              	@ -fsched-critical-path-heuristic -fsched-dep-count-heuristic
  36              	@ -fsched-group-heuristic -fsched-interblock -fsched-last-insn-heuristic
  37              	@ -fsched-rank-heuristic -fsched-spec -fsched-spec-insn-heuristic
  38              	@ -fsched-stalled-insns-dep -fshow-column -fsigned-zeros
  39              	@ -fsplit-ivs-in-unroller -fstrict-volatile-bitfields -ftrapping-math
  40              	@ -ftree-cselim -ftree-forwprop -ftree-loop-if-convert -ftree-loop-im
  41              	@ -ftree-loop-ivcanon -ftree-loop-optimize -ftree-parallelize-loops=
  42              	@ -ftree-phiprop -ftree-pta -ftree-reassoc -ftree-scev-cprop
  43              	@ -ftree-slp-vectorize -ftree-vect-loop-version -funit-at-a-time
  44              	@ -fverbose-asm -fzero-initialized-in-bss -mlittle-endian -msched-prolog
  45              	@ -mthumb -mvectorize-with-neon-quad
  46              	
  47              		.text
  48              	.Ltext0:
  49              		.cfi_sections	.debug_frame
  50              		.global	pmem
  51              		.section	.data.pmem,"aw",%progbits
  52              		.align	2
  53              		.type	pmem, %object
  54              		.size	pmem, 4
  55              	pmem:
  56 0000 00700008 		.word	134246400
  57              		.section	.text.ReadMem,"ax",%progbits
ARM GAS  C:\Users\Mariano\AppData\Local\Temp\cc5SrqNx.s 			page 2


  58              		.align	2
  59              		.global	ReadMem
  60              		.code	16
  61              		.thumb_func
  62              		.type	ReadMem, %function
  63              	ReadMem:
  64              	.LFB20:
  65              		.file 1 ".\\src\\flash_program.c"
   1:.\src/flash_program.c **** /**
   2:.\src/flash_program.c ****   *****************************************************************************
   3:.\src/flash_program.c ****   * @title   FLASH_Program.c
   4:.\src/flash_program.c ****   * @author  CooCox
   5:.\src/flash_program.c ****   * @date    31 Oct 2012
   6:.\src/flash_program.c ****   * @brief   This example provides a description of how to program the STM32F
   7:.\src/flash_program.c ****   *          10x FLASH.
   8:.\src/flash_program.c ****   *          the result of the programming operation is stored in
   9:.\src/flash_program.c ****   *          to the MemoryProgramStatus variable.
  10:.\src/flash_program.c ****   *          Four LEDs are toggled if t
  11:.\src/flash_program.c ****   *          he flash program has been down.
  12:.\src/flash_program.c ****   *          This example has been tested on
  13:.\src/flash_program.c ****   *           KEIL MCBSTM32 board, STM32F103RBT6 device.
  14:.\src/flash_program.c ****   *******************************************************************************
  15:.\src/flash_program.c ****   */
  16:.\src/flash_program.c **** ////// The above comment is automatically generated by CoIDE ///////////////////
  17:.\src/flash_program.c **** 
  18:.\src/flash_program.c **** 
  19:.\src/flash_program.c **** #include "flash_program.h"
  20:.\src/flash_program.c **** #include "stm32f0xx_flash.h"
  21:.\src/flash_program.c **** 
  22:.\src/flash_program.c **** 
  23:.\src/flash_program.c **** 
  24:.\src/flash_program.c **** /* Externals variables ---------------------------------------------------------*/
  25:.\src/flash_program.c **** #ifdef CONFIGURATION_IN_FLASH
  26:.\src/flash_program.c **** extern unsigned char b1t;
  27:.\src/flash_program.c **** extern unsigned char b1r;
  28:.\src/flash_program.c **** extern unsigned char b2t;
  29:.\src/flash_program.c **** extern unsigned char b2r;
  30:.\src/flash_program.c **** extern unsigned char b3t;
  31:.\src/flash_program.c **** extern unsigned char b3r;
  32:.\src/flash_program.c **** extern unsigned char b4t;
  33:.\src/flash_program.c **** extern unsigned char b4r;
  34:.\src/flash_program.c **** 
  35:.\src/flash_program.c **** extern parameters_typedef param_struct;
  36:.\src/flash_program.c **** #endif
  37:.\src/flash_program.c **** 
  38:.\src/flash_program.c **** #ifdef CONFIGURATION_IN_SST
  39:.\src/flash_program.c **** extern parameters_typedef param_struct;
  40:.\src/flash_program.c **** #endif
  41:.\src/flash_program.c **** 
  42:.\src/flash_program.c **** /* Private typedef -----------------------------------------------------------*/
  43:.\src/flash_program.c **** 
  44:.\src/flash_program.c **** 
  45:.\src/flash_program.c **** /* Private define ------------------------------------------------------------*/
  46:.\src/flash_program.c **** 
  47:.\src/flash_program.c **** 
  48:.\src/flash_program.c **** extern parameters_typedef param_struct;
  49:.\src/flash_program.c **** extern mem_bkp_typedef memory_backup;
ARM GAS  C:\Users\Mariano\AppData\Local\Temp\cc5SrqNx.s 			page 3


  50:.\src/flash_program.c **** extern filesystem_typedef files;
  51:.\src/flash_program.c **** //extern unsigned int v_bkp [];
  52:.\src/flash_program.c **** 
  53:.\src/flash_program.c **** /* Private macro -------------------------------------------------------------*/
  54:.\src/flash_program.c **** /* Private variables ---------------------------------------------------------*/
  55:.\src/flash_program.c **** 
  56:.\src/flash_program.c **** //const int vmem [1024] ;
  57:.\src/flash_program.c **** unsigned int * pmem = (unsigned int *)0x08007000;	//Sector 7 Page 28
  58:.\src/flash_program.c **** 
  59:.\src/flash_program.c **** 
  60:.\src/flash_program.c **** /* Private function prototypes -----------------------------------------------*/
  61:.\src/flash_program.c **** /* Private functions ---------------------------------------------------------*/
  62:.\src/flash_program.c **** unsigned char ReadMem (void)
  63:.\src/flash_program.c **** {
  66              		.loc 1 63 0
  67              		.cfi_startproc
  64:.\src/flash_program.c **** 	if (*pmem == 0xffffffff)
  68              		.loc 1 64 0
  69 0000 044B     		ldr	r3, .L4	@ tmp138,
  70 0002 1B68     		ldr	r3, [r3]	@ pmem.0, pmem
  71 0004 1B68     		ldr	r3, [r3]	@ D.4919, *pmem.0_2
  72 0006 0133     		add	r3, r3, #1	@, D.4919,
  73 0008 01D1     		bne	.L2	@,
  65:.\src/flash_program.c **** 		return 1;
  74              		.loc 1 65 0
  75 000a 0123     		mov	r3, #1	@ D.4922,
  76 000c 00E0     		b	.L3	@
  77              	.L2:
  66:.\src/flash_program.c **** 	else
  67:.\src/flash_program.c **** 		return 0;
  78              		.loc 1 67 0
  79 000e 0023     		mov	r3, #0	@ D.4922,
  80              	.L3:
  68:.\src/flash_program.c **** }
  81              		.loc 1 68 0
  82 0010 181C     		mov	r0, r3	@, <retval>
  83              		@ sp needed for prologue	@
  84 0012 7047     		bx	lr
  85              	.L5:
  86              		.align	2
  87              	.L4:
  88 0014 00000000 		.word	pmem
  89              		.cfi_endproc
  90              	.LFE20:
  91              		.size	ReadMem, .-ReadMem
  92              		.section	.text.EraseAllMemory_FLASH,"ax",%progbits
  93              		.align	2
  94              		.global	EraseAllMemory_FLASH
  95              		.code	16
  96              		.thumb_func
  97              		.type	EraseAllMemory_FLASH, %function
  98              	EraseAllMemory_FLASH:
  99              	.LFB21:
  69:.\src/flash_program.c **** 
  70:.\src/flash_program.c **** unsigned char EraseAllMemory_FLASH(void)
  71:.\src/flash_program.c **** {
 100              		.loc 1 71 0
ARM GAS  C:\Users\Mariano\AppData\Local\Temp\cc5SrqNx.s 			page 4


 101              		.cfi_startproc
 102 0000 00B5     		push	{lr}	@
 103              	.LCFI0:
 104              		.cfi_def_cfa_offset 4
 105              		.cfi_offset 14, -4
 106 0002 83B0     		sub	sp, sp, #12	@,,
 107              	.LCFI1:
 108              		.cfi_def_cfa_offset 16
  72:.\src/flash_program.c **** 	unsigned char resp = 0;
 109              		.loc 1 72 0
 110 0004 6B46     		mov	r3, sp	@ tmp138,
 111 0006 0733     		add	r3, r3, #7	@ tmp138,
 112 0008 0022     		mov	r2, #0	@ tmp139,
 113 000a 1A70     		strb	r2, [r3]	@ tmp140, resp
  73:.\src/flash_program.c **** 
  74:.\src/flash_program.c **** 	ErasePage(PAGE31,1);
 114              		.loc 1 74 0
 115 000c 0D4B     		ldr	r3, .L10	@ tmp141,
 116 000e 181C     		mov	r0, r3	@, tmp141
 117 0010 0121     		mov	r1, #1	@,
 118 0012 FFF7FEFF 		bl	ErasePage	@
  75:.\src/flash_program.c **** 	//reviso si borre
  76:.\src/flash_program.c **** 
  77:.\src/flash_program.c **** 	if (*(unsigned int *) PAGE31 == 0xFFFFFFFF)
 119              		.loc 1 77 0
 120 0016 0B4B     		ldr	r3, .L10	@ D.4910,
 121 0018 1B68     		ldr	r3, [r3]	@ D.4911, *D.4910_4
 122 001a 0133     		add	r3, r3, #1	@, D.4911,
 123 001c 06D1     		bne	.L7	@,
  78:.\src/flash_program.c **** 		resp++;
 124              		.loc 1 78 0
 125 001e 6B46     		mov	r3, sp	@ tmp142,
 126 0020 0733     		add	r3, r3, #7	@ tmp142,
 127 0022 6A46     		mov	r2, sp	@ tmp143,
 128 0024 0732     		add	r2, r2, #7	@ tmp143,
 129 0026 1278     		ldrb	r2, [r2]	@ tmp144, resp
 130 0028 0132     		add	r2, r2, #1	@ tmp145,
 131 002a 1A70     		strb	r2, [r3]	@ tmp146, resp
 132              	.L7:
  79:.\src/flash_program.c **** 
  80:.\src/flash_program.c **** 	if (resp)
 133              		.loc 1 80 0
 134 002c 6B46     		mov	r3, sp	@ tmp147,
 135 002e 0733     		add	r3, r3, #7	@ tmp147,
 136 0030 1B78     		ldrb	r3, [r3]	@ tmp148, resp
 137 0032 002B     		cmp	r3, #0	@ tmp148,
 138 0034 01D0     		beq	.L8	@,
  81:.\src/flash_program.c **** 		return PASSED;
 139              		.loc 1 81 0
 140 0036 0123     		mov	r3, #1	@ D.4916,
 141 0038 00E0     		b	.L9	@
 142              	.L8:
  82:.\src/flash_program.c **** 	else
  83:.\src/flash_program.c **** 		return FAILED;
 143              		.loc 1 83 0
 144 003a 0023     		mov	r3, #0	@ D.4916,
 145              	.L9:
ARM GAS  C:\Users\Mariano\AppData\Local\Temp\cc5SrqNx.s 			page 5


  84:.\src/flash_program.c **** }
 146              		.loc 1 84 0
 147 003c 181C     		mov	r0, r3	@, <retval>
 148 003e 03B0     		add	sp, sp, #12	@,,
 149              		@ sp needed for prologue	@
 150 0040 00BD     		pop	{pc}
 151              	.L11:
 152 0042 C046     		.align	2
 153              	.L10:
 154 0044 007C0008 		.word	134249472
 155              		.cfi_endproc
 156              	.LFE21:
 157              		.size	EraseAllMemory_FLASH, .-EraseAllMemory_FLASH
 158              		.section	.text.Write_Code_To_Memory_FLASH,"ax",%progbits
 159              		.align	2
 160              		.global	Write_Code_To_Memory_FLASH
 161              		.code	16
 162              		.thumb_func
 163              		.type	Write_Code_To_Memory_FLASH, %function
 164              	Write_Code_To_Memory_FLASH:
 165              	.LFB22:
  85:.\src/flash_program.c **** 
  86:.\src/flash_program.c **** /*
  87:.\src/flash_program.c **** unsigned short Look_Code_In_Memory(unsigned int code_to_look_for)
  88:.\src/flash_program.c **** {
  89:.\src/flash_program.c **** 	unsigned short i;
  90:.\src/flash_program.c **** 
  91:.\src/flash_program.c **** 	for (i = 0; i < FLASH_PAGE_SIZE; i++)
  92:.\src/flash_program.c **** 	{
  93:.\src/flash_program.c **** 		if (*(unsigned int*) (PAGE28_START + i) == code_to_look_for)
  94:.\src/flash_program.c **** 			return i;
  95:.\src/flash_program.c **** 	}
  96:.\src/flash_program.c **** 
  97:.\src/flash_program.c **** 	return 0xFFFF;
  98:.\src/flash_program.c **** }
  99:.\src/flash_program.c **** */
 100:.\src/flash_program.c **** 
 101:.\src/flash_program.c **** unsigned char Write_Code_To_Memory_FLASH(unsigned short position, unsigned int new_code)
 102:.\src/flash_program.c **** {
 166              		.loc 1 102 0
 167              		.cfi_startproc
 168 0000 00B5     		push	{lr}	@
 169              	.LCFI2:
 170              		.cfi_def_cfa_offset 4
 171              		.cfi_offset 14, -4
 172 0002 83B0     		sub	sp, sp, #12	@,,
 173              	.LCFI3:
 174              		.cfi_def_cfa_offset 16
 175 0004 021C     		mov	r2, r0	@ tmp147, position
 176 0006 0091     		str	r1, [sp]	@ new_code, new_code
 177 0008 6B46     		mov	r3, sp	@ tmp148,
 178 000a 0633     		add	r3, r3, #6	@ tmp148,
 179 000c 1A80     		strh	r2, [r3]	@ tmp149, position
 103:.\src/flash_program.c **** 	//check if possition is good
 104:.\src/flash_program.c **** 	if (position > PAGE31_END)
 180              		.loc 1 104 0
 181 000e 6B46     		mov	r3, sp	@ tmp150,
ARM GAS  C:\Users\Mariano\AppData\Local\Temp\cc5SrqNx.s 			page 6


 182 0010 0633     		add	r3, r3, #6	@ tmp150,
 183 0012 1A88     		ldrh	r2, [r3]	@ tmp151, position
 184 0014 5D4B     		ldr	r3, .L23	@ tmp152,
 185 0016 9A42     		cmp	r2, r3	@ tmp151, tmp152
 186 0018 01D9     		bls	.L13	@,
 105:.\src/flash_program.c **** 		return FAILED;
 187              		.loc 1 105 0
 188 001a 0023     		mov	r3, #0	@ D.4870,
 189 001c B3E0     		b	.L14	@
 190              	.L13:
 106:.\src/flash_program.c **** 
 107:.\src/flash_program.c **** 	if (position >= PAGE31_START)
 191              		.loc 1 107 0
 192 001e 6B46     		mov	r3, sp	@ tmp153,
 193 0020 0633     		add	r3, r3, #6	@ tmp153,
 194 0022 1A88     		ldrh	r2, [r3]	@ tmp154, position
 195 0024 5A4B     		ldr	r3, .L23+4	@ tmp155,
 196 0026 9A42     		cmp	r2, r3	@ tmp154, tmp155
 197 0028 29D9     		bls	.L15	@,
 108:.\src/flash_program.c **** 	{
 109:.\src/flash_program.c **** 		BackupPage(memory_backup.v_bkp, (unsigned int *) PAGE31);
 198              		.loc 1 109 0
 199 002a 5A4A     		ldr	r2, .L23+8	@ tmp156,
 200 002c 5A4B     		ldr	r3, .L23+12	@ tmp157,
 201 002e 101C     		mov	r0, r2	@, tmp156
 202 0030 191C     		mov	r1, r3	@, tmp157
 203 0032 FFF7FEFF 		bl	BackupPage	@
 110:.\src/flash_program.c **** 		ErasePage(PAGE31,0);
 204              		.loc 1 110 0
 205 0036 584B     		ldr	r3, .L23+12	@ tmp158,
 206 0038 181C     		mov	r0, r3	@, tmp158
 207 003a 0021     		mov	r1, #0	@,
 208 003c FFF7FEFF 		bl	ErasePage	@
 111:.\src/flash_program.c **** 		if (UpdateNewCode(memory_backup.v_bkp, position - PAGE31_START, new_code) == FAILED)
 209              		.loc 1 111 0
 210 0040 6B46     		mov	r3, sp	@ tmp159,
 211 0042 0633     		add	r3, r3, #6	@ tmp159,
 212 0044 1B88     		ldrh	r3, [r3]	@ tmp160, position
 213 0046 554A     		ldr	r2, .L23+16	@,
 214 0048 9B18     		add	r3, r3, r2	@ tmp161, tmp160,
 215 004a 9AB2     		uxth	r2, r3	@ D.4873, tmp161
 216 004c 5149     		ldr	r1, .L23+8	@ tmp162,
 217 004e 009B     		ldr	r3, [sp]	@ tmp163, new_code
 218 0050 081C     		mov	r0, r1	@, tmp162
 219 0052 111C     		mov	r1, r2	@, D.4873
 220 0054 1A1C     		mov	r2, r3	@, tmp163
 221 0056 FFF7FEFF 		bl	UpdateNewCode	@
 222 005a 031C     		mov	r3, r0	@ tmp164,
 223 005c 002B     		cmp	r3, #0	@ D.4874,
 224 005e 01D1     		bne	.L16	@,
 112:.\src/flash_program.c **** 			return FAILED;
 225              		.loc 1 112 0
 226 0060 0023     		mov	r3, #0	@ D.4870,
 227 0062 90E0     		b	.L14	@
 228              	.L16:
 113:.\src/flash_program.c **** 
 114:.\src/flash_program.c **** 		if (WritePage(memory_backup.v_bkp, PAGE31, 1) == FAILED)
ARM GAS  C:\Users\Mariano\AppData\Local\Temp\cc5SrqNx.s 			page 7


 229              		.loc 1 114 0
 230 0064 4B4A     		ldr	r2, .L23+8	@ tmp166,
 231 0066 4C4B     		ldr	r3, .L23+12	@ tmp167,
 232 0068 101C     		mov	r0, r2	@, tmp166
 233 006a 191C     		mov	r1, r3	@, tmp167
 234 006c 0122     		mov	r2, #1	@,
 235 006e FFF7FEFF 		bl	WritePage	@
 236 0072 031C     		mov	r3, r0	@ tmp168,
 237 0074 002B     		cmp	r3, #0	@ D.4877,
 238 0076 00D0     		beq	.LCB161	@
 239 0078 84E0     		b	.L17	@long jump	@
 240              	.LCB161:
 115:.\src/flash_program.c **** 			return FAILED;
 241              		.loc 1 115 0
 242 007a 0023     		mov	r3, #0	@ D.4870,
 243 007c 83E0     		b	.L14	@
 244              	.L15:
 116:.\src/flash_program.c **** 	}
 117:.\src/flash_program.c **** 	else if (position >= PAGE30_START)
 245              		.loc 1 117 0
 246 007e 6B46     		mov	r3, sp	@ tmp170,
 247 0080 0633     		add	r3, r3, #6	@ tmp170,
 248 0082 1A88     		ldrh	r2, [r3]	@ tmp171, position
 249 0084 464B     		ldr	r3, .L23+20	@ tmp172,
 250 0086 9A42     		cmp	r2, r3	@ tmp171, tmp172
 251 0088 28D9     		bls	.L18	@,
 118:.\src/flash_program.c **** 	{
 119:.\src/flash_program.c **** 		BackupPage(memory_backup.v_bkp, (unsigned int *) PAGE30);
 252              		.loc 1 119 0
 253 008a 424A     		ldr	r2, .L23+8	@ tmp173,
 254 008c 454B     		ldr	r3, .L23+24	@ tmp174,
 255 008e 101C     		mov	r0, r2	@, tmp173
 256 0090 191C     		mov	r1, r3	@, tmp174
 257 0092 FFF7FEFF 		bl	BackupPage	@
 120:.\src/flash_program.c **** 		ErasePage(PAGE30,0);
 258              		.loc 1 120 0
 259 0096 434B     		ldr	r3, .L23+24	@ tmp175,
 260 0098 181C     		mov	r0, r3	@, tmp175
 261 009a 0021     		mov	r1, #0	@,
 262 009c FFF7FEFF 		bl	ErasePage	@
 121:.\src/flash_program.c **** 		if (UpdateNewCode(memory_backup.v_bkp, position - PAGE30_START, new_code) == FAILED)
 263              		.loc 1 121 0
 264 00a0 6B46     		mov	r3, sp	@ tmp176,
 265 00a2 0633     		add	r3, r3, #6	@ tmp176,
 266 00a4 1B88     		ldrh	r3, [r3]	@ tmp177, position
 267 00a6 404A     		ldr	r2, .L23+28	@,
 268 00a8 9B18     		add	r3, r3, r2	@ tmp178, tmp177,
 269 00aa 9AB2     		uxth	r2, r3	@ D.4883, tmp178
 270 00ac 3949     		ldr	r1, .L23+8	@ tmp179,
 271 00ae 009B     		ldr	r3, [sp]	@ tmp180, new_code
 272 00b0 081C     		mov	r0, r1	@, tmp179
 273 00b2 111C     		mov	r1, r2	@, D.4883
 274 00b4 1A1C     		mov	r2, r3	@, tmp180
 275 00b6 FFF7FEFF 		bl	UpdateNewCode	@
 276 00ba 031C     		mov	r3, r0	@ tmp181,
 277 00bc 002B     		cmp	r3, #0	@ D.4884,
 278 00be 01D1     		bne	.L19	@,
ARM GAS  C:\Users\Mariano\AppData\Local\Temp\cc5SrqNx.s 			page 8


 122:.\src/flash_program.c **** 			return FAILED;
 279              		.loc 1 122 0
 280 00c0 0023     		mov	r3, #0	@ D.4870,
 281 00c2 60E0     		b	.L14	@
 282              	.L19:
 123:.\src/flash_program.c **** 
 124:.\src/flash_program.c **** 		if (WritePage(memory_backup.v_bkp, PAGE30, 1) == FAILED)
 283              		.loc 1 124 0
 284 00c4 334A     		ldr	r2, .L23+8	@ tmp183,
 285 00c6 374B     		ldr	r3, .L23+24	@ tmp184,
 286 00c8 101C     		mov	r0, r2	@, tmp183
 287 00ca 191C     		mov	r1, r3	@, tmp184
 288 00cc 0122     		mov	r2, #1	@,
 289 00ce FFF7FEFF 		bl	WritePage	@
 290 00d2 031C     		mov	r3, r0	@ tmp185,
 291 00d4 002B     		cmp	r3, #0	@ D.4887,
 292 00d6 55D1     		bne	.L17	@,
 125:.\src/flash_program.c **** 			return FAILED;
 293              		.loc 1 125 0
 294 00d8 0023     		mov	r3, #0	@ D.4870,
 295 00da 54E0     		b	.L14	@
 296              	.L18:
 126:.\src/flash_program.c **** 	}
 127:.\src/flash_program.c **** 	else if (position >= PAGE29_START)
 297              		.loc 1 127 0
 298 00dc 6B46     		mov	r3, sp	@ tmp187,
 299 00de 0633     		add	r3, r3, #6	@ tmp187,
 300 00e0 1B88     		ldrh	r3, [r3]	@ tmp188, position
 301 00e2 FF2B     		cmp	r3, #255	@ tmp188,
 302 00e4 28D9     		bls	.L20	@,
 128:.\src/flash_program.c **** 	{
 129:.\src/flash_program.c **** 		BackupPage(memory_backup.v_bkp, (unsigned int *) PAGE29);
 303              		.loc 1 129 0
 304 00e6 2B4A     		ldr	r2, .L23+8	@ tmp189,
 305 00e8 304B     		ldr	r3, .L23+32	@ tmp190,
 306 00ea 101C     		mov	r0, r2	@, tmp189
 307 00ec 191C     		mov	r1, r3	@, tmp190
 308 00ee FFF7FEFF 		bl	BackupPage	@
 130:.\src/flash_program.c **** 		ErasePage(PAGE29,0);
 309              		.loc 1 130 0
 310 00f2 2E4B     		ldr	r3, .L23+32	@ tmp191,
 311 00f4 181C     		mov	r0, r3	@, tmp191
 312 00f6 0021     		mov	r1, #0	@,
 313 00f8 FFF7FEFF 		bl	ErasePage	@
 131:.\src/flash_program.c **** 		if (UpdateNewCode(memory_backup.v_bkp, position - PAGE29_START, new_code) == FAILED)
 314              		.loc 1 131 0
 315 00fc 6B46     		mov	r3, sp	@ tmp192,
 316 00fe 0633     		add	r3, r3, #6	@ tmp192,
 317 0100 1B88     		ldrh	r3, [r3]	@ tmp193, position
 318 0102 013B     		sub	r3, r3, #1	@ tmp194,
 319 0104 FF3B     		sub	r3, r3, #255	@ tmp194,
 320 0106 9AB2     		uxth	r2, r3	@ D.4893, tmp194
 321 0108 2249     		ldr	r1, .L23+8	@ tmp195,
 322 010a 009B     		ldr	r3, [sp]	@ tmp196, new_code
 323 010c 081C     		mov	r0, r1	@, tmp195
 324 010e 111C     		mov	r1, r2	@, D.4893
 325 0110 1A1C     		mov	r2, r3	@, tmp196
ARM GAS  C:\Users\Mariano\AppData\Local\Temp\cc5SrqNx.s 			page 9


 326 0112 FFF7FEFF 		bl	UpdateNewCode	@
 327 0116 031C     		mov	r3, r0	@ tmp197,
 328 0118 002B     		cmp	r3, #0	@ D.4894,
 329 011a 01D1     		bne	.L21	@,
 132:.\src/flash_program.c **** 			return FAILED;
 330              		.loc 1 132 0
 331 011c 0023     		mov	r3, #0	@ D.4870,
 332 011e 32E0     		b	.L14	@
 333              	.L21:
 133:.\src/flash_program.c **** 
 134:.\src/flash_program.c **** 		if (WritePage(memory_backup.v_bkp, PAGE29, 1) == FAILED)
 334              		.loc 1 134 0
 335 0120 1C4A     		ldr	r2, .L23+8	@ tmp199,
 336 0122 224B     		ldr	r3, .L23+32	@ tmp200,
 337 0124 101C     		mov	r0, r2	@, tmp199
 338 0126 191C     		mov	r1, r3	@, tmp200
 339 0128 0122     		mov	r2, #1	@,
 340 012a FFF7FEFF 		bl	WritePage	@
 341 012e 031C     		mov	r3, r0	@ tmp201,
 342 0130 002B     		cmp	r3, #0	@ D.4897,
 343 0132 27D1     		bne	.L17	@,
 135:.\src/flash_program.c **** 			return FAILED;
 344              		.loc 1 135 0
 345 0134 0023     		mov	r3, #0	@ D.4870,
 346 0136 26E0     		b	.L14	@
 347              	.L20:
 136:.\src/flash_program.c **** 	}
 137:.\src/flash_program.c **** 	else if (position >= PAGE28_START)
 138:.\src/flash_program.c **** 	{
 139:.\src/flash_program.c **** 		BackupPage(memory_backup.v_bkp, (unsigned int *) PAGE28);
 348              		.loc 1 139 0
 349 0138 164A     		ldr	r2, .L23+8	@ tmp203,
 350 013a 1D4B     		ldr	r3, .L23+36	@ tmp204,
 351 013c 101C     		mov	r0, r2	@, tmp203
 352 013e 191C     		mov	r1, r3	@, tmp204
 353 0140 FFF7FEFF 		bl	BackupPage	@
 140:.\src/flash_program.c **** 		ErasePage(PAGE28,0);
 354              		.loc 1 140 0
 355 0144 1A4B     		ldr	r3, .L23+36	@ tmp205,
 356 0146 181C     		mov	r0, r3	@, tmp205
 357 0148 0021     		mov	r1, #0	@,
 358 014a FFF7FEFF 		bl	ErasePage	@
 141:.\src/flash_program.c **** 		if (UpdateNewCode(memory_backup.v_bkp, position, new_code) == FAILED)
 359              		.loc 1 141 0
 360 014e 1149     		ldr	r1, .L23+8	@ tmp206,
 361 0150 6B46     		mov	r3, sp	@ tmp207,
 362 0152 0633     		add	r3, r3, #6	@ tmp207,
 363 0154 1A88     		ldrh	r2, [r3]	@ tmp208, position
 364 0156 009B     		ldr	r3, [sp]	@ tmp209, new_code
 365 0158 081C     		mov	r0, r1	@, tmp206
 366 015a 111C     		mov	r1, r2	@, tmp208
 367 015c 1A1C     		mov	r2, r3	@, tmp209
 368 015e FFF7FEFF 		bl	UpdateNewCode	@
 369 0162 031C     		mov	r3, r0	@ tmp210,
 370 0164 002B     		cmp	r3, #0	@ D.4903,
 371 0166 01D1     		bne	.L22	@,
 142:.\src/flash_program.c **** 			return FAILED;
ARM GAS  C:\Users\Mariano\AppData\Local\Temp\cc5SrqNx.s 			page 10


 372              		.loc 1 142 0
 373 0168 0023     		mov	r3, #0	@ D.4870,
 374 016a 0CE0     		b	.L14	@
 375              	.L22:
 143:.\src/flash_program.c **** 
 144:.\src/flash_program.c **** 		if (WritePage(memory_backup.v_bkp, PAGE28, 1) == FAILED)
 376              		.loc 1 144 0
 377 016c 094A     		ldr	r2, .L23+8	@ tmp212,
 378 016e 104B     		ldr	r3, .L23+36	@ tmp213,
 379 0170 101C     		mov	r0, r2	@, tmp212
 380 0172 191C     		mov	r1, r3	@, tmp213
 381 0174 0122     		mov	r2, #1	@,
 382 0176 FFF7FEFF 		bl	WritePage	@
 383 017a 031C     		mov	r3, r0	@ tmp214,
 384 017c 002B     		cmp	r3, #0	@ D.4906,
 385 017e 01D1     		bne	.L17	@,
 145:.\src/flash_program.c **** 			return FAILED;
 386              		.loc 1 145 0
 387 0180 0023     		mov	r3, #0	@ D.4870,
 388 0182 00E0     		b	.L14	@
 389              	.L17:
 146:.\src/flash_program.c **** 	}
 147:.\src/flash_program.c **** 
 148:.\src/flash_program.c **** 	return PASSED;
 390              		.loc 1 148 0
 391 0184 0123     		mov	r3, #1	@ D.4870,
 392              	.L14:
 149:.\src/flash_program.c **** }
 393              		.loc 1 149 0
 394 0186 181C     		mov	r0, r3	@, <retval>
 395 0188 03B0     		add	sp, sp, #12	@,,
 396              		@ sp needed for prologue	@
 397 018a 00BD     		pop	{pc}
 398              	.L24:
 399              		.align	2
 400              	.L23:
 401 018c FF030000 		.word	1023
 402 0190 FF020000 		.word	767
 403 0194 00000000 		.word	memory_backup
 404 0198 007C0008 		.word	134249472
 405 019c 00FDFFFF 		.word	-768
 406 01a0 FF010000 		.word	511
 407 01a4 00780008 		.word	134248448
 408 01a8 00FEFFFF 		.word	-512
 409 01ac 00740008 		.word	134247424
 410 01b0 00700008 		.word	134246400
 411              		.cfi_endproc
 412              	.LFE22:
 413              		.size	Write_Code_To_Memory_FLASH, .-Write_Code_To_Memory_FLASH
 414              		.section	.text.BackupPage,"ax",%progbits
 415              		.align	2
 416              		.global	BackupPage
 417              		.code	16
 418              		.thumb_func
 419              		.type	BackupPage, %function
 420              	BackupPage:
 421              	.LFB23:
ARM GAS  C:\Users\Mariano\AppData\Local\Temp\cc5SrqNx.s 			page 11


 150:.\src/flash_program.c **** /**
 151:.\src/flash_program.c ****   * @brief    After Reset, the Flash memory Program/Erase Controller is locked.
 152:.\src/flash_program.c ****   * To unlock it, the FLASH_Unlock function is used. Before programming the
 153:.\src/flash_program.c ****   * desired addresses, an erase operation is performed using the flash erase
 154:.\src/flash_program.c ****   * page feature. The erase procedure starts with the calculation of the number
 155:.\src/flash_program.c ****   * of pages to be used. Then all these pages will be erased one by one by
 156:.\src/flash_program.c ****   * calling FLASH_ErasePage function.
 157:.\src/flash_program.c ****   * Once this operation is finished, the programming operation will be performed by
 158:.\src/flash_program.c ****   * using the FLASH_ProgramWord function. The written data is then checked and the
 159:.\src/flash_program.c ****   * result of the programming operation is stored into the MemoryProgramStatus variable.
 160:.\src/flash_program.c ****   * @param  None
 161:.\src/flash_program.c ****   * @retval None
 162:.\src/flash_program.c ****   */
 163:.\src/flash_program.c **** 
 164:.\src/flash_program.c **** void BackupPage(unsigned int * p, unsigned int * page_addr)
 165:.\src/flash_program.c **** {
 422              		.loc 1 165 0
 423              		.cfi_startproc
 424 0000 84B0     		sub	sp, sp, #16	@,,
 425              	.LCFI4:
 426              		.cfi_def_cfa_offset 16
 427 0002 0190     		str	r0, [sp, #4]	@ p, p
 428 0004 0091     		str	r1, [sp]	@ page_addr, page_addr
 166:.\src/flash_program.c **** 	unsigned short i;
 167:.\src/flash_program.c **** 
 168:.\src/flash_program.c **** 	for (i = 0; i < 255; i++)
 429              		.loc 1 168 0
 430 0006 6B46     		mov	r3, sp	@ tmp141,
 431 0008 0E33     		add	r3, r3, #14	@ tmp141,
 432 000a 0022     		mov	r2, #0	@ tmp142,
 433 000c 1A80     		strh	r2, [r3]	@ tmp143, i
 434 000e 14E0     		b	.L26	@
 435              	.L27:
 169:.\src/flash_program.c **** 	{
 170:.\src/flash_program.c **** 		*(p + i) = *(page_addr + i);
 436              		.loc 1 170 0 discriminator 2
 437 0010 6B46     		mov	r3, sp	@ tmp144,
 438 0012 0E33     		add	r3, r3, #14	@ tmp144,
 439 0014 1B88     		ldrh	r3, [r3]	@ D.4861, i
 440 0016 9B00     		lsl	r3, r3, #2	@ D.4862, D.4861,
 441 0018 019A     		ldr	r2, [sp, #4]	@ tmp145, p
 442 001a D318     		add	r3, r2, r3	@ D.4863, tmp145, D.4862
 443 001c 6A46     		mov	r2, sp	@ tmp146,
 444 001e 0E32     		add	r2, r2, #14	@ tmp146,
 445 0020 1288     		ldrh	r2, [r2]	@ D.4864, i
 446 0022 9200     		lsl	r2, r2, #2	@ D.4865, D.4864,
 447 0024 0099     		ldr	r1, [sp]	@ tmp147, page_addr
 448 0026 8A18     		add	r2, r1, r2	@ D.4866, tmp147, D.4865
 449 0028 1268     		ldr	r2, [r2]	@ D.4867, *D.4866_10
 450 002a 1A60     		str	r2, [r3]	@ D.4867, *D.4863_6
 168:.\src/flash_program.c **** 	for (i = 0; i < 255; i++)
 451              		.loc 1 168 0 discriminator 2
 452 002c 6B46     		mov	r3, sp	@ tmp148,
 453 002e 0E33     		add	r3, r3, #14	@ tmp148,
 454 0030 6A46     		mov	r2, sp	@ tmp149,
 455 0032 0E32     		add	r2, r2, #14	@ tmp149,
 456 0034 1288     		ldrh	r2, [r2]	@ tmp150, i
ARM GAS  C:\Users\Mariano\AppData\Local\Temp\cc5SrqNx.s 			page 12


 457 0036 0132     		add	r2, r2, #1	@ tmp151,
 458 0038 1A80     		strh	r2, [r3]	@ tmp152, i
 459              	.L26:
 168:.\src/flash_program.c **** 	for (i = 0; i < 255; i++)
 460              		.loc 1 168 0 is_stmt 0 discriminator 1
 461 003a 6B46     		mov	r3, sp	@ tmp153,
 462 003c 0E33     		add	r3, r3, #14	@ tmp153,
 463 003e 1B88     		ldrh	r3, [r3]	@ tmp154, i
 464 0040 FE2B     		cmp	r3, #254	@ tmp154,
 465 0042 E5D9     		bls	.L27	@,
 171:.\src/flash_program.c **** 	}
 172:.\src/flash_program.c **** }
 466              		.loc 1 172 0 is_stmt 1
 467 0044 04B0     		add	sp, sp, #16	@,,
 468              		@ sp needed for prologue	@
 469 0046 7047     		bx	lr
 470              		.cfi_endproc
 471              	.LFE23:
 472              		.size	BackupPage, .-BackupPage
 473              		.section	.text.ErasePage,"ax",%progbits
 474              		.align	2
 475              		.global	ErasePage
 476              		.code	16
 477              		.thumb_func
 478              		.type	ErasePage, %function
 479              	ErasePage:
 480              	.LFB24:
 173:.\src/flash_program.c **** 
 174:.\src/flash_program.c **** void ErasePage(uint32_t p_addr, unsigned char with_lock)
 175:.\src/flash_program.c **** {
 481              		.loc 1 175 0
 482              		.cfi_startproc
 483 0000 00B5     		push	{lr}	@
 484              	.LCFI5:
 485              		.cfi_def_cfa_offset 4
 486              		.cfi_offset 14, -4
 487 0002 83B0     		sub	sp, sp, #12	@,,
 488              	.LCFI6:
 489              		.cfi_def_cfa_offset 16
 490 0004 0190     		str	r0, [sp, #4]	@ p_addr, p_addr
 491 0006 0A1C     		mov	r2, r1	@ tmp134, with_lock
 492 0008 6B46     		mov	r3, sp	@ tmp135,
 493 000a 0333     		add	r3, r3, #3	@ tmp135,
 494 000c 1A70     		strb	r2, [r3]	@ tmp136, with_lock
 176:.\src/flash_program.c **** 	FLASH_Unlock();
 495              		.loc 1 176 0
 496 000e FFF7FEFF 		bl	FLASH_Unlock	@
 177:.\src/flash_program.c **** 	FLASH_ErasePage(p_addr);
 497              		.loc 1 177 0
 498 0012 019B     		ldr	r3, [sp, #4]	@ tmp137, p_addr
 499 0014 181C     		mov	r0, r3	@, tmp137
 500 0016 FFF7FEFF 		bl	FLASH_ErasePage	@
 178:.\src/flash_program.c **** 	if (with_lock)
 501              		.loc 1 178 0
 502 001a 6B46     		mov	r3, sp	@ tmp138,
 503 001c 0333     		add	r3, r3, #3	@ tmp138,
 504 001e 1B78     		ldrb	r3, [r3]	@ tmp139, with_lock
ARM GAS  C:\Users\Mariano\AppData\Local\Temp\cc5SrqNx.s 			page 13


 505 0020 002B     		cmp	r3, #0	@ tmp139,
 506 0022 01D0     		beq	.L28	@,
 179:.\src/flash_program.c **** 		FLASH_Lock();
 507              		.loc 1 179 0
 508 0024 FFF7FEFF 		bl	FLASH_Lock	@
 509              	.L28:
 180:.\src/flash_program.c **** }
 510              		.loc 1 180 0
 511 0028 03B0     		add	sp, sp, #12	@,,
 512              		@ sp needed for prologue	@
 513 002a 00BD     		pop	{pc}
 514              		.cfi_endproc
 515              	.LFE24:
 516              		.size	ErasePage, .-ErasePage
 517              		.section	.text.UpdateNewCode,"ax",%progbits
 518              		.align	2
 519              		.global	UpdateNewCode
 520              		.code	16
 521              		.thumb_func
 522              		.type	UpdateNewCode, %function
 523              	UpdateNewCode:
 524              	.LFB25:
 181:.\src/flash_program.c **** 
 182:.\src/flash_program.c **** unsigned char UpdateNewCode(unsigned int * p, unsigned short posi, unsigned int new_code)
 183:.\src/flash_program.c **** {
 525              		.loc 1 183 0
 526              		.cfi_startproc
 527 0000 84B0     		sub	sp, sp, #16	@,,
 528              	.LCFI7:
 529              		.cfi_def_cfa_offset 16
 530 0002 0390     		str	r0, [sp, #12]	@ p, p
 531 0004 0192     		str	r2, [sp, #4]	@ new_code, new_code
 532 0006 6B46     		mov	r3, sp	@ tmp140,
 533 0008 0A33     		add	r3, r3, #10	@ tmp140,
 534 000a 0A1C     		add	r2, r1, #0	@ tmp141, tmp139
 535 000c 1A80     		strh	r2, [r3]	@ tmp141, posi
 184:.\src/flash_program.c **** 	if (posi > 255)
 536              		.loc 1 184 0
 537 000e 6B46     		mov	r3, sp	@ tmp142,
 538 0010 0A33     		add	r3, r3, #10	@ tmp142,
 539 0012 1B88     		ldrh	r3, [r3]	@ tmp143, posi
 540 0014 FF2B     		cmp	r3, #255	@ tmp143,
 541 0016 01D9     		bls	.L31	@,
 185:.\src/flash_program.c **** 		return FAILED;
 542              		.loc 1 185 0
 543 0018 0023     		mov	r3, #0	@ D.4854,
 544 001a 08E0     		b	.L32	@
 545              	.L31:
 186:.\src/flash_program.c **** 
 187:.\src/flash_program.c **** 	*(p + posi ) = new_code;
 546              		.loc 1 187 0
 547 001c 6B46     		mov	r3, sp	@ tmp144,
 548 001e 0A33     		add	r3, r3, #10	@ tmp144,
 549 0020 1B88     		ldrh	r3, [r3]	@ D.4855, posi
 550 0022 9B00     		lsl	r3, r3, #2	@ D.4856, D.4855,
 551 0024 039A     		ldr	r2, [sp, #12]	@ tmp145, p
 552 0026 D318     		add	r3, r2, r3	@ D.4857, tmp145, D.4856
ARM GAS  C:\Users\Mariano\AppData\Local\Temp\cc5SrqNx.s 			page 14


 553 0028 019A     		ldr	r2, [sp, #4]	@ tmp146, new_code
 554 002a 1A60     		str	r2, [r3]	@ tmp146, *D.4857_7
 188:.\src/flash_program.c **** 
 189:.\src/flash_program.c **** 	return PASSED;
 555              		.loc 1 189 0
 556 002c 0123     		mov	r3, #1	@ D.4854,
 557              	.L32:
 190:.\src/flash_program.c **** }
 558              		.loc 1 190 0
 559 002e 181C     		mov	r0, r3	@, <retval>
 560 0030 04B0     		add	sp, sp, #16	@,,
 561              		@ sp needed for prologue	@
 562 0032 7047     		bx	lr
 563              		.cfi_endproc
 564              	.LFE25:
 565              		.size	UpdateNewCode, .-UpdateNewCode
 566              		.section	.text.WritePage,"ax",%progbits
 567              		.align	2
 568              		.global	WritePage
 569              		.code	16
 570              		.thumb_func
 571              		.type	WritePage, %function
 572              	WritePage:
 573              	.LFB26:
 191:.\src/flash_program.c **** 
 192:.\src/flash_program.c **** unsigned char WritePage(unsigned int * p, uint32_t p_addr, unsigned char with_lock)
 193:.\src/flash_program.c **** {
 574              		.loc 1 193 0
 575              		.cfi_startproc
 576 0000 00B5     		push	{lr}	@
 577              	.LCFI8:
 578              		.cfi_def_cfa_offset 4
 579              		.cfi_offset 14, -4
 580 0002 87B0     		sub	sp, sp, #28	@,,
 581              	.LCFI9:
 582              		.cfi_def_cfa_offset 32
 583 0004 0390     		str	r0, [sp, #12]	@ p, p
 584 0006 0291     		str	r1, [sp, #8]	@ p_addr, p_addr
 585 0008 6B46     		mov	r3, sp	@ tmp149,
 586 000a 0733     		add	r3, r3, #7	@ tmp149,
 587 000c 1A70     		strb	r2, [r3]	@ tmp150, with_lock
 194:.\src/flash_program.c **** 	unsigned short i;
 195:.\src/flash_program.c **** 	unsigned int * p_verif;
 196:.\src/flash_program.c **** 
 197:.\src/flash_program.c **** 	p_verif = (unsigned int *) p_addr;
 588              		.loc 1 197 0
 589 000e 029B     		ldr	r3, [sp, #8]	@ tmp151, p_addr
 590 0010 0493     		str	r3, [sp, #16]	@ tmp151, p_verif
 198:.\src/flash_program.c **** 
 199:.\src/flash_program.c **** 	for (i = 0; i < 255; i++)
 591              		.loc 1 199 0
 592 0012 6B46     		mov	r3, sp	@ tmp152,
 593 0014 1633     		add	r3, r3, #22	@ tmp152,
 594 0016 0022     		mov	r2, #0	@ tmp153,
 595 0018 1A80     		strh	r2, [r3]	@ tmp154, i
 596 001a 15E0     		b	.L34	@
 597              	.L35:
ARM GAS  C:\Users\Mariano\AppData\Local\Temp\cc5SrqNx.s 			page 15


 200:.\src/flash_program.c **** 	{
 201:.\src/flash_program.c **** 		FLASH_ProgramWord(p_addr, *(p + i));
 598              		.loc 1 201 0 discriminator 2
 599 001c 6B46     		mov	r3, sp	@ tmp155,
 600 001e 1633     		add	r3, r3, #22	@ tmp155,
 601 0020 1B88     		ldrh	r3, [r3]	@ D.4834, i
 602 0022 9B00     		lsl	r3, r3, #2	@ D.4835, D.4834,
 603 0024 039A     		ldr	r2, [sp, #12]	@ tmp156, p
 604 0026 D318     		add	r3, r2, r3	@ D.4836, tmp156, D.4835
 605 0028 1B68     		ldr	r3, [r3]	@ D.4837, *D.4836_11
 606 002a 029A     		ldr	r2, [sp, #8]	@ tmp157, p_addr
 607 002c 101C     		mov	r0, r2	@, tmp157
 608 002e 191C     		mov	r1, r3	@, D.4837
 609 0030 FFF7FEFF 		bl	FLASH_ProgramWord	@
 202:.\src/flash_program.c **** 		p_addr += 4;
 610              		.loc 1 202 0 discriminator 2
 611 0034 029B     		ldr	r3, [sp, #8]	@ tmp159, p_addr
 612 0036 0433     		add	r3, r3, #4	@ tmp158,
 613 0038 0293     		str	r3, [sp, #8]	@ tmp158, p_addr
 199:.\src/flash_program.c **** 	for (i = 0; i < 255; i++)
 614              		.loc 1 199 0 discriminator 2
 615 003a 6B46     		mov	r3, sp	@ tmp160,
 616 003c 1633     		add	r3, r3, #22	@ tmp160,
 617 003e 6A46     		mov	r2, sp	@ tmp161,
 618 0040 1632     		add	r2, r2, #22	@ tmp161,
 619 0042 1288     		ldrh	r2, [r2]	@ tmp162, i
 620 0044 0132     		add	r2, r2, #1	@ tmp163,
 621 0046 1A80     		strh	r2, [r3]	@ tmp164, i
 622              	.L34:
 199:.\src/flash_program.c **** 	for (i = 0; i < 255; i++)
 623              		.loc 1 199 0 is_stmt 0 discriminator 1
 624 0048 6B46     		mov	r3, sp	@ tmp165,
 625 004a 1633     		add	r3, r3, #22	@ tmp165,
 626 004c 1B88     		ldrh	r3, [r3]	@ tmp166, i
 627 004e FE2B     		cmp	r3, #254	@ tmp166,
 628 0050 E4D9     		bls	.L35	@,
 203:.\src/flash_program.c **** 	}
 204:.\src/flash_program.c **** 
 205:.\src/flash_program.c **** 	if (with_lock)
 629              		.loc 1 205 0 is_stmt 1
 630 0052 6B46     		mov	r3, sp	@ tmp167,
 631 0054 0733     		add	r3, r3, #7	@ tmp167,
 632 0056 1B78     		ldrb	r3, [r3]	@ tmp168, with_lock
 633 0058 002B     		cmp	r3, #0	@ tmp168,
 634 005a 01D0     		beq	.L36	@,
 206:.\src/flash_program.c **** 		FLASH_Lock();
 635              		.loc 1 206 0
 636 005c FFF7FEFF 		bl	FLASH_Lock	@
 637              	.L36:
 207:.\src/flash_program.c **** 
 208:.\src/flash_program.c **** 	//verifico memoria
 209:.\src/flash_program.c **** 	for (i = 0; i < 255; i++)
 638              		.loc 1 209 0
 639 0060 6B46     		mov	r3, sp	@ tmp169,
 640 0062 1633     		add	r3, r3, #22	@ tmp169,
 641 0064 0022     		mov	r2, #0	@ tmp170,
 642 0066 1A80     		strh	r2, [r3]	@ tmp171, i
ARM GAS  C:\Users\Mariano\AppData\Local\Temp\cc5SrqNx.s 			page 16


 643 0068 18E0     		b	.L37	@
 644              	.L40:
 210:.\src/flash_program.c **** 	{
 211:.\src/flash_program.c **** 		if (*(p_verif + i) != *(p + i))
 645              		.loc 1 211 0
 646 006a 6B46     		mov	r3, sp	@ tmp172,
 647 006c 1633     		add	r3, r3, #22	@ tmp172,
 648 006e 1B88     		ldrh	r3, [r3]	@ D.4840, i
 649 0070 9B00     		lsl	r3, r3, #2	@ D.4841, D.4840,
 650 0072 049A     		ldr	r2, [sp, #16]	@ tmp173, p_verif
 651 0074 D318     		add	r3, r2, r3	@ D.4842, tmp173, D.4841
 652 0076 1A68     		ldr	r2, [r3]	@ D.4843, *D.4842_19
 653 0078 6B46     		mov	r3, sp	@ tmp174,
 654 007a 1633     		add	r3, r3, #22	@ tmp174,
 655 007c 1B88     		ldrh	r3, [r3]	@ D.4844, i
 656 007e 9B00     		lsl	r3, r3, #2	@ D.4845, D.4844,
 657 0080 0399     		ldr	r1, [sp, #12]	@ tmp175, p
 658 0082 CB18     		add	r3, r1, r3	@ D.4846, tmp175, D.4845
 659 0084 1B68     		ldr	r3, [r3]	@ D.4847, *D.4846_23
 660 0086 9A42     		cmp	r2, r3	@ D.4843, D.4847
 661 0088 01D0     		beq	.L38	@,
 212:.\src/flash_program.c **** 			return FAILED;
 662              		.loc 1 212 0
 663 008a 0023     		mov	r3, #0	@ D.4850,
 664 008c 0CE0     		b	.L39	@
 665              	.L38:
 209:.\src/flash_program.c **** 	for (i = 0; i < 255; i++)
 666              		.loc 1 209 0
 667 008e 6B46     		mov	r3, sp	@ tmp176,
 668 0090 1633     		add	r3, r3, #22	@ tmp176,
 669 0092 6A46     		mov	r2, sp	@ tmp177,
 670 0094 1632     		add	r2, r2, #22	@ tmp177,
 671 0096 1288     		ldrh	r2, [r2]	@ tmp178, i
 672 0098 0132     		add	r2, r2, #1	@ tmp179,
 673 009a 1A80     		strh	r2, [r3]	@ tmp180, i
 674              	.L37:
 209:.\src/flash_program.c **** 	for (i = 0; i < 255; i++)
 675              		.loc 1 209 0 is_stmt 0 discriminator 1
 676 009c 6B46     		mov	r3, sp	@ tmp181,
 677 009e 1633     		add	r3, r3, #22	@ tmp181,
 678 00a0 1B88     		ldrh	r3, [r3]	@ tmp182, i
 679 00a2 FE2B     		cmp	r3, #254	@ tmp182,
 680 00a4 E1D9     		bls	.L40	@,
 213:.\src/flash_program.c **** 	}
 214:.\src/flash_program.c **** 	return PASSED;
 681              		.loc 1 214 0 is_stmt 1
 682 00a6 0123     		mov	r3, #1	@ D.4850,
 683              	.L39:
 215:.\src/flash_program.c **** }
 684              		.loc 1 215 0
 685 00a8 181C     		mov	r0, r3	@, <retval>
 686 00aa 07B0     		add	sp, sp, #28	@,,
 687              		@ sp needed for prologue	@
 688 00ac 00BD     		pop	{pc}
 689              		.cfi_endproc
 690              	.LFE26:
 691              		.size	WritePage, .-WritePage
ARM GAS  C:\Users\Mariano\AppData\Local\Temp\cc5SrqNx.s 			page 17


 692 00ae C046     		.section	.text.WriteConfigurations,"ax",%progbits
 693              		.align	2
 694              		.global	WriteConfigurations
 695              		.code	16
 696              		.thumb_func
 697              		.type	WriteConfigurations, %function
 698              	WriteConfigurations:
 699              	.LFB27:
 216:.\src/flash_program.c **** 
 217:.\src/flash_program.c **** 
 218:.\src/flash_program.c **** unsigned char WriteConfigurations (void)
 219:.\src/flash_program.c **** {
 700              		.loc 1 219 0
 701              		.cfi_startproc
 702 0000 00B5     		push	{lr}	@
 703              	.LCFI10:
 704              		.cfi_def_cfa_offset 4
 705              		.cfi_offset 14, -4
 706 0002 83B0     		sub	sp, sp, #12	@,,
 707              	.LCFI11:
 708              		.cfi_def_cfa_offset 16
 220:.\src/flash_program.c **** 	parameters_typedef * p_param;
 221:.\src/flash_program.c **** 
 222:.\src/flash_program.c **** 	ErasePage(PAGE31,0);
 709              		.loc 1 222 0
 710 0004 0B4B     		ldr	r3, .L44	@ tmp137,
 711 0006 181C     		mov	r0, r3	@, tmp137
 712 0008 0021     		mov	r1, #0	@,
 713 000a FFF7FEFF 		bl	ErasePage	@
 223:.\src/flash_program.c **** 
 224:.\src/flash_program.c **** 	//update en memoria
 225:.\src/flash_program.c **** 	p_param = &param_struct;
 714              		.loc 1 225 0
 715 000e 0A4B     		ldr	r3, .L44+4	@ tmp138,
 716 0010 0193     		str	r3, [sp, #4]	@ tmp138, p_param
 226:.\src/flash_program.c **** 
 227:.\src/flash_program.c **** 	if (WriteFlash((unsigned int *) p_param, PAGE31, 1, sizeof(parameters_typedef)) == FAILED)
 717              		.loc 1 227 0
 718 0012 019A     		ldr	r2, [sp, #4]	@ tmp139, p_param
 719 0014 074B     		ldr	r3, .L44	@ tmp140,
 720 0016 101C     		mov	r0, r2	@, tmp139
 721 0018 191C     		mov	r1, r3	@, tmp140
 722 001a 0122     		mov	r2, #1	@,
 723 001c 0C23     		mov	r3, #12	@,
 724 001e FFF7FEFF 		bl	WriteFlash	@
 725 0022 031C     		mov	r3, r0	@ tmp141,
 726 0024 002B     		cmp	r3, #0	@ D.4829,
 727 0026 01D1     		bne	.L42	@,
 228:.\src/flash_program.c **** 		return FAILED;
 728              		.loc 1 228 0
 729 0028 0023     		mov	r3, #0	@ D.4832,
 730 002a 00E0     		b	.L43	@
 731              	.L42:
 229:.\src/flash_program.c **** 
 230:.\src/flash_program.c **** 	return PASSED;
 732              		.loc 1 230 0
 733 002c 0123     		mov	r3, #1	@ D.4832,
ARM GAS  C:\Users\Mariano\AppData\Local\Temp\cc5SrqNx.s 			page 18


 734              	.L43:
 231:.\src/flash_program.c **** }
 735              		.loc 1 231 0
 736 002e 181C     		mov	r0, r3	@, <retval>
 737 0030 03B0     		add	sp, sp, #12	@,,
 738              		@ sp needed for prologue	@
 739 0032 00BD     		pop	{pc}
 740              	.L45:
 741              		.align	2
 742              	.L44:
 743 0034 007C0008 		.word	134249472
 744 0038 00000000 		.word	param_struct
 745              		.cfi_endproc
 746              	.LFE27:
 747              		.size	WriteConfigurations, .-WriteConfigurations
 748              		.section	.text.WriteFlash,"ax",%progbits
 749              		.align	2
 750              		.global	WriteFlash
 751              		.code	16
 752              		.thumb_func
 753              		.type	WriteFlash, %function
 754              	WriteFlash:
 755              	.LFB28:
 232:.\src/flash_program.c **** 
 233:.\src/flash_program.c **** unsigned char WriteFlash(unsigned int * p, uint32_t p_addr, unsigned char with_lock, unsigned char 
 234:.\src/flash_program.c **** {
 756              		.loc 1 234 0
 757              		.cfi_startproc
 758 0000 00B5     		push	{lr}	@
 759              	.LCFI12:
 760              		.cfi_def_cfa_offset 4
 761              		.cfi_offset 14, -4
 762 0002 87B0     		sub	sp, sp, #28	@,,
 763              	.LCFI13:
 764              		.cfi_def_cfa_offset 32
 765 0004 0390     		str	r0, [sp, #12]	@ p, p
 766 0006 0291     		str	r1, [sp, #8]	@ p_addr, p_addr
 767 0008 111C     		mov	r1, r2	@ tmp150, with_lock
 768 000a 1A1C     		mov	r2, r3	@ tmp153, len_in_4
 769 000c 6B46     		mov	r3, sp	@ tmp151,
 770 000e 0733     		add	r3, r3, #7	@ tmp151,
 771 0010 1970     		strb	r1, [r3]	@ tmp152, with_lock
 772 0012 6B46     		mov	r3, sp	@ tmp154,
 773 0014 0633     		add	r3, r3, #6	@ tmp154,
 774 0016 1A70     		strb	r2, [r3]	@ tmp155, len_in_4
 235:.\src/flash_program.c **** 	unsigned short i;
 236:.\src/flash_program.c **** 	unsigned int * p_verif;
 237:.\src/flash_program.c **** 
 238:.\src/flash_program.c **** 	p_verif = (unsigned int *) p_addr;
 775              		.loc 1 238 0
 776 0018 029B     		ldr	r3, [sp, #8]	@ tmp156, p_addr
 777 001a 0493     		str	r3, [sp, #16]	@ tmp156, p_verif
 239:.\src/flash_program.c **** 
 240:.\src/flash_program.c **** 	for (i = 0; i < len_in_4; i++)
 778              		.loc 1 240 0
 779 001c 6B46     		mov	r3, sp	@ tmp157,
 780 001e 1633     		add	r3, r3, #22	@ tmp157,
ARM GAS  C:\Users\Mariano\AppData\Local\Temp\cc5SrqNx.s 			page 19


 781 0020 0022     		mov	r2, #0	@ tmp158,
 782 0022 1A80     		strh	r2, [r3]	@ tmp159, i
 783 0024 15E0     		b	.L47	@
 784              	.L48:
 241:.\src/flash_program.c **** 	{
 242:.\src/flash_program.c **** 		FLASH_ProgramWord(p_addr, *(p + i));
 785              		.loc 1 242 0 discriminator 2
 786 0026 6B46     		mov	r3, sp	@ tmp160,
 787 0028 1633     		add	r3, r3, #22	@ tmp160,
 788 002a 1B88     		ldrh	r3, [r3]	@ D.4809, i
 789 002c 9B00     		lsl	r3, r3, #2	@ D.4810, D.4809,
 790 002e 039A     		ldr	r2, [sp, #12]	@ tmp161, p
 791 0030 D318     		add	r3, r2, r3	@ D.4811, tmp161, D.4810
 792 0032 1B68     		ldr	r3, [r3]	@ D.4812, *D.4811_13
 793 0034 029A     		ldr	r2, [sp, #8]	@ tmp162, p_addr
 794 0036 101C     		mov	r0, r2	@, tmp162
 795 0038 191C     		mov	r1, r3	@, D.4812
 796 003a FFF7FEFF 		bl	FLASH_ProgramWord	@
 243:.\src/flash_program.c **** 		p_addr += 4;
 797              		.loc 1 243 0 discriminator 2
 798 003e 029B     		ldr	r3, [sp, #8]	@ tmp164, p_addr
 799 0040 0433     		add	r3, r3, #4	@ tmp163,
 800 0042 0293     		str	r3, [sp, #8]	@ tmp163, p_addr
 240:.\src/flash_program.c **** 	for (i = 0; i < len_in_4; i++)
 801              		.loc 1 240 0 discriminator 2
 802 0044 6B46     		mov	r3, sp	@ tmp165,
 803 0046 1633     		add	r3, r3, #22	@ tmp165,
 804 0048 6A46     		mov	r2, sp	@ tmp166,
 805 004a 1632     		add	r2, r2, #22	@ tmp166,
 806 004c 1288     		ldrh	r2, [r2]	@ tmp167, i
 807 004e 0132     		add	r2, r2, #1	@ tmp168,
 808 0050 1A80     		strh	r2, [r3]	@ tmp169, i
 809              	.L47:
 240:.\src/flash_program.c **** 	for (i = 0; i < len_in_4; i++)
 810              		.loc 1 240 0 is_stmt 0 discriminator 1
 811 0052 6B46     		mov	r3, sp	@ tmp170,
 812 0054 0633     		add	r3, r3, #6	@ tmp170,
 813 0056 1B78     		ldrb	r3, [r3]	@ tmp172, len_in_4
 814 0058 9BB2     		uxth	r3, r3	@ D.4813, tmp171
 815 005a 6A46     		mov	r2, sp	@ tmp173,
 816 005c 1632     		add	r2, r2, #22	@ tmp173,
 817 005e 1288     		ldrh	r2, [r2]	@ tmp174, i
 818 0060 9A42     		cmp	r2, r3	@ tmp174, D.4813
 819 0062 E0D3     		bcc	.L48	@,
 244:.\src/flash_program.c **** 	}
 245:.\src/flash_program.c **** 
 246:.\src/flash_program.c **** 	if (with_lock)
 820              		.loc 1 246 0 is_stmt 1
 821 0064 6B46     		mov	r3, sp	@ tmp175,
 822 0066 0733     		add	r3, r3, #7	@ tmp175,
 823 0068 1B78     		ldrb	r3, [r3]	@ tmp176, with_lock
 824 006a 002B     		cmp	r3, #0	@ tmp176,
 825 006c 01D0     		beq	.L49	@,
 247:.\src/flash_program.c **** 		FLASH_Lock();
 826              		.loc 1 247 0
 827 006e FFF7FEFF 		bl	FLASH_Lock	@
 828              	.L49:
ARM GAS  C:\Users\Mariano\AppData\Local\Temp\cc5SrqNx.s 			page 20


 248:.\src/flash_program.c **** 
 249:.\src/flash_program.c **** 	//verifico memoria
 250:.\src/flash_program.c **** 	for (i = 0; i < len_in_4; i++)
 829              		.loc 1 250 0
 830 0072 6B46     		mov	r3, sp	@ tmp177,
 831 0074 1633     		add	r3, r3, #22	@ tmp177,
 832 0076 0022     		mov	r2, #0	@ tmp178,
 833 0078 1A80     		strh	r2, [r3]	@ tmp179, i
 834 007a 18E0     		b	.L50	@
 835              	.L53:
 251:.\src/flash_program.c **** 	{
 252:.\src/flash_program.c **** 		if (*(p_verif + i) != *(p + i))
 836              		.loc 1 252 0
 837 007c 6B46     		mov	r3, sp	@ tmp180,
 838 007e 1633     		add	r3, r3, #22	@ tmp180,
 839 0080 1B88     		ldrh	r3, [r3]	@ D.4816, i
 840 0082 9B00     		lsl	r3, r3, #2	@ D.4817, D.4816,
 841 0084 049A     		ldr	r2, [sp, #16]	@ tmp181, p_verif
 842 0086 D318     		add	r3, r2, r3	@ D.4818, tmp181, D.4817
 843 0088 1A68     		ldr	r2, [r3]	@ D.4819, *D.4818_22
 844 008a 6B46     		mov	r3, sp	@ tmp182,
 845 008c 1633     		add	r3, r3, #22	@ tmp182,
 846 008e 1B88     		ldrh	r3, [r3]	@ D.4820, i
 847 0090 9B00     		lsl	r3, r3, #2	@ D.4821, D.4820,
 848 0092 0399     		ldr	r1, [sp, #12]	@ tmp183, p
 849 0094 CB18     		add	r3, r1, r3	@ D.4822, tmp183, D.4821
 850 0096 1B68     		ldr	r3, [r3]	@ D.4823, *D.4822_26
 851 0098 9A42     		cmp	r2, r3	@ D.4819, D.4823
 852 009a 01D0     		beq	.L51	@,
 253:.\src/flash_program.c **** 			return FAILED;
 853              		.loc 1 253 0
 854 009c 0023     		mov	r3, #0	@ D.4826,
 855 009e 10E0     		b	.L52	@
 856              	.L51:
 250:.\src/flash_program.c **** 	for (i = 0; i < len_in_4; i++)
 857              		.loc 1 250 0
 858 00a0 6B46     		mov	r3, sp	@ tmp184,
 859 00a2 1633     		add	r3, r3, #22	@ tmp184,
 860 00a4 6A46     		mov	r2, sp	@ tmp185,
 861 00a6 1632     		add	r2, r2, #22	@ tmp185,
 862 00a8 1288     		ldrh	r2, [r2]	@ tmp186, i
 863 00aa 0132     		add	r2, r2, #1	@ tmp187,
 864 00ac 1A80     		strh	r2, [r3]	@ tmp188, i
 865              	.L50:
 250:.\src/flash_program.c **** 	for (i = 0; i < len_in_4; i++)
 866              		.loc 1 250 0 is_stmt 0 discriminator 1
 867 00ae 6B46     		mov	r3, sp	@ tmp189,
 868 00b0 0633     		add	r3, r3, #6	@ tmp189,
 869 00b2 1B78     		ldrb	r3, [r3]	@ tmp191, len_in_4
 870 00b4 9BB2     		uxth	r3, r3	@ D.4827, tmp190
 871 00b6 6A46     		mov	r2, sp	@ tmp192,
 872 00b8 1632     		add	r2, r2, #22	@ tmp192,
 873 00ba 1288     		ldrh	r2, [r2]	@ tmp193, i
 874 00bc 9A42     		cmp	r2, r3	@ tmp193, D.4827
 875 00be DDD3     		bcc	.L53	@,
 254:.\src/flash_program.c **** 	}
 255:.\src/flash_program.c **** 	return PASSED;
ARM GAS  C:\Users\Mariano\AppData\Local\Temp\cc5SrqNx.s 			page 21


 876              		.loc 1 255 0 is_stmt 1
 877 00c0 0123     		mov	r3, #1	@ D.4826,
 878              	.L52:
 256:.\src/flash_program.c **** }
 879              		.loc 1 256 0
 880 00c2 181C     		mov	r0, r3	@, <retval>
 881 00c4 07B0     		add	sp, sp, #28	@,,
 882              		@ sp needed for prologue	@
 883 00c6 00BD     		pop	{pc}
 884              		.cfi_endproc
 885              	.LFE28:
 886              		.size	WriteFlash, .-WriteFlash
 887              		.text
 888              	.Letext0:
 889              		.file 2 ".\\src\\flash_program.h"
 890              		.file 3 "c:\\program files (x86)\\gnu tools arm embedded\\4.7 2013q2\\bin\\../lib/gcc/arm-none-eab