ARM GAS  C:\Users\Mariano\AppData\Local\Temp\ccqsEEdp.s 			page 1


   1              		.cpu cortex-m0
   2              		.fpu softvfp
   3              		.eabi_attribute 20, 1	@ Tag_ABI_FP_denormal
   4              		.eabi_attribute 21, 1	@ Tag_ABI_FP_exceptions
   5              		.eabi_attribute 23, 3	@ Tag_ABI_FP_number_model
   6              		.eabi_attribute 24, 1	@ Tag_ABI_align8_needed
   7              		.eabi_attribute 25, 1	@ Tag_ABI_align8_preserved
   8              		.eabi_attribute 26, 1	@ Tag_ABI_enum_size
   9              		.eabi_attribute 30, 6	@ Tag_ABI_optimization_goals
  10              		.eabi_attribute 34, 0	@ Tag_CPU_unaligned_access
  11              		.eabi_attribute 18, 4	@ Tag_ABI_PCS_wchar_t
  12              		.file	"grouped.c"
  13              	@ GNU C (GNU Tools for ARM Embedded Processors) version 4.7.4 20130613 (release) [ARM/embedded-4_7-
  14              	@	compiled by GNU C version 4.2.1-sjlj (mingw32-2), GMP version 4.3.2, MPFR version 2.4.2, MPC vers
  15              	@ GGC heuristics: --param ggc-min-expand=100 --param ggc-min-heapsize=131072
  16              	@ options passed:  -I . -I .\src -I .\cmsis_boot -I .\cmsis_core
  17              	@ -I ..\STM32F0xx_StdPeriph_Lib_V1.3.1\Libraries\STM32F0xx_StdPeriph_Driver\inc
  18              	@ -I .\inc -I .\cmsis_boot -imultilib armv6-m
  19              	@ -iprefix c:\program files (x86)\gnu tools arm embedded\4.7 2013q2\bin\../lib/gcc/arm-none-eabi/4.
  20              	@ -isysroot c:\program files (x86)\gnu tools arm embedded\4.7 2013q2\bin\../arm-none-eabi
  21              	@ -MD .\src\grouped.d -MF .dep\grouped.o.d -MP -MQ .\src\grouped.o
  22              	@ -D__USES_INITFINI__ -D RUN_FROM_FLASH=1 .\src\grouped.c -mcpu=cortex-m0
  23              	@ -mthumb -auxbase-strip .\src\grouped.o -g -gdwarf-2 -O0 -Wall
  24              	@ -fomit-frame-pointer -fdata-sections -ffunction-sections -fverbose-asm
  25              	@ options enabled:  -fauto-inc-dec -fbranch-count-reg -fcommon
  26              	@ -fdata-sections -fdebug-types-section -fdelete-null-pointer-checks
  27              	@ -fdwarf2-cfi-asm -fearly-inlining -feliminate-unused-debug-types
  28              	@ -ffunction-cse -ffunction-sections -fgcse-lm -fgnu-runtime -fident
  29              	@ -finline-atomics -fira-hoist-pressure -fira-share-save-slots
  30              	@ -fira-share-spill-slots -fivopts -fkeep-static-consts
  31              	@ -fleading-underscore -fmath-errno -fmerge-debug-strings
  32              	@ -fmove-loop-invariants -fomit-frame-pointer -fpeephole
  33              	@ -fprefetch-loop-arrays -freg-struct-return
  34              	@ -fsched-critical-path-heuristic -fsched-dep-count-heuristic
  35              	@ -fsched-group-heuristic -fsched-interblock -fsched-last-insn-heuristic
  36              	@ -fsched-rank-heuristic -fsched-spec -fsched-spec-insn-heuristic
  37              	@ -fsched-stalled-insns-dep -fshow-column -fsigned-zeros
  38              	@ -fsplit-ivs-in-unroller -fstrict-volatile-bitfields -ftrapping-math
  39              	@ -ftree-cselim -ftree-forwprop -ftree-loop-if-convert -ftree-loop-im
  40              	@ -ftree-loop-ivcanon -ftree-loop-optimize -ftree-parallelize-loops=
  41              	@ -ftree-phiprop -ftree-pta -ftree-reassoc -ftree-scev-cprop
  42              	@ -ftree-slp-vectorize -ftree-vect-loop-version -funit-at-a-time
  43              	@ -fverbose-asm -fzero-initialized-in-bss -mlittle-endian -msched-prolog
  44              	@ -mthumb -mvectorize-with-neon-quad
  45              	
  46              		.text
  47              	.Ltext0:
  48              		.cfi_sections	.debug_frame
  49              		.global	grouped_state
  50              		.section	.bss.grouped_state,"aw",%nobits
  51              		.type	grouped_state, %object
  52              		.size	grouped_state, 1
  53              	grouped_state:
  54 0000 00       		.space	1
  55              		.global	grouped_selections
  56              		.section	.bss.grouped_selections,"aw",%nobits
  57              		.type	grouped_selections, %object
ARM GAS  C:\Users\Mariano\AppData\Local\Temp\ccqsEEdp.s 			page 2


  58              		.size	grouped_selections, 1
  59              	grouped_selections:
  60 0000 00       		.space	1
  61              		.global	grouped_ii
  62              		.section	.bss.grouped_ii,"aw",%nobits
  63              		.align	1
  64              		.type	grouped_ii, %object
  65              		.size	grouped_ii, 2
  66              	grouped_ii:
  67 0000 0000     		.space	2
  68              		.global	grouped_dimming_last_value
  69              		.section	.bss.grouped_dimming_last_value,"aw",%nobits
  70              		.type	grouped_dimming_last_value, %object
  71              		.size	grouped_dimming_last_value, 1
  72              	grouped_dimming_last_value:
  73 0000 00       		.space	1
  74              		.global	grouped_dimming_last_slope
  75              		.section	.bss.grouped_dimming_last_slope,"aw",%nobits
  76              		.type	grouped_dimming_last_slope, %object
  77              		.size	grouped_dimming_last_slope, 1
  78              	grouped_dimming_last_slope:
  79 0000 00       		.space	1
  80              		.global	grouped_menu_state
  81              		.section	.bss.grouped_menu_state,"aw",%nobits
  82              		.type	grouped_menu_state, %object
  83              		.size	grouped_menu_state, 1
  84              	grouped_menu_state:
  85 0000 00       		.space	1
  86              		.global	s_sel_g
  87              		.section	.rodata.s_sel_g,"a",%progbits
  88              		.align	2
  89              		.type	s_sel_g, %object
  90              		.size	s_sel_g, 3
  91              	s_sel_g:
  92 0000 02       		.byte	2
  93 0001 08       		.byte	8
  94 0002 0F       		.byte	15
  95              		.comm	GroupedStruct_local,18,4
  96              		.global	grouped_slave_dim_last
  97 0003 00       		.section	.bss.grouped_slave_dim_last,"aw",%nobits
  98              		.type	grouped_slave_dim_last, %object
  99              		.size	grouped_slave_dim_last, 1
 100              	grouped_slave_dim_last:
 101 0000 00       		.space	1
 102              		.global	grouped_slave_dim2_last
 103              		.section	.bss.grouped_slave_dim2_last,"aw",%nobits
 104              		.type	grouped_slave_dim2_last, %object
 105              		.size	grouped_slave_dim2_last, 1
 106              	grouped_slave_dim2_last:
 107 0000 00       		.space	1
 108              		.section	.rodata
 109              		.align	2
 110              	.LC9:
 111 0000 53776974 		.ascii	"Switching ON... \000"
 111      6368696E 
 111      67204F4E 
 111      2E2E2E20 
ARM GAS  C:\Users\Mariano\AppData\Local\Temp\ccqsEEdp.s 			page 3


 111      00
 112 0011 000000   		.align	2
 113              	.LC14:
 114 0014 20204C69 		.ascii	"  Lights ON     \000"
 114      67687473 
 114      204F4E20 
 114      20202020 
 114      00
 115 0025 000000   		.align	2
 116              	.LC16:
 117 0028 53776974 		.ascii	"Switching OFF...\000"
 117      6368696E 
 117      67204F46 
 117      462E2E2E 
 117      00
 118 0039 000000   		.align	2
 119              	.LC18:
 120 003c 20204C69 		.ascii	"  Lights OFF    \000"
 120      67687473 
 120      204F4646 
 120      20202020 
 120      00
 121 004d 000000   		.align	2
 122              	.LC22:
 123 0050 536C6176 		.ascii	"Slave Mode Working\000"
 123      65204D6F 
 123      64652057 
 123      6F726B69 
 123      6E6700
 124              		.global	__aeabi_uidiv
 125 0063 00       		.align	2
 126              	.LC27:
 127 0064 25336400 		.ascii	"%3d\000"
 128              		.align	2
 129              	.LC29:
 130 0068 2500     		.ascii	"%\000"
 131 006a 0000     		.align	2
 132              	.LC32:
 133 006c 20202020 		.ascii	"            \000"
 133      20202020 
 133      20202020 
 133      00
 134 0079 000000   		.align	2
 135              	.LC35:
 136 007c 536F6D65 		.ascii	"Something Select\000"
 136      7468696E 
 136      67205365 
 136      6C656374 
 136      00
 137 008d 000000   		.align	2
 138              	.LC37:
 139 0090 55706461 		.ascii	"Updating Values\000"
 139      74696E67 
 139      2056616C 
 139      75657300 
 140              		.align	2
 141              	.LC39:
ARM GAS  C:\Users\Mariano\AppData\Local\Temp\ccqsEEdp.s 			page 4


 142 00a0 77616974 		.ascii	"wait to free    \000"
 142      20746F20 
 142      66726565 
 142      20202020 
 142      00
 143 00b1 000000   		.align	2
 144              	.LC42:
 145 00b4 436F6E74 		.ascii	"Cont.     Select\000"
 145      2E202020 
 145      20205365 
 145      6C656374 
 145      00
 146              		.section	.text.FuncGrouped,"ax",%progbits
 147              		.align	2
 148              		.global	FuncGrouped
 149              		.code	16
 150              		.thumb_func
 151              		.type	FuncGrouped, %function
 152              	FuncGrouped:
 153              	.LFB20:
 154              		.file 1 ".\\src\\grouped.c"
   1:.\src/grouped.c **** /*
   2:.\src/grouped.c ****  * grouped.c
   3:.\src/grouped.c ****  *
   4:.\src/grouped.c ****  *  Created on: 07/03/2016
   5:.\src/grouped.c ****  *      Author: Mariano
   6:.\src/grouped.c ****  */
   7:.\src/grouped.c **** 
   8:.\src/grouped.c **** #include "grouped.h"
   9:.\src/grouped.c **** #include "lcd.h"
  10:.\src/grouped.c **** #include "main_menu.h"
  11:.\src/grouped.c **** #include "hard.h"
  12:.\src/grouped.c **** #include "stm32f0xx.h"
  13:.\src/grouped.c **** #include <string.h>
  14:.\src/grouped.c **** #include <stdio.h>
  15:.\src/grouped.c **** 
  16:.\src/grouped.c **** //#include "standalone.h"
  17:.\src/grouped.c **** #include "dmx_transceiver.h"
  18:.\src/grouped.c **** #include "stm32f0x_gpio.h"
  19:.\src/grouped.c **** 
  20:.\src/grouped.c **** 
  21:.\src/grouped.c **** /* Externals variables ---------------------------------------------------------*/
  22:.\src/grouped.c **** //extern volatile unsigned short grouped_timer;
  23:.\src/grouped.c **** //extern volatile unsigned short grouped_enable_menu_timer;
  24:.\src/grouped.c **** extern Grouped_Typedef GroupedStruct_constant;
  25:.\src/grouped.c **** 
  26:.\src/grouped.c **** extern volatile unsigned char grouped_master_timeout_timer;
  27:.\src/grouped.c **** extern volatile unsigned short standalone_timer;
  28:.\src/grouped.c **** extern volatile unsigned short standalone_enable_menu_timer;
  29:.\src/grouped.c **** 
  30:.\src/grouped.c **** 
  31:.\src/grouped.c **** #define grouped_timer standalone_timer
  32:.\src/grouped.c **** #define grouped_enable_menu_timer standalone_enable_menu_timer
  33:.\src/grouped.c **** 
  34:.\src/grouped.c **** extern const char * s_blank_line [];
  35:.\src/grouped.c **** 
  36:.\src/grouped.c **** extern volatile unsigned char Packet_Detected_Flag;
ARM GAS  C:\Users\Mariano\AppData\Local\Temp\ccqsEEdp.s 			page 5


  37:.\src/grouped.c **** extern volatile unsigned short DMX_channel_selected;
  38:.\src/grouped.c **** extern volatile unsigned char DMX_channel_quantity;
  39:.\src/grouped.c **** 
  40:.\src/grouped.c **** #define SIZEOF_DATA1	512
  41:.\src/grouped.c **** extern volatile unsigned char data1[];
  42:.\src/grouped.c **** extern volatile unsigned char data[];
  43:.\src/grouped.c **** 
  44:.\src/grouped.c **** /* Global variables ------------------------------------------------------------*/
  45:.\src/grouped.c **** unsigned char grouped_state = 0;			//TODO: esto puede compartir RAM con standalone
  46:.\src/grouped.c **** unsigned char grouped_selections = 0;
  47:.\src/grouped.c **** unsigned short grouped_ii = 0;
  48:.\src/grouped.c **** 
  49:.\src/grouped.c **** unsigned char grouped_dimming_last_value = 0;
  50:.\src/grouped.c **** unsigned char grouped_dimming_last_slope = 0;
  51:.\src/grouped.c **** 
  52:.\src/grouped.c **** unsigned char grouped_menu_state = 0;
  53:.\src/grouped.c **** 
  54:.\src/grouped.c **** 
  55:.\src/grouped.c **** 
  56:.\src/grouped.c **** const unsigned char s_sel_g [] = { 0x02, 0x08, 0x0f };
  57:.\src/grouped.c **** 
  58:.\src/grouped.c **** Grouped_Typedef GroupedStruct_local;
  59:.\src/grouped.c **** #define grouped_dimming_top GroupedStruct_local.max_dimmer_value_dmx
  60:.\src/grouped.c **** 
  61:.\src/grouped.c **** unsigned char grouped_slave_dim_last = 0;
  62:.\src/grouped.c **** unsigned char grouped_slave_dim2_last = 0;
  63:.\src/grouped.c **** //-------- Functions -------------
  64:.\src/grouped.c **** 
  65:.\src/grouped.c **** 
  66:.\src/grouped.c **** unsigned char FuncGrouped (void)
  67:.\src/grouped.c **** {
 155              		.loc 1 67 0
 156              		.cfi_startproc
 157 0000 10B5     		push	{r4, lr}	@
 158              	.LCFI0:
 159              		.cfi_def_cfa_offset 8
 160              		.cfi_offset 4, -8
 161              		.cfi_offset 14, -4
 162 0002 88B0     		sub	sp, sp, #32	@,,
 163              	.LCFI1:
 164              		.cfi_def_cfa_offset 40
  68:.\src/grouped.c **** 	unsigned char resp = RESP_CONTINUE;
 165              		.loc 1 68 0
 166 0004 6B46     		mov	r3, sp	@ tmp289,
 167 0006 1F33     		add	r3, r3, #31	@ tmp289,
 168 0008 0022     		mov	r2, #0	@ tmp290,
 169 000a 1A70     		strb	r2, [r3]	@ tmp291, resp
  69:.\src/grouped.c **** 	unsigned char resp_down = RESP_CONTINUE;
 170              		.loc 1 69 0
 171 000c 6B46     		mov	r3, sp	@ tmp292,
 172 000e 1B33     		add	r3, r3, #27	@ tmp292,
 173 0010 0022     		mov	r2, #0	@ tmp293,
 174 0012 1A70     		strb	r2, [r3]	@ tmp294, resp_down
  70:.\src/grouped.c **** 
  71:.\src/grouped.c **** 	switch (grouped_state)
 175              		.loc 1 71 0
 176 0014 C54B     		ldr	r3, .L105	@ tmp295,
ARM GAS  C:\Users\Mariano\AppData\Local\Temp\ccqsEEdp.s 			page 6


 177 0016 1B78     		ldrb	r3, [r3]	@ grouped_state.31, grouped_state
 178 0018 142B     		cmp	r3, #20	@ D.6108,
 179 001a 00D9     		bls	.LCB23	@
 180 001c 2FE3     		b	.L2	@long jump	@
 181              	.LCB23:
 182 001e 9A00     		lsl	r2, r3, #2	@ tmp296, D.6108,
 183 0020 C34B     		ldr	r3, .L105+4	@ tmp298,
 184 0022 D318     		add	r3, r2, r3	@ tmp297, tmp296, tmp298
 185 0024 1B68     		ldr	r3, [r3]	@ tmp299,
 186 0026 9F46     		mov	pc, r3	@ tmp299
 187              		.section	.rodata.FuncGrouped,"a",%progbits
 188              		.align	2
 189              	.L17:
 190 0000 28000000 		.word	.L3
 191 0004 7C000000 		.word	.L4
 192 0008 96000000 		.word	.L5
 193 000c 1C010000 		.word	.L6
 194 0010 B2010000 		.word	.L7
 195 0014 50020000 		.word	.L8
 196 0018 6A020000 		.word	.L9
 197 001c BE020000 		.word	.L10
 198 0020 C2030000 		.word	.L11
 199 0024 DA030000 		.word	.L12
 200 0028 74040000 		.word	.L13
 201 002c 0E050000 		.word	.L14
 202 0030 44050000 		.word	.L15
 203 0034 7E060000 		.word	.L2
 204 0038 7E060000 		.word	.L2
 205 003c 7E060000 		.word	.L2
 206 0040 7E060000 		.word	.L2
 207 0044 7E060000 		.word	.L2
 208 0048 7E060000 		.word	.L2
 209 004c 7E060000 		.word	.L2
 210 0050 4E000000 		.word	.L16
 211              		.section	.text.FuncGrouped
 212              	.L3:
  72:.\src/grouped.c **** 	{
  73:.\src/grouped.c **** 		case GROUPED_INIT:
  74:.\src/grouped.c **** 			//un segundo la pantalla principal
  75:.\src/grouped.c **** 			grouped_timer = 1000;
 213              		.loc 1 75 0
 214 0028 C24B     		ldr	r3, .L105+8	@ tmp300,
 215 002a FA22     		mov	r2, #250	@ tmp770,
 216 002c 9200     		lsl	r2, r2, #2	@ tmp301, tmp770,
 217 002e 1A80     		strh	r2, [r3]	@ tmp302, standalone_timer
  76:.\src/grouped.c **** 			grouped_enable_menu_timer = TT_MENU_TIMEOUT;	//30 segs de menu standalone
 218              		.loc 1 76 0
 219 0030 C14B     		ldr	r3, .L105+12	@ tmp303,
 220 0032 C24A     		ldr	r2, .L105+16	@ tmp304,
 221 0034 1A80     		strh	r2, [r3]	@ tmp305, standalone_enable_menu_timer
  77:.\src/grouped.c **** 
  78:.\src/grouped.c **** 			//TODO: leer estructura y verificar funcion cargar valore sdefualt o ultimos seleccioneados
  79:.\src/grouped.c **** 			memcpy(&GroupedStruct_local, &GroupedStruct_constant, sizeof(GroupedStruct_local));
 222              		.loc 1 79 0
 223 0036 C24A     		ldr	r2, .L105+20	@ tmp306,
 224 0038 C24B     		ldr	r3, .L105+24	@ tmp307,
 225 003a 111C     		mov	r1, r2	@ tmp308, tmp306
ARM GAS  C:\Users\Mariano\AppData\Local\Temp\ccqsEEdp.s 			page 7


 226 003c 1A1C     		mov	r2, r3	@ tmp309, tmp307
 227 003e 1223     		mov	r3, #18	@ tmp310,
 228 0040 081C     		mov	r0, r1	@, tmp308
 229 0042 111C     		mov	r1, r2	@, tmp309
 230 0044 1A1C     		mov	r2, r3	@, tmp310
 231 0046 FFF7FEFF 		bl	memcpy	@
  80:.\src/grouped.c **** 			MenuGroupedReset();
 232              		.loc 1 80 0
 233 004a FFF7FEFF 		bl	MenuGroupedReset	@
 234              	.L16:
  81:.\src/grouped.c **** 
  82:.\src/grouped.c **** 		case GROUPED_UPDATE:
  83:.\src/grouped.c **** 			//reviso si es master o slave
  84:.\src/grouped.c **** 			if (GroupedStruct_local.grouped_mode == GROUPED_MODE_SLAVE)
 235              		.loc 1 84 0
 236 004e BC4B     		ldr	r3, .L105+20	@ tmp313,
 237 0050 1B7B     		ldrb	r3, [r3, #12]	@ D.6109,
 238 0052 012B     		cmp	r3, #1	@ D.6109,
 239 0054 05D1     		bne	.L18	@,
  85:.\src/grouped.c **** 			{
  86:.\src/grouped.c **** 				EXTIOn ();
 240              		.loc 1 86 0
 241 0056 FFF7FEFF 		bl	EXTIOn	@
  87:.\src/grouped.c **** 				grouped_state = GROUPED_SLAVE_INIT;
 242              		.loc 1 87 0
 243 005a B44B     		ldr	r3, .L105	@ tmp314,
 244 005c 0B22     		mov	r2, #11	@ tmp315,
 245 005e 1A70     		strb	r2, [r3]	@ tmp316, grouped_state
  88:.\src/grouped.c **** 			}
  89:.\src/grouped.c **** 			else	//es master
  90:.\src/grouped.c **** 			{
  91:.\src/grouped.c **** 				EXTIOff ();
  92:.\src/grouped.c **** 				grouped_dimming_last_slope = DIM_DOWN;
  93:.\src/grouped.c **** 				grouped_dimming_last_value = GroupedStruct_local.max_dimmer_value_dmx;
  94:.\src/grouped.c **** 				grouped_state = GROUPED_OFF;
  95:.\src/grouped.c **** 			}
  96:.\src/grouped.c **** 			break;
 246              		.loc 1 96 0
 247 0060 4BE3     		b	.L20	@
 248              	.L18:
  91:.\src/grouped.c **** 				EXTIOff ();
 249              		.loc 1 91 0
 250 0062 FFF7FEFF 		bl	EXTIOff	@
  92:.\src/grouped.c **** 				grouped_dimming_last_slope = DIM_DOWN;
 251              		.loc 1 92 0
 252 0066 B84B     		ldr	r3, .L105+28	@ tmp317,
 253 0068 0122     		mov	r2, #1	@ tmp318,
 254 006a 1A70     		strb	r2, [r3]	@ tmp319, grouped_dimming_last_slope
  93:.\src/grouped.c **** 				grouped_dimming_last_value = GroupedStruct_local.max_dimmer_value_dmx;
 255              		.loc 1 93 0
 256 006c B44B     		ldr	r3, .L105+20	@ tmp320,
 257 006e 1A79     		ldrb	r2, [r3, #4]	@ grouped_dimming_last_value.32,
 258 0070 B64B     		ldr	r3, .L105+32	@ tmp321,
 259 0072 1A70     		strb	r2, [r3]	@ tmp322, grouped_dimming_last_value
  94:.\src/grouped.c **** 				grouped_state = GROUPED_OFF;
 260              		.loc 1 94 0
 261 0074 AD4B     		ldr	r3, .L105	@ tmp323,
ARM GAS  C:\Users\Mariano\AppData\Local\Temp\ccqsEEdp.s 			page 8


 262 0076 0122     		mov	r2, #1	@ tmp324,
 263 0078 1A70     		strb	r2, [r3]	@ tmp325, grouped_state
 264              		.loc 1 96 0
 265 007a 3EE3     		b	.L20	@
 266              	.L4:
  97:.\src/grouped.c **** 
  98:.\src/grouped.c **** 		case GROUPED_OFF:
  99:.\src/grouped.c **** 			if (CheckACSw() > S_NO)	//estan prendiendo o queriendo dimerizar
 267              		.loc 1 99 0
 268 007c FFF7FEFF 		bl	CheckACSw	@
 269 0080 031C     		mov	r3, r0	@ tmp326,
 270 0082 002B     		cmp	r3, #0	@ D.6114,
 271 0084 00D1     		bne	.LCB84	@
 272 0086 FEE2     		b	.L91	@long jump	@
 273              	.LCB84:
 100:.\src/grouped.c **** 			{
 101:.\src/grouped.c **** 				grouped_timer = 1500;
 274              		.loc 1 101 0
 275 0088 AA4B     		ldr	r3, .L105+8	@ tmp328,
 276 008a B14A     		ldr	r2, .L105+36	@ tmp329,
 277 008c 1A80     		strh	r2, [r3]	@ tmp330, standalone_timer
 102:.\src/grouped.c **** 				grouped_state = GROUPED_OFF_1;
 278              		.loc 1 102 0
 279 008e A74B     		ldr	r3, .L105	@ tmp331,
 280 0090 0222     		mov	r2, #2	@ tmp332,
 281 0092 1A70     		strb	r2, [r3]	@ tmp333, grouped_state
 103:.\src/grouped.c **** 			}
 104:.\src/grouped.c **** 			break;
 282              		.loc 1 104 0
 283 0094 F7E2     		b	.L91	@
 284              	.L5:
 105:.\src/grouped.c **** 
 106:.\src/grouped.c **** 		case GROUPED_OFF_1:
 107:.\src/grouped.c **** 			if (CheckACSw() == S_NO)	//liberaron el sw
 285              		.loc 1 107 0
 286 0096 FFF7FEFF 		bl	CheckACSw	@
 287 009a 031C     		mov	r3, r0	@ tmp334,
 288 009c 002B     		cmp	r3, #0	@ D.6117,
 289 009e 00D0     		beq	.LCB98	@
 290 00a0 F3E2     		b	.L92	@long jump	@
 291              	.LCB98:
 108:.\src/grouped.c **** 			{
 109:.\src/grouped.c **** 				RELAY_ON;
 292              		.loc 1 109 0
 293 00a2 9023     		mov	r3, #144	@ tmp768,
 294 00a4 DB05     		lsl	r3, r3, #23	@ D.6120, tmp768,
 295 00a6 8022     		mov	r2, #128	@ tmp769,
 296 00a8 1201     		lsl	r2, r2, #4	@ tmp336, tmp769,
 297 00aa 9A61     		str	r2, [r3, #24]	@ tmp336, D.6120_12->BSRR
 110:.\src/grouped.c **** 				if (grouped_selections == MENU_OFF)
 298              		.loc 1 110 0
 299 00ac A94B     		ldr	r3, .L105+40	@ tmp337,
 300 00ae 1B78     		ldrb	r3, [r3]	@ grouped_selections.33, grouped_selections
 301 00b0 022B     		cmp	r3, #2	@ grouped_selections.33,
 302 00b2 06D1     		bne	.L23	@,
 111:.\src/grouped.c **** 				{
 112:.\src/grouped.c **** 					LCD_1ER_RENGLON;
ARM GAS  C:\Users\Mariano\AppData\Local\Temp\ccqsEEdp.s 			page 9


 303              		.loc 1 112 0
 304 00b4 0020     		mov	r0, #0	@,
 305 00b6 FFF7FEFF 		bl	Lcd_SetDDRAM	@
 113:.\src/grouped.c **** 					LCDTransmitStr((const char *) "Switching ON... ");
 306              		.loc 1 113 0
 307 00ba A74B     		ldr	r3, .L105+44	@ tmp338,
 308 00bc 181C     		mov	r0, r3	@, tmp338
 309 00be FFF7FEFF 		bl	LCDTransmitStr	@
 310              	.L23:
 114:.\src/grouped.c **** 				}
 115:.\src/grouped.c **** 
 116:.\src/grouped.c **** 				if (grouped_dimming_last_value >= ONE_TEN_INITIAL)
 311              		.loc 1 116 0
 312 00c2 A24B     		ldr	r3, .L105+32	@ tmp339,
 313 00c4 1B78     		ldrb	r3, [r3]	@ grouped_dimming_last_value.34, grouped_dimming_last_value
 314 00c6 322B     		cmp	r3, #50	@ grouped_dimming_last_value.34,
 315 00c8 06D9     		bls	.L24	@,
 117:.\src/grouped.c **** 				{
 118:.\src/grouped.c **** 					grouped_state = GROUPED_RISING;
 316              		.loc 1 118 0
 317 00ca 984B     		ldr	r3, .L105	@ tmp340,
 318 00cc 0422     		mov	r2, #4	@ tmp341,
 319 00ce 1A70     		strb	r2, [r3]	@ tmp342, grouped_state
 119:.\src/grouped.c **** 					grouped_timer = 0;
 320              		.loc 1 119 0
 321 00d0 984B     		ldr	r3, .L105+8	@ tmp343,
 322 00d2 0022     		mov	r2, #0	@ tmp344,
 323 00d4 1A80     		strh	r2, [r3]	@ tmp345, standalone_timer
 120:.\src/grouped.c **** 				}
 121:.\src/grouped.c **** 				else
 122:.\src/grouped.c **** 				{
 123:.\src/grouped.c **** 					grouped_ii = ONE_TEN_INITIAL;
 124:.\src/grouped.c **** 					Update_TIM3_CH1 (grouped_ii);
 125:.\src/grouped.c **** 					memset((unsigned char *) data1, (unsigned char) grouped_ii, SIZEOF_DATA1);
 126:.\src/grouped.c **** 					SendDMXPacket(PCKT_INIT);
 127:.\src/grouped.c **** 					grouped_master_timeout_timer = TT_MASTER_TIMEOUT;
 128:.\src/grouped.c **** 					grouped_timer = TT_STARTING;	//tarda 940 msegs en arrancar la fuente
 129:.\src/grouped.c **** 					grouped_state = GROUPED_OFF_2;
 130:.\src/grouped.c **** 				}
 131:.\src/grouped.c **** 			}
 132:.\src/grouped.c **** 			break;
 324              		.loc 1 132 0
 325 00d6 D8E2     		b	.L92	@
 326              	.L24:
 123:.\src/grouped.c **** 					grouped_ii = ONE_TEN_INITIAL;
 327              		.loc 1 123 0
 328 00d8 A04B     		ldr	r3, .L105+48	@ tmp346,
 329 00da 3322     		mov	r2, #51	@ tmp347,
 330 00dc 1A80     		strh	r2, [r3]	@ tmp348, grouped_ii
 124:.\src/grouped.c **** 					Update_TIM3_CH1 (grouped_ii);
 331              		.loc 1 124 0
 332 00de 9F4B     		ldr	r3, .L105+48	@ tmp349,
 333 00e0 1B88     		ldrh	r3, [r3]	@ grouped_ii.35, grouped_ii
 334 00e2 181C     		mov	r0, r3	@, grouped_ii.35
 335 00e4 FFF7FEFF 		bl	Update_TIM3_CH1	@
 125:.\src/grouped.c **** 					memset((unsigned char *) data1, (unsigned char) grouped_ii, SIZEOF_DATA1);
 336              		.loc 1 125 0
ARM GAS  C:\Users\Mariano\AppData\Local\Temp\ccqsEEdp.s 			page 10


 337 00e8 9C4B     		ldr	r3, .L105+48	@ tmp350,
 338 00ea 1B88     		ldrh	r3, [r3]	@ grouped_ii.36, grouped_ii
 339 00ec DBB2     		uxtb	r3, r3	@ D.6130, grouped_ii.36
 340 00ee 1A1C     		mov	r2, r3	@ D.6131, D.6130
 341 00f0 9B49     		ldr	r1, .L105+52	@ tmp351,
 342 00f2 8023     		mov	r3, #128	@ tmp766,
 343 00f4 9B00     		lsl	r3, r3, #2	@ tmp352, tmp766,
 344 00f6 081C     		mov	r0, r1	@, tmp351
 345 00f8 111C     		mov	r1, r2	@, D.6131
 346 00fa 1A1C     		mov	r2, r3	@, tmp352
 347 00fc FFF7FEFF 		bl	memset	@
 126:.\src/grouped.c **** 					SendDMXPacket(PCKT_INIT);
 348              		.loc 1 126 0
 349 0100 0020     		mov	r0, #0	@,
 350 0102 FFF7FEFF 		bl	SendDMXPacket	@
 127:.\src/grouped.c **** 					grouped_master_timeout_timer = TT_MASTER_TIMEOUT;
 351              		.loc 1 127 0
 352 0106 974B     		ldr	r3, .L105+56	@ tmp353,
 353 0108 6422     		mov	r2, #100	@ tmp354,
 354 010a 1A70     		strb	r2, [r3]	@ tmp355, grouped_master_timeout_timer
 128:.\src/grouped.c **** 					grouped_timer = TT_STARTING;	//tarda 940 msegs en arrancar la fuente
 355              		.loc 1 128 0
 356 010c 894B     		ldr	r3, .L105+8	@ tmp356,
 357 010e C822     		mov	r2, #200	@ tmp767,
 358 0110 5200     		lsl	r2, r2, #1	@ tmp357, tmp767,
 359 0112 1A80     		strh	r2, [r3]	@ tmp358, standalone_timer
 129:.\src/grouped.c **** 					grouped_state = GROUPED_OFF_2;
 360              		.loc 1 129 0
 361 0114 854B     		ldr	r3, .L105	@ tmp359,
 362 0116 0322     		mov	r2, #3	@ tmp360,
 363 0118 1A70     		strb	r2, [r3]	@ tmp361, grouped_state
 364              		.loc 1 132 0
 365 011a B6E2     		b	.L92	@
 366              	.L6:
 133:.\src/grouped.c **** 
 134:.\src/grouped.c **** 		case GROUPED_OFF_2:
 135:.\src/grouped.c **** 			if (!grouped_timer)
 367              		.loc 1 135 0
 368 011c 854B     		ldr	r3, .L105+8	@ tmp362,
 369 011e 1B88     		ldrh	r3, [r3]	@ tmp363, standalone_timer
 370 0120 9BB2     		uxth	r3, r3	@ standalone_timer.37, tmp363
 371 0122 002B     		cmp	r3, #0	@ standalone_timer.37,
 372 0124 00D0     		beq	.LCB167	@
 373 0126 B2E2     		b	.L93	@long jump	@
 374              	.LCB167:
 136:.\src/grouped.c **** 			{
 137:.\src/grouped.c **** 				//grouped_timer = TT_RISING_FALLING;
 138:.\src/grouped.c **** 				grouped_timer = TT_RISING_FALLING_FIRST_TIME;
 375              		.loc 1 138 0
 376 0128 824B     		ldr	r3, .L105+8	@ tmp364,
 377 012a 0122     		mov	r2, #1	@ tmp365,
 378 012c 1A80     		strh	r2, [r3]	@ tmp366, standalone_timer
 139:.\src/grouped.c **** 				if (grouped_ii != grouped_dimming_last_value)
 379              		.loc 1 139 0
 380 012e 874B     		ldr	r3, .L105+32	@ tmp367,
 381 0130 1B78     		ldrb	r3, [r3]	@ grouped_dimming_last_value.38, grouped_dimming_last_value
 382 0132 1A1C     		mov	r2, r3	@ D.6136, grouped_dimming_last_value.38
ARM GAS  C:\Users\Mariano\AppData\Local\Temp\ccqsEEdp.s 			page 11


 383 0134 894B     		ldr	r3, .L105+48	@ tmp368,
 384 0136 1B88     		ldrh	r3, [r3]	@ grouped_ii.39, grouped_ii
 385 0138 9A42     		cmp	r2, r3	@ D.6136, grouped_ii.39
 386 013a 2BD0     		beq	.L26	@,
 140:.\src/grouped.c **** 				{
 141:.\src/grouped.c **** 					if (grouped_ii < grouped_dimming_last_value)
 387              		.loc 1 141 0
 388 013c 834B     		ldr	r3, .L105+32	@ tmp369,
 389 013e 1B78     		ldrb	r3, [r3]	@ grouped_dimming_last_value.40, grouped_dimming_last_value
 390 0140 1A1C     		mov	r2, r3	@ D.6141, grouped_dimming_last_value.40
 391 0142 864B     		ldr	r3, .L105+48	@ tmp370,
 392 0144 1B88     		ldrh	r3, [r3]	@ grouped_ii.41, grouped_ii
 393 0146 9A42     		cmp	r2, r3	@ D.6141, grouped_ii.41
 394 0148 06D9     		bls	.L27	@,
 142:.\src/grouped.c **** 						grouped_ii++;
 395              		.loc 1 142 0
 396 014a 844B     		ldr	r3, .L105+48	@ tmp371,
 397 014c 1B88     		ldrh	r3, [r3]	@ grouped_ii.42, grouped_ii
 398 014e 0133     		add	r3, r3, #1	@ tmp372,
 399 0150 9AB2     		uxth	r2, r3	@ grouped_ii.43, tmp372
 400 0152 824B     		ldr	r3, .L105+48	@ tmp373,
 401 0154 1A80     		strh	r2, [r3]	@ tmp374, grouped_ii
 402 0156 05E0     		b	.L28	@
 403              	.L27:
 143:.\src/grouped.c **** 					else
 144:.\src/grouped.c **** 						grouped_ii--;
 404              		.loc 1 144 0
 405 0158 804B     		ldr	r3, .L105+48	@ tmp375,
 406 015a 1B88     		ldrh	r3, [r3]	@ grouped_ii.44, grouped_ii
 407 015c 013B     		sub	r3, r3, #1	@ tmp376,
 408 015e 9AB2     		uxth	r2, r3	@ grouped_ii.45, tmp376
 409 0160 7E4B     		ldr	r3, .L105+48	@ tmp377,
 410 0162 1A80     		strh	r2, [r3]	@ tmp378, grouped_ii
 411              	.L28:
 145:.\src/grouped.c **** 
 146:.\src/grouped.c **** 					memset((unsigned char *)data1, (unsigned char) grouped_ii, SIZEOF_DATA1);
 412              		.loc 1 146 0
 413 0164 7D4B     		ldr	r3, .L105+48	@ tmp379,
 414 0166 1B88     		ldrh	r3, [r3]	@ grouped_ii.46, grouped_ii
 415 0168 DBB2     		uxtb	r3, r3	@ D.6151, grouped_ii.46
 416 016a 1A1C     		mov	r2, r3	@ D.6152, D.6151
 417 016c 7C49     		ldr	r1, .L105+52	@ tmp380,
 418 016e 8023     		mov	r3, #128	@ tmp765,
 419 0170 9B00     		lsl	r3, r3, #2	@ tmp381, tmp765,
 420 0172 081C     		mov	r0, r1	@, tmp380
 421 0174 111C     		mov	r1, r2	@, D.6152
 422 0176 1A1C     		mov	r2, r3	@, tmp381
 423 0178 FFF7FEFF 		bl	memset	@
 147:.\src/grouped.c **** 					SendDMXPacket(PCKT_INIT);
 424              		.loc 1 147 0
 425 017c 0020     		mov	r0, #0	@,
 426 017e FFF7FEFF 		bl	SendDMXPacket	@
 148:.\src/grouped.c **** 					grouped_master_timeout_timer = TT_MASTER_TIMEOUT;
 427              		.loc 1 148 0
 428 0182 784B     		ldr	r3, .L105+56	@ tmp382,
 429 0184 6422     		mov	r2, #100	@ tmp383,
 430 0186 1A70     		strb	r2, [r3]	@ tmp384, grouped_master_timeout_timer
ARM GAS  C:\Users\Mariano\AppData\Local\Temp\ccqsEEdp.s 			page 12


 149:.\src/grouped.c **** 					Update_TIM3_CH1 (grouped_ii);
 431              		.loc 1 149 0
 432 0188 744B     		ldr	r3, .L105+48	@ tmp385,
 433 018a 1B88     		ldrh	r3, [r3]	@ grouped_ii.47, grouped_ii
 434 018c 181C     		mov	r0, r3	@, grouped_ii.47
 435 018e FFF7FEFF 		bl	Update_TIM3_CH1	@
 150:.\src/grouped.c **** 				}
 151:.\src/grouped.c **** 				else
 152:.\src/grouped.c **** 				{
 153:.\src/grouped.c **** 					if (grouped_selections == MENU_OFF)
 154:.\src/grouped.c **** 					{
 155:.\src/grouped.c **** 						LCD_1ER_RENGLON;
 156:.\src/grouped.c **** 						LCDTransmitStr((const char *) "  Lights ON     ");
 157:.\src/grouped.c **** 					}
 158:.\src/grouped.c **** 					grouped_state = GROUPED_ON;
 159:.\src/grouped.c **** 				}
 160:.\src/grouped.c **** 			}
 161:.\src/grouped.c **** 			break;
 436              		.loc 1 161 0
 437 0192 7CE2     		b	.L93	@
 438              	.L26:
 153:.\src/grouped.c **** 					if (grouped_selections == MENU_OFF)
 439              		.loc 1 153 0
 440 0194 6F4B     		ldr	r3, .L105+40	@ tmp386,
 441 0196 1B78     		ldrb	r3, [r3]	@ grouped_selections.48, grouped_selections
 442 0198 022B     		cmp	r3, #2	@ grouped_selections.48,
 443 019a 06D1     		bne	.L29	@,
 155:.\src/grouped.c **** 						LCD_1ER_RENGLON;
 444              		.loc 1 155 0
 445 019c 0020     		mov	r0, #0	@,
 446 019e FFF7FEFF 		bl	Lcd_SetDDRAM	@
 156:.\src/grouped.c **** 						LCDTransmitStr((const char *) "  Lights ON     ");
 447              		.loc 1 156 0
 448 01a2 714B     		ldr	r3, .L105+60	@ tmp387,
 449 01a4 181C     		mov	r0, r3	@, tmp387
 450 01a6 FFF7FEFF 		bl	LCDTransmitStr	@
 451              	.L29:
 158:.\src/grouped.c **** 					grouped_state = GROUPED_ON;
 452              		.loc 1 158 0
 453 01aa 604B     		ldr	r3, .L105	@ tmp388,
 454 01ac 0522     		mov	r2, #5	@ tmp389,
 455 01ae 1A70     		strb	r2, [r3]	@ tmp390, grouped_state
 456              		.loc 1 161 0
 457 01b0 6DE2     		b	.L93	@
 458              	.L7:
 162:.\src/grouped.c **** 
 163:.\src/grouped.c **** 		case GROUPED_RISING:
 164:.\src/grouped.c **** 			if (!grouped_timer)
 459              		.loc 1 164 0
 460 01b2 604B     		ldr	r3, .L105+8	@ tmp391,
 461 01b4 1B88     		ldrh	r3, [r3]	@ tmp392, standalone_timer
 462 01b6 9BB2     		uxth	r3, r3	@ standalone_timer.49, tmp392
 463 01b8 002B     		cmp	r3, #0	@ standalone_timer.49,
 464 01ba 00D0     		beq	.LCB249	@
 465 01bc 69E2     		b	.L94	@long jump	@
 466              	.LCB249:
 165:.\src/grouped.c **** 			{
ARM GAS  C:\Users\Mariano\AppData\Local\Temp\ccqsEEdp.s 			page 13


 166:.\src/grouped.c **** 				if (GroupedStruct_local.power_up_timer_value > 255)
 467              		.loc 1 166 0
 468 01be 604B     		ldr	r3, .L105+20	@ tmp393,
 469 01c0 1B89     		ldrh	r3, [r3, #8]	@ D.6161,
 470 01c2 FF2B     		cmp	r3, #255	@ D.6161,
 471 01c4 06D9     		bls	.L31	@,
 167:.\src/grouped.c **** 					grouped_timer = (GroupedStruct_local.power_up_timer_value >> 8);
 472              		.loc 1 167 0
 473 01c6 5E4B     		ldr	r3, .L105+20	@ tmp394,
 474 01c8 1B89     		ldrh	r3, [r3, #8]	@ D.6164,
 475 01ca 1B0A     		lsr	r3, r3, #8	@ tmp395, D.6164,
 476 01cc 9AB2     		uxth	r2, r3	@ standalone_timer.50, tmp395
 477 01ce 594B     		ldr	r3, .L105+8	@ tmp396,
 478 01d0 1A80     		strh	r2, [r3]	@ tmp397, standalone_timer
 479 01d2 02E0     		b	.L32	@
 480              	.L31:
 168:.\src/grouped.c **** 				else
 169:.\src/grouped.c **** 					grouped_timer = TT_RISING_FALLING_FIRST_TIME;
 481              		.loc 1 169 0
 482 01d4 574B     		ldr	r3, .L105+8	@ tmp398,
 483 01d6 0122     		mov	r2, #1	@ tmp399,
 484 01d8 1A80     		strh	r2, [r3]	@ tmp400, standalone_timer
 485              	.L32:
 170:.\src/grouped.c **** 
 171:.\src/grouped.c **** 				if ((grouped_ii < grouped_dimming_last_value) && (grouped_ii < GroupedStruct_local.max_dimmer_v
 486              		.loc 1 171 0
 487 01da 5C4B     		ldr	r3, .L105+32	@ tmp401,
 488 01dc 1B78     		ldrb	r3, [r3]	@ grouped_dimming_last_value.51, grouped_dimming_last_value
 489 01de 1A1C     		mov	r2, r3	@ D.6170, grouped_dimming_last_value.51
 490 01e0 5E4B     		ldr	r3, .L105+48	@ tmp402,
 491 01e2 1B88     		ldrh	r3, [r3]	@ grouped_ii.52, grouped_ii
 492 01e4 9A42     		cmp	r2, r3	@ D.6170, grouped_ii.52
 493 01e6 24D9     		bls	.L33	@,
 494              		.loc 1 171 0 is_stmt 0 discriminator 1
 495 01e8 554B     		ldr	r3, .L105+20	@ tmp403,
 496 01ea 1B79     		ldrb	r3, [r3, #4]	@ D.6173,
 497 01ec 1A1C     		mov	r2, r3	@ D.6174, D.6173
 498 01ee 5B4B     		ldr	r3, .L105+48	@ tmp404,
 499 01f0 1B88     		ldrh	r3, [r3]	@ grouped_ii.53, grouped_ii
 500 01f2 9A42     		cmp	r2, r3	@ D.6174, grouped_ii.53
 501 01f4 1DD9     		bls	.L33	@,
 172:.\src/grouped.c **** 				{
 173:.\src/grouped.c **** 					Update_TIM3_CH1 (grouped_ii);
 502              		.loc 1 173 0 is_stmt 1
 503 01f6 594B     		ldr	r3, .L105+48	@ tmp405,
 504 01f8 1B88     		ldrh	r3, [r3]	@ grouped_ii.54, grouped_ii
 505 01fa 181C     		mov	r0, r3	@, grouped_ii.54
 506 01fc FFF7FEFF 		bl	Update_TIM3_CH1	@
 174:.\src/grouped.c **** 					memset((unsigned char *)data1, (unsigned char) grouped_ii, SIZEOF_DATA1);
 507              		.loc 1 174 0
 508 0200 564B     		ldr	r3, .L105+48	@ tmp406,
 509 0202 1B88     		ldrh	r3, [r3]	@ grouped_ii.55, grouped_ii
 510 0204 DBB2     		uxtb	r3, r3	@ D.6179, grouped_ii.55
 511 0206 1A1C     		mov	r2, r3	@ D.6180, D.6179
 512 0208 5549     		ldr	r1, .L105+52	@ tmp407,
 513 020a 8023     		mov	r3, #128	@ tmp764,
 514 020c 9B00     		lsl	r3, r3, #2	@ tmp408, tmp764,
ARM GAS  C:\Users\Mariano\AppData\Local\Temp\ccqsEEdp.s 			page 14


 515 020e 081C     		mov	r0, r1	@, tmp407
 516 0210 111C     		mov	r1, r2	@, D.6180
 517 0212 1A1C     		mov	r2, r3	@, tmp408
 518 0214 FFF7FEFF 		bl	memset	@
 175:.\src/grouped.c **** 					SendDMXPacket(PCKT_INIT);
 519              		.loc 1 175 0
 520 0218 0020     		mov	r0, #0	@,
 521 021a FFF7FEFF 		bl	SendDMXPacket	@
 176:.\src/grouped.c **** 					grouped_master_timeout_timer = TT_MASTER_TIMEOUT;
 522              		.loc 1 176 0
 523 021e 514B     		ldr	r3, .L105+56	@ tmp409,
 524 0220 6422     		mov	r2, #100	@ tmp410,
 525 0222 1A70     		strb	r2, [r3]	@ tmp411, grouped_master_timeout_timer
 177:.\src/grouped.c **** 					grouped_ii++;
 526              		.loc 1 177 0
 527 0224 4D4B     		ldr	r3, .L105+48	@ tmp412,
 528 0226 1B88     		ldrh	r3, [r3]	@ grouped_ii.56, grouped_ii
 529 0228 0133     		add	r3, r3, #1	@ tmp413,
 530 022a 9AB2     		uxth	r2, r3	@ grouped_ii.57, tmp413
 531 022c 4B4B     		ldr	r3, .L105+48	@ tmp414,
 532 022e 1A80     		strh	r2, [r3]	@ tmp415, grouped_ii
 178:.\src/grouped.c **** 				}
 179:.\src/grouped.c **** 				else
 180:.\src/grouped.c **** 				{
 181:.\src/grouped.c **** 					if (grouped_selections == MENU_OFF)
 182:.\src/grouped.c **** 					{
 183:.\src/grouped.c **** 						LCD_1ER_RENGLON;
 184:.\src/grouped.c **** 						LCDTransmitStr((const char *) "  Lights ON     ");
 185:.\src/grouped.c **** 					}
 186:.\src/grouped.c **** 
 187:.\src/grouped.c **** 					grouped_state = GROUPED_ON;
 188:.\src/grouped.c **** 				}
 189:.\src/grouped.c **** 			}
 190:.\src/grouped.c **** 			break;
 533              		.loc 1 190 0
 534 0230 2FE2     		b	.L94	@
 535              	.L33:
 181:.\src/grouped.c **** 					if (grouped_selections == MENU_OFF)
 536              		.loc 1 181 0
 537 0232 484B     		ldr	r3, .L105+40	@ tmp416,
 538 0234 1B78     		ldrb	r3, [r3]	@ grouped_selections.58, grouped_selections
 539 0236 022B     		cmp	r3, #2	@ grouped_selections.58,
 540 0238 06D1     		bne	.L34	@,
 183:.\src/grouped.c **** 						LCD_1ER_RENGLON;
 541              		.loc 1 183 0
 542 023a 0020     		mov	r0, #0	@,
 543 023c FFF7FEFF 		bl	Lcd_SetDDRAM	@
 184:.\src/grouped.c **** 						LCDTransmitStr((const char *) "  Lights ON     ");
 544              		.loc 1 184 0
 545 0240 494B     		ldr	r3, .L105+60	@ tmp417,
 546 0242 181C     		mov	r0, r3	@, tmp417
 547 0244 FFF7FEFF 		bl	LCDTransmitStr	@
 548              	.L34:
 187:.\src/grouped.c **** 					grouped_state = GROUPED_ON;
 549              		.loc 1 187 0
 550 0248 384B     		ldr	r3, .L105	@ tmp418,
 551 024a 0522     		mov	r2, #5	@ tmp419,
ARM GAS  C:\Users\Mariano\AppData\Local\Temp\ccqsEEdp.s 			page 15


 552 024c 1A70     		strb	r2, [r3]	@ tmp420, grouped_state
 553              		.loc 1 190 0
 554 024e 20E2     		b	.L94	@
 555              	.L8:
 191:.\src/grouped.c **** 
 192:.\src/grouped.c **** 		case GROUPED_ON:
 193:.\src/grouped.c **** 			if (CheckACSw() > S_NO)	//estan apagando o queriendo dimerizar
 556              		.loc 1 193 0
 557 0250 FFF7FEFF 		bl	CheckACSw	@
 558 0254 031C     		mov	r3, r0	@ tmp421,
 559 0256 002B     		cmp	r3, #0	@ D.6186,
 560 0258 00D1     		bne	.LCB334	@
 561 025a 1CE2     		b	.L95	@long jump	@
 562              	.LCB334:
 194:.\src/grouped.c **** 			{
 195:.\src/grouped.c **** 				grouped_timer = 1500;
 563              		.loc 1 195 0
 564 025c 354B     		ldr	r3, .L105+8	@ tmp423,
 565 025e 3C4A     		ldr	r2, .L105+36	@ tmp424,
 566 0260 1A80     		strh	r2, [r3]	@ tmp425, standalone_timer
 196:.\src/grouped.c **** 				grouped_state = GROUPED_ON_1;
 567              		.loc 1 196 0
 568 0262 324B     		ldr	r3, .L105	@ tmp426,
 569 0264 0622     		mov	r2, #6	@ tmp427,
 570 0266 1A70     		strb	r2, [r3]	@ tmp428, grouped_state
 197:.\src/grouped.c **** 			}
 198:.\src/grouped.c **** 			break;
 571              		.loc 1 198 0
 572 0268 15E2     		b	.L95	@
 573              	.L9:
 199:.\src/grouped.c **** 
 200:.\src/grouped.c **** 		case GROUPED_ON_1:
 201:.\src/grouped.c **** 			if (CheckACSw() == S_NO)	//liberaron el sw
 574              		.loc 1 201 0
 575 026a FFF7FEFF 		bl	CheckACSw	@
 576 026e 031C     		mov	r3, r0	@ tmp429,
 577 0270 002B     		cmp	r3, #0	@ D.6189,
 578 0272 1AD1     		bne	.L36	@,
 202:.\src/grouped.c **** 			{
 203:.\src/grouped.c **** 				if (grouped_timer)	//apagaron
 579              		.loc 1 203 0
 580 0274 2F4B     		ldr	r3, .L105+8	@ tmp431,
 581 0276 1B88     		ldrh	r3, [r3]	@ tmp432, standalone_timer
 582 0278 9BB2     		uxth	r3, r3	@ standalone_timer.59, tmp432
 583 027a 002B     		cmp	r3, #0	@ standalone_timer.59,
 584 027c 15D0     		beq	.L36	@,
 204:.\src/grouped.c **** 				{
 205:.\src/grouped.c **** 					grouped_dimming_last_value = grouped_ii;
 585              		.loc 1 205 0
 586 027e 374B     		ldr	r3, .L105+48	@ tmp433,
 587 0280 1B88     		ldrh	r3, [r3]	@ grouped_ii.60, grouped_ii
 588 0282 DAB2     		uxtb	r2, r3	@ grouped_dimming_last_value.61, grouped_ii.60
 589 0284 314B     		ldr	r3, .L105+32	@ tmp434,
 590 0286 1A70     		strb	r2, [r3]	@ tmp435, grouped_dimming_last_value
 206:.\src/grouped.c **** 					if (grouped_selections == MENU_OFF)
 591              		.loc 1 206 0
 592 0288 324B     		ldr	r3, .L105+40	@ tmp436,
ARM GAS  C:\Users\Mariano\AppData\Local\Temp\ccqsEEdp.s 			page 16


 593 028a 1B78     		ldrb	r3, [r3]	@ grouped_selections.62, grouped_selections
 594 028c 022B     		cmp	r3, #2	@ grouped_selections.62,
 595 028e 06D1     		bne	.L37	@,
 207:.\src/grouped.c **** 					{
 208:.\src/grouped.c **** //						short local;
 209:.\src/grouped.c **** 
 210:.\src/grouped.c **** 						LCD_1ER_RENGLON;
 596              		.loc 1 210 0
 597 0290 0020     		mov	r0, #0	@,
 598 0292 FFF7FEFF 		bl	Lcd_SetDDRAM	@
 211:.\src/grouped.c **** 						LCDTransmitStr((const char *) "Switching OFF...");
 599              		.loc 1 211 0
 600 0296 354B     		ldr	r3, .L105+64	@ tmp437,
 601 0298 181C     		mov	r0, r3	@, tmp437
 602 029a FFF7FEFF 		bl	LCDTransmitStr	@
 603              	.L37:
 212:.\src/grouped.c **** 
 213:.\src/grouped.c **** 						//me fijo si estoy muy cerca del limite bajo
 214:.\src/grouped.c **** //						local = GroupedStruct_local.min_dimmer_value_dmx - grouped_ii;
 215:.\src/grouped.c **** //						if ((local < 10) && (local > -10))
 216:.\src/grouped.c **** //							grouped_dimming_last_slope = DIM_UP;
 217:.\src/grouped.c **** 					}
 218:.\src/grouped.c **** 					grouped_state = GROUPED_FALLING;
 604              		.loc 1 218 0
 605 029e 234B     		ldr	r3, .L105	@ tmp438,
 606 02a0 0722     		mov	r2, #7	@ tmp439,
 607 02a2 1A70     		strb	r2, [r3]	@ tmp440, grouped_state
 219:.\src/grouped.c **** 					grouped_timer = TT_RISING_FALLING;		//TODO guarda que me bloque el if de abajo
 608              		.loc 1 219 0
 609 02a4 234B     		ldr	r3, .L105+8	@ tmp441,
 610 02a6 0122     		mov	r2, #1	@ tmp442,
 611 02a8 1A80     		strh	r2, [r3]	@ tmp443, standalone_timer
 612              	.L36:
 220:.\src/grouped.c **** 				}
 221:.\src/grouped.c **** 			}
 222:.\src/grouped.c **** 
 223:.\src/grouped.c **** 			if (!grouped_timer)		//estan dimerizando!!!
 613              		.loc 1 223 0
 614 02aa 224B     		ldr	r3, .L105+8	@ tmp444,
 615 02ac 1B88     		ldrh	r3, [r3]	@ tmp445, standalone_timer
 616 02ae 9BB2     		uxth	r3, r3	@ standalone_timer.63, tmp445
 617 02b0 002B     		cmp	r3, #0	@ standalone_timer.63,
 618 02b2 00D0     		beq	.LCB382	@
 619 02b4 F1E1     		b	.L96	@long jump	@
 620              	.LCB382:
 224:.\src/grouped.c **** 				grouped_state = GROUPED_DIMMING_LAST;
 621              		.loc 1 224 0
 622 02b6 1D4B     		ldr	r3, .L105	@ tmp446,
 623 02b8 0822     		mov	r2, #8	@ tmp447,
 624 02ba 1A70     		strb	r2, [r3]	@ tmp448, grouped_state
 225:.\src/grouped.c **** 
 226:.\src/grouped.c **** 			break;
 625              		.loc 1 226 0
 626 02bc EDE1     		b	.L96	@
 627              	.L10:
 227:.\src/grouped.c **** 
 228:.\src/grouped.c **** 		case GROUPED_FALLING:
ARM GAS  C:\Users\Mariano\AppData\Local\Temp\ccqsEEdp.s 			page 17


 229:.\src/grouped.c **** 			if (!grouped_timer)
 628              		.loc 1 229 0
 629 02be 1D4B     		ldr	r3, .L105+8	@ tmp449,
 630 02c0 1B88     		ldrh	r3, [r3]	@ tmp450, standalone_timer
 631 02c2 9BB2     		uxth	r3, r3	@ standalone_timer.64, tmp450
 632 02c4 002B     		cmp	r3, #0	@ standalone_timer.64,
 633 02c6 00D0     		beq	.LCB394	@
 634 02c8 E9E1     		b	.L97	@long jump	@
 635              	.LCB394:
 230:.\src/grouped.c **** 			{
 231:.\src/grouped.c **** 				if (GroupedStruct_local.power_up_timer_value > 255)
 636              		.loc 1 231 0
 637 02ca 1D4B     		ldr	r3, .L105+20	@ tmp451,
 638 02cc 1B89     		ldrh	r3, [r3, #8]	@ D.6206,
 639 02ce FF2B     		cmp	r3, #255	@ D.6206,
 640 02d0 06D9     		bls	.L40	@,
 232:.\src/grouped.c **** 					grouped_timer = (GroupedStruct_local.power_up_timer_value >> 8);
 641              		.loc 1 232 0
 642 02d2 1B4B     		ldr	r3, .L105+20	@ tmp452,
 643 02d4 1B89     		ldrh	r3, [r3, #8]	@ D.6209,
 644 02d6 1B0A     		lsr	r3, r3, #8	@ tmp453, D.6209,
 645 02d8 9AB2     		uxth	r2, r3	@ standalone_timer.65, tmp453
 646 02da 164B     		ldr	r3, .L105+8	@ tmp454,
 647 02dc 1A80     		strh	r2, [r3]	@ tmp455, standalone_timer
 648 02de 02E0     		b	.L41	@
 649              	.L40:
 233:.\src/grouped.c **** 				else
 234:.\src/grouped.c **** 					grouped_timer = TT_RISING_FALLING_FIRST_TIME;
 650              		.loc 1 234 0
 651 02e0 144B     		ldr	r3, .L105+8	@ tmp456,
 652 02e2 0122     		mov	r2, #1	@ tmp457,
 653 02e4 1A80     		strh	r2, [r3]	@ tmp458, standalone_timer
 654              	.L41:
 235:.\src/grouped.c **** 
 236:.\src/grouped.c **** 				if (grouped_ii > 0)
 655              		.loc 1 236 0
 656 02e6 1D4B     		ldr	r3, .L105+48	@ tmp459,
 657 02e8 1B88     		ldrh	r3, [r3]	@ grouped_ii.66, grouped_ii
 658 02ea 002B     		cmp	r3, #0	@ grouped_ii.66,
 659 02ec 40D0     		beq	.L42	@,
 237:.\src/grouped.c **** 				{
 238:.\src/grouped.c **** 					Update_TIM3_CH1 (grouped_ii);
 660              		.loc 1 238 0
 661 02ee 1B4B     		ldr	r3, .L105+48	@ tmp460,
 662 02f0 1B88     		ldrh	r3, [r3]	@ grouped_ii.67, grouped_ii
 663 02f2 181C     		mov	r0, r3	@, grouped_ii.67
 664 02f4 FFF7FEFF 		bl	Update_TIM3_CH1	@
 239:.\src/grouped.c **** 					memset((unsigned char *)data1, (unsigned char) grouped_ii, SIZEOF_DATA1);
 665              		.loc 1 239 0
 666 02f8 184B     		ldr	r3, .L105+48	@ tmp461,
 667 02fa 1B88     		ldrh	r3, [r3]	@ grouped_ii.68, grouped_ii
 668 02fc DBB2     		uxtb	r3, r3	@ D.6217, grouped_ii.68
 669 02fe 1A1C     		mov	r2, r3	@ D.6218, D.6217
 670 0300 1749     		ldr	r1, .L105+52	@ tmp462,
 671 0302 8023     		mov	r3, #128	@ tmp763,
 672 0304 9B00     		lsl	r3, r3, #2	@ tmp463, tmp763,
 673 0306 081C     		mov	r0, r1	@, tmp462
ARM GAS  C:\Users\Mariano\AppData\Local\Temp\ccqsEEdp.s 			page 18


 674 0308 111C     		mov	r1, r2	@, D.6218
 675 030a 1A1C     		mov	r2, r3	@, tmp463
 676 030c FFF7FEFF 		bl	memset	@
 240:.\src/grouped.c **** 					SendDMXPacket(PCKT_INIT);
 677              		.loc 1 240 0
 678 0310 0020     		mov	r0, #0	@,
 679 0312 FFF7FEFF 		bl	SendDMXPacket	@
 241:.\src/grouped.c **** 					grouped_master_timeout_timer = TT_MASTER_TIMEOUT;
 680              		.loc 1 241 0
 681 0316 134B     		ldr	r3, .L105+56	@ tmp464,
 682 0318 6422     		mov	r2, #100	@ tmp465,
 683 031a 1A70     		strb	r2, [r3]	@ tmp466, grouped_master_timeout_timer
 242:.\src/grouped.c **** 					grouped_ii--;
 684              		.loc 1 242 0
 685 031c 0F4B     		ldr	r3, .L105+48	@ tmp467,
 686 031e 1B88     		ldrh	r3, [r3]	@ grouped_ii.69, grouped_ii
 687 0320 013B     		sub	r3, r3, #1	@ tmp468,
 688 0322 9AB2     		uxth	r2, r3	@ grouped_ii.70, tmp468
 689 0324 0D4B     		ldr	r3, .L105+48	@ tmp469,
 690 0326 1A80     		strh	r2, [r3]	@ tmp470, grouped_ii
 243:.\src/grouped.c **** 				}
 244:.\src/grouped.c **** 				else
 245:.\src/grouped.c **** 				{
 246:.\src/grouped.c **** 					Update_TIM3_CH1 (0);
 247:.\src/grouped.c **** 					memset((unsigned char *)data1, (unsigned char) grouped_ii, SIZEOF_DATA1);
 248:.\src/grouped.c **** 					SendDMXPacket(PCKT_INIT);
 249:.\src/grouped.c **** 					grouped_master_timeout_timer = TT_MASTER_TIMEOUT;
 250:.\src/grouped.c **** 					grouped_state = GROUPED_OFF;
 251:.\src/grouped.c **** 					if (grouped_selections == MENU_OFF)
 252:.\src/grouped.c **** 					{
 253:.\src/grouped.c **** 						LCD_1ER_RENGLON;
 254:.\src/grouped.c **** 						LCDTransmitStr((const char *) "  Lights OFF    ");
 255:.\src/grouped.c **** 					}
 256:.\src/grouped.c **** 					RELAY_OFF;
 257:.\src/grouped.c **** 				}
 258:.\src/grouped.c **** 			}
 259:.\src/grouped.c **** 			break;
 691              		.loc 1 259 0
 692 0328 B9E1     		b	.L97	@
 693              	.L106:
 694 032a C046     		.align	2
 695              	.L105:
 696 032c 00000000 		.word	grouped_state
 697 0330 00000000 		.word	.L17
 698 0334 00000000 		.word	standalone_timer
 699 0338 00000000 		.word	standalone_enable_menu_timer
 700 033c 30750000 		.word	30000
 701 0340 00000000 		.word	GroupedStruct_local
 702 0344 00000000 		.word	GroupedStruct_constant
 703 0348 00000000 		.word	grouped_dimming_last_slope
 704 034c 00000000 		.word	grouped_dimming_last_value
 705 0350 DC050000 		.word	1500
 706 0354 00000000 		.word	grouped_selections
 707 0358 00000000 		.word	.LC9
 708 035c 00000000 		.word	grouped_ii
 709 0360 00000000 		.word	data1
 710 0364 00000000 		.word	grouped_master_timeout_timer
ARM GAS  C:\Users\Mariano\AppData\Local\Temp\ccqsEEdp.s 			page 19


 711 0368 14000000 		.word	.LC14
 712 036c 28000000 		.word	.LC16
 713              	.L42:
 246:.\src/grouped.c **** 					Update_TIM3_CH1 (0);
 714              		.loc 1 246 0
 715 0370 0020     		mov	r0, #0	@,
 716 0372 FFF7FEFF 		bl	Update_TIM3_CH1	@
 247:.\src/grouped.c **** 					memset((unsigned char *)data1, (unsigned char) grouped_ii, SIZEOF_DATA1);
 717              		.loc 1 247 0
 718 0376 CD4B     		ldr	r3, .L107	@ tmp471,
 719 0378 1B88     		ldrh	r3, [r3]	@ grouped_ii.71, grouped_ii
 720 037a DBB2     		uxtb	r3, r3	@ D.6223, grouped_ii.71
 721 037c 1A1C     		mov	r2, r3	@ D.6224, D.6223
 722 037e CC49     		ldr	r1, .L107+4	@ tmp472,
 723 0380 8023     		mov	r3, #128	@ tmp762,
 724 0382 9B00     		lsl	r3, r3, #2	@ tmp473, tmp762,
 725 0384 081C     		mov	r0, r1	@, tmp472
 726 0386 111C     		mov	r1, r2	@, D.6224
 727 0388 1A1C     		mov	r2, r3	@, tmp473
 728 038a FFF7FEFF 		bl	memset	@
 248:.\src/grouped.c **** 					SendDMXPacket(PCKT_INIT);
 729              		.loc 1 248 0
 730 038e 0020     		mov	r0, #0	@,
 731 0390 FFF7FEFF 		bl	SendDMXPacket	@
 249:.\src/grouped.c **** 					grouped_master_timeout_timer = TT_MASTER_TIMEOUT;
 732              		.loc 1 249 0
 733 0394 C74B     		ldr	r3, .L107+8	@ tmp474,
 734 0396 6422     		mov	r2, #100	@ tmp475,
 735 0398 1A70     		strb	r2, [r3]	@ tmp476, grouped_master_timeout_timer
 250:.\src/grouped.c **** 					grouped_state = GROUPED_OFF;
 736              		.loc 1 250 0
 737 039a C74B     		ldr	r3, .L107+12	@ tmp477,
 738 039c 0122     		mov	r2, #1	@ tmp478,
 739 039e 1A70     		strb	r2, [r3]	@ tmp479, grouped_state
 251:.\src/grouped.c **** 					if (grouped_selections == MENU_OFF)
 740              		.loc 1 251 0
 741 03a0 C64B     		ldr	r3, .L107+16	@ tmp480,
 742 03a2 1B78     		ldrb	r3, [r3]	@ grouped_selections.72, grouped_selections
 743 03a4 022B     		cmp	r3, #2	@ grouped_selections.72,
 744 03a6 06D1     		bne	.L43	@,
 253:.\src/grouped.c **** 						LCD_1ER_RENGLON;
 745              		.loc 1 253 0
 746 03a8 0020     		mov	r0, #0	@,
 747 03aa FFF7FEFF 		bl	Lcd_SetDDRAM	@
 254:.\src/grouped.c **** 						LCDTransmitStr((const char *) "  Lights OFF    ");
 748              		.loc 1 254 0
 749 03ae C44B     		ldr	r3, .L107+20	@ tmp481,
 750 03b0 181C     		mov	r0, r3	@, tmp481
 751 03b2 FFF7FEFF 		bl	LCDTransmitStr	@
 752              	.L43:
 256:.\src/grouped.c **** 					RELAY_OFF;
 753              		.loc 1 256 0
 754 03b6 9023     		mov	r3, #144	@ tmp760,
 755 03b8 DB05     		lsl	r3, r3, #23	@ D.6228, tmp760,
 756 03ba 8022     		mov	r2, #128	@ tmp761,
 757 03bc 1205     		lsl	r2, r2, #20	@ tmp482, tmp761,
 758 03be 9A61     		str	r2, [r3, #24]	@ tmp482, D.6228_74->BSRR
ARM GAS  C:\Users\Mariano\AppData\Local\Temp\ccqsEEdp.s 			page 20


 759              		.loc 1 259 0
 760 03c0 6DE1     		b	.L97	@
 761              	.L11:
 260:.\src/grouped.c **** 
 261:.\src/grouped.c **** 		case GROUPED_DIMMING_LAST:
 262:.\src/grouped.c **** 			if (grouped_dimming_last_slope == DIM_UP)
 762              		.loc 1 262 0
 763 03c2 C04B     		ldr	r3, .L107+24	@ tmp483,
 764 03c4 1B78     		ldrb	r3, [r3]	@ grouped_dimming_last_slope.73, grouped_dimming_last_slope
 765 03c6 002B     		cmp	r3, #0	@ grouped_dimming_last_slope.73,
 766 03c8 03D1     		bne	.L44	@,
 263:.\src/grouped.c **** 				grouped_state = GROUPED_DIMMING_UP;
 767              		.loc 1 263 0
 768 03ca BB4B     		ldr	r3, .L107+12	@ tmp484,
 769 03cc 0922     		mov	r2, #9	@ tmp485,
 770 03ce 1A70     		strb	r2, [r3]	@ tmp486, grouped_state
 264:.\src/grouped.c **** 			else
 265:.\src/grouped.c **** 				grouped_state = GROUPED_DIMMING_DOWN;
 266:.\src/grouped.c **** 
 267:.\src/grouped.c **** 			break;
 771              		.loc 1 267 0
 772 03d0 93E1     		b	.L20	@
 773              	.L44:
 265:.\src/grouped.c **** 				grouped_state = GROUPED_DIMMING_DOWN;
 774              		.loc 1 265 0
 775 03d2 B94B     		ldr	r3, .L107+12	@ tmp487,
 776 03d4 0A22     		mov	r2, #10	@ tmp488,
 777 03d6 1A70     		strb	r2, [r3]	@ tmp489, grouped_state
 778              		.loc 1 267 0
 779 03d8 8FE1     		b	.L20	@
 780              	.L12:
 268:.\src/grouped.c **** 
 269:.\src/grouped.c **** 		case GROUPED_DIMMING_UP:
 270:.\src/grouped.c **** 			if (!grouped_timer)
 781              		.loc 1 270 0
 782 03da BB4B     		ldr	r3, .L107+28	@ tmp490,
 783 03dc 1B88     		ldrh	r3, [r3]	@ tmp491, standalone_timer
 784 03de 9BB2     		uxth	r3, r3	@ standalone_timer.74, tmp491
 785 03e0 002B     		cmp	r3, #0	@ standalone_timer.74,
 786 03e2 00D0     		beq	.LCB533	@
 787 03e4 5DE1     		b	.L98	@long jump	@
 788              	.LCB533:
 271:.\src/grouped.c **** 			{
 272:.\src/grouped.c **** 				if (GroupedStruct_local.dimming_up_timer_value > 255)
 789              		.loc 1 272 0
 790 03e6 B94B     		ldr	r3, .L107+32	@ tmp492,
 791 03e8 5B89     		ldrh	r3, [r3, #10]	@ D.6236,
 792 03ea FF2B     		cmp	r3, #255	@ D.6236,
 793 03ec 06D9     		bls	.L47	@,
 273:.\src/grouped.c **** 					grouped_timer = (GroupedStruct_local.dimming_up_timer_value >> 8);
 794              		.loc 1 273 0
 795 03ee B74B     		ldr	r3, .L107+32	@ tmp493,
 796 03f0 5B89     		ldrh	r3, [r3, #10]	@ D.6239,
 797 03f2 1B0A     		lsr	r3, r3, #8	@ tmp494, D.6239,
 798 03f4 9AB2     		uxth	r2, r3	@ standalone_timer.75, tmp494
 799 03f6 B44B     		ldr	r3, .L107+28	@ tmp495,
 800 03f8 1A80     		strh	r2, [r3]	@ tmp496, standalone_timer
ARM GAS  C:\Users\Mariano\AppData\Local\Temp\ccqsEEdp.s 			page 21


 801 03fa 02E0     		b	.L48	@
 802              	.L47:
 274:.\src/grouped.c **** 				else
 275:.\src/grouped.c **** 					grouped_timer = TT_RISING_FALLING;
 803              		.loc 1 275 0
 804 03fc B24B     		ldr	r3, .L107+28	@ tmp497,
 805 03fe 0122     		mov	r2, #1	@ tmp498,
 806 0400 1A80     		strh	r2, [r3]	@ tmp499, standalone_timer
 807              	.L48:
 276:.\src/grouped.c **** 
 277:.\src/grouped.c **** 				if (CheckACSw() > S_NO)
 808              		.loc 1 277 0
 809 0402 FFF7FEFF 		bl	CheckACSw	@
 810 0406 031C     		mov	r3, r0	@ tmp500,
 811 0408 002B     		cmp	r3, #0	@ D.6242,
 812 040a 25D0     		beq	.L49	@,
 278:.\src/grouped.c **** 				{
 279:.\src/grouped.c **** 					if (grouped_ii < GroupedStruct_local.max_dimmer_value_dmx)
 813              		.loc 1 279 0
 814 040c AF4B     		ldr	r3, .L107+32	@ tmp502,
 815 040e 1B79     		ldrb	r3, [r3, #4]	@ D.6245,
 816 0410 1A1C     		mov	r2, r3	@ D.6246, D.6245
 817 0412 A64B     		ldr	r3, .L107	@ tmp503,
 818 0414 1B88     		ldrh	r3, [r3]	@ grouped_ii.76, grouped_ii
 819 0416 9A42     		cmp	r2, r3	@ D.6246, grouped_ii.76
 820 0418 00D8     		bhi	.LCB563	@
 821 041a 42E1     		b	.L98	@long jump	@
 822              	.LCB563:
 280:.\src/grouped.c **** 					{
 281:.\src/grouped.c **** 						grouped_ii++;
 823              		.loc 1 281 0
 824 041c A34B     		ldr	r3, .L107	@ tmp504,
 825 041e 1B88     		ldrh	r3, [r3]	@ grouped_ii.77, grouped_ii
 826 0420 0133     		add	r3, r3, #1	@ tmp505,
 827 0422 9AB2     		uxth	r2, r3	@ grouped_ii.78, tmp505
 828 0424 A14B     		ldr	r3, .L107	@ tmp506,
 829 0426 1A80     		strh	r2, [r3]	@ tmp507, grouped_ii
 282:.\src/grouped.c **** 						memset((unsigned char *)data1, (unsigned char) grouped_ii, SIZEOF_DATA1);
 830              		.loc 1 282 0
 831 0428 A04B     		ldr	r3, .L107	@ tmp508,
 832 042a 1B88     		ldrh	r3, [r3]	@ grouped_ii.79, grouped_ii
 833 042c DBB2     		uxtb	r3, r3	@ D.6253, grouped_ii.79
 834 042e 1A1C     		mov	r2, r3	@ D.6254, D.6253
 835 0430 9F49     		ldr	r1, .L107+4	@ tmp509,
 836 0432 8023     		mov	r3, #128	@ tmp759,
 837 0434 9B00     		lsl	r3, r3, #2	@ tmp510, tmp759,
 838 0436 081C     		mov	r0, r1	@, tmp509
 839 0438 111C     		mov	r1, r2	@, D.6254
 840 043a 1A1C     		mov	r2, r3	@, tmp510
 841 043c FFF7FEFF 		bl	memset	@
 283:.\src/grouped.c **** 						SendDMXPacket(PCKT_INIT);
 842              		.loc 1 283 0
 843 0440 0020     		mov	r0, #0	@,
 844 0442 FFF7FEFF 		bl	SendDMXPacket	@
 284:.\src/grouped.c **** 						grouped_master_timeout_timer = TT_MASTER_TIMEOUT;
 845              		.loc 1 284 0
 846 0446 9B4B     		ldr	r3, .L107+8	@ tmp511,
ARM GAS  C:\Users\Mariano\AppData\Local\Temp\ccqsEEdp.s 			page 22


 847 0448 6422     		mov	r2, #100	@ tmp512,
 848 044a 1A70     		strb	r2, [r3]	@ tmp513, grouped_master_timeout_timer
 285:.\src/grouped.c **** 						Update_TIM3_CH1 (grouped_ii);
 849              		.loc 1 285 0
 850 044c 974B     		ldr	r3, .L107	@ tmp514,
 851 044e 1B88     		ldrh	r3, [r3]	@ grouped_ii.80, grouped_ii
 852 0450 181C     		mov	r0, r3	@, grouped_ii.80
 853 0452 FFF7FEFF 		bl	Update_TIM3_CH1	@
 286:.\src/grouped.c **** 					}
 287:.\src/grouped.c **** 				}
 288:.\src/grouped.c **** 				else	//si liberaron y estoy en maximo lo doy vuelta
 289:.\src/grouped.c **** 				{
 290:.\src/grouped.c **** 					if (grouped_ii >= GroupedStruct_local.max_dimmer_value_dmx)
 291:.\src/grouped.c **** 						grouped_dimming_last_slope = DIM_DOWN;
 292:.\src/grouped.c **** 					grouped_state = GROUPED_ON;
 293:.\src/grouped.c **** 				}
 294:.\src/grouped.c **** 			}
 295:.\src/grouped.c **** 			break;
 854              		.loc 1 295 0
 855 0456 24E1     		b	.L98	@
 856              	.L49:
 290:.\src/grouped.c **** 					if (grouped_ii >= GroupedStruct_local.max_dimmer_value_dmx)
 857              		.loc 1 290 0
 858 0458 9C4B     		ldr	r3, .L107+32	@ tmp515,
 859 045a 1B79     		ldrb	r3, [r3, #4]	@ D.6257,
 860 045c 1A1C     		mov	r2, r3	@ D.6258, D.6257
 861 045e 934B     		ldr	r3, .L107	@ tmp516,
 862 0460 1B88     		ldrh	r3, [r3]	@ grouped_ii.81, grouped_ii
 863 0462 9A42     		cmp	r2, r3	@ D.6258, grouped_ii.81
 864 0464 02D8     		bhi	.L50	@,
 291:.\src/grouped.c **** 						grouped_dimming_last_slope = DIM_DOWN;
 865              		.loc 1 291 0
 866 0466 974B     		ldr	r3, .L107+24	@ tmp517,
 867 0468 0122     		mov	r2, #1	@ tmp518,
 868 046a 1A70     		strb	r2, [r3]	@ tmp519, grouped_dimming_last_slope
 869              	.L50:
 292:.\src/grouped.c **** 					grouped_state = GROUPED_ON;
 870              		.loc 1 292 0
 871 046c 924B     		ldr	r3, .L107+12	@ tmp520,
 872 046e 0522     		mov	r2, #5	@ tmp521,
 873 0470 1A70     		strb	r2, [r3]	@ tmp522, grouped_state
 874              		.loc 1 295 0
 875 0472 16E1     		b	.L98	@
 876              	.L13:
 296:.\src/grouped.c **** 
 297:.\src/grouped.c **** 		case GROUPED_DIMMING_DOWN:
 298:.\src/grouped.c **** 			if (!grouped_timer)
 877              		.loc 1 298 0
 878 0474 944B     		ldr	r3, .L107+28	@ tmp523,
 879 0476 1B88     		ldrh	r3, [r3]	@ tmp524, standalone_timer
 880 0478 9BB2     		uxth	r3, r3	@ standalone_timer.82, tmp524
 881 047a 002B     		cmp	r3, #0	@ standalone_timer.82,
 882 047c 00D0     		beq	.LCB617	@
 883 047e 12E1     		b	.L99	@long jump	@
 884              	.LCB617:
 299:.\src/grouped.c **** 			{
 300:.\src/grouped.c **** 				if (GroupedStruct_local.dimming_up_timer_value > 255)
ARM GAS  C:\Users\Mariano\AppData\Local\Temp\ccqsEEdp.s 			page 23


 885              		.loc 1 300 0
 886 0480 924B     		ldr	r3, .L107+32	@ tmp525,
 887 0482 5B89     		ldrh	r3, [r3, #10]	@ D.6265,
 888 0484 FF2B     		cmp	r3, #255	@ D.6265,
 889 0486 06D9     		bls	.L52	@,
 301:.\src/grouped.c **** 					grouped_timer = (GroupedStruct_local.dimming_up_timer_value >> 8);
 890              		.loc 1 301 0
 891 0488 904B     		ldr	r3, .L107+32	@ tmp526,
 892 048a 5B89     		ldrh	r3, [r3, #10]	@ D.6268,
 893 048c 1B0A     		lsr	r3, r3, #8	@ tmp527, D.6268,
 894 048e 9AB2     		uxth	r2, r3	@ standalone_timer.83, tmp527
 895 0490 8D4B     		ldr	r3, .L107+28	@ tmp528,
 896 0492 1A80     		strh	r2, [r3]	@ tmp529, standalone_timer
 897 0494 02E0     		b	.L53	@
 898              	.L52:
 302:.\src/grouped.c **** 				else
 303:.\src/grouped.c **** 					grouped_timer = TT_RISING_FALLING;
 899              		.loc 1 303 0
 900 0496 8C4B     		ldr	r3, .L107+28	@ tmp530,
 901 0498 0122     		mov	r2, #1	@ tmp531,
 902 049a 1A80     		strh	r2, [r3]	@ tmp532, standalone_timer
 903              	.L53:
 304:.\src/grouped.c **** 
 305:.\src/grouped.c **** 				if (CheckACSw() > S_NO)
 904              		.loc 1 305 0
 905 049c FFF7FEFF 		bl	CheckACSw	@
 906 04a0 031C     		mov	r3, r0	@ tmp533,
 907 04a2 002B     		cmp	r3, #0	@ D.6271,
 908 04a4 25D0     		beq	.L54	@,
 306:.\src/grouped.c **** 				{
 307:.\src/grouped.c **** 					if (grouped_ii > GroupedStruct_local.min_dimmer_value_dmx)
 909              		.loc 1 307 0
 910 04a6 894B     		ldr	r3, .L107+32	@ tmp535,
 911 04a8 9B79     		ldrb	r3, [r3, #6]	@ D.6274,
 912 04aa 1A1C     		mov	r2, r3	@ D.6275, D.6274
 913 04ac 7F4B     		ldr	r3, .L107	@ tmp536,
 914 04ae 1B88     		ldrh	r3, [r3]	@ grouped_ii.84, grouped_ii
 915 04b0 9A42     		cmp	r2, r3	@ D.6275, grouped_ii.84
 916 04b2 00D3     		bcc	.LCB647	@
 917 04b4 F7E0     		b	.L99	@long jump	@
 918              	.LCB647:
 308:.\src/grouped.c **** 					{
 309:.\src/grouped.c **** 						grouped_ii--;
 919              		.loc 1 309 0
 920 04b6 7D4B     		ldr	r3, .L107	@ tmp537,
 921 04b8 1B88     		ldrh	r3, [r3]	@ grouped_ii.85, grouped_ii
 922 04ba 013B     		sub	r3, r3, #1	@ tmp538,
 923 04bc 9AB2     		uxth	r2, r3	@ grouped_ii.86, tmp538
 924 04be 7B4B     		ldr	r3, .L107	@ tmp539,
 925 04c0 1A80     		strh	r2, [r3]	@ tmp540, grouped_ii
 310:.\src/grouped.c **** 						memset((unsigned char *)data1, (unsigned char) grouped_ii, SIZEOF_DATA1);
 926              		.loc 1 310 0
 927 04c2 7A4B     		ldr	r3, .L107	@ tmp541,
 928 04c4 1B88     		ldrh	r3, [r3]	@ grouped_ii.87, grouped_ii
 929 04c6 DBB2     		uxtb	r3, r3	@ D.6282, grouped_ii.87
 930 04c8 1A1C     		mov	r2, r3	@ D.6283, D.6282
 931 04ca 7949     		ldr	r1, .L107+4	@ tmp542,
ARM GAS  C:\Users\Mariano\AppData\Local\Temp\ccqsEEdp.s 			page 24


 932 04cc 8023     		mov	r3, #128	@ tmp758,
 933 04ce 9B00     		lsl	r3, r3, #2	@ tmp543, tmp758,
 934 04d0 081C     		mov	r0, r1	@, tmp542
 935 04d2 111C     		mov	r1, r2	@, D.6283
 936 04d4 1A1C     		mov	r2, r3	@, tmp543
 937 04d6 FFF7FEFF 		bl	memset	@
 311:.\src/grouped.c **** 						SendDMXPacket(PCKT_INIT);
 938              		.loc 1 311 0
 939 04da 0020     		mov	r0, #0	@,
 940 04dc FFF7FEFF 		bl	SendDMXPacket	@
 312:.\src/grouped.c **** 						grouped_master_timeout_timer = TT_MASTER_TIMEOUT;
 941              		.loc 1 312 0
 942 04e0 744B     		ldr	r3, .L107+8	@ tmp544,
 943 04e2 6422     		mov	r2, #100	@ tmp545,
 944 04e4 1A70     		strb	r2, [r3]	@ tmp546, grouped_master_timeout_timer
 313:.\src/grouped.c **** 						Update_TIM3_CH1 (grouped_ii);
 945              		.loc 1 313 0
 946 04e6 714B     		ldr	r3, .L107	@ tmp547,
 947 04e8 1B88     		ldrh	r3, [r3]	@ grouped_ii.88, grouped_ii
 948 04ea 181C     		mov	r0, r3	@, grouped_ii.88
 949 04ec FFF7FEFF 		bl	Update_TIM3_CH1	@
 314:.\src/grouped.c **** 					}
 315:.\src/grouped.c **** 				}
 316:.\src/grouped.c **** 				else	//si liberaron y estoy en minimo lo doy vuelta
 317:.\src/grouped.c **** 				{
 318:.\src/grouped.c **** 					if (grouped_ii <= GroupedStruct_local.min_dimmer_value_dmx)
 319:.\src/grouped.c **** 						grouped_dimming_last_slope = DIM_UP;
 320:.\src/grouped.c **** 					grouped_state = GROUPED_ON;
 321:.\src/grouped.c **** 				}
 322:.\src/grouped.c **** 			}
 323:.\src/grouped.c **** 			break;
 950              		.loc 1 323 0
 951 04f0 D9E0     		b	.L99	@
 952              	.L54:
 318:.\src/grouped.c **** 					if (grouped_ii <= GroupedStruct_local.min_dimmer_value_dmx)
 953              		.loc 1 318 0
 954 04f2 764B     		ldr	r3, .L107+32	@ tmp548,
 955 04f4 9B79     		ldrb	r3, [r3, #6]	@ D.6286,
 956 04f6 1A1C     		mov	r2, r3	@ D.6287, D.6286
 957 04f8 6C4B     		ldr	r3, .L107	@ tmp549,
 958 04fa 1B88     		ldrh	r3, [r3]	@ grouped_ii.89, grouped_ii
 959 04fc 9A42     		cmp	r2, r3	@ D.6287, grouped_ii.89
 960 04fe 02D3     		bcc	.L55	@,
 319:.\src/grouped.c **** 						grouped_dimming_last_slope = DIM_UP;
 961              		.loc 1 319 0
 962 0500 704B     		ldr	r3, .L107+24	@ tmp550,
 963 0502 0022     		mov	r2, #0	@ tmp551,
 964 0504 1A70     		strb	r2, [r3]	@ tmp552, grouped_dimming_last_slope
 965              	.L55:
 320:.\src/grouped.c **** 					grouped_state = GROUPED_ON;
 966              		.loc 1 320 0
 967 0506 6C4B     		ldr	r3, .L107+12	@ tmp553,
 968 0508 0522     		mov	r2, #5	@ tmp554,
 969 050a 1A70     		strb	r2, [r3]	@ tmp555, grouped_state
 970              		.loc 1 323 0
 971 050c CBE0     		b	.L99	@
 972              	.L14:
ARM GAS  C:\Users\Mariano\AppData\Local\Temp\ccqsEEdp.s 			page 25


 324:.\src/grouped.c **** 
 325:.\src/grouped.c **** 		case GROUPED_SLAVE_INIT:
 326:.\src/grouped.c **** 			DMX_channel_quantity = 1;
 973              		.loc 1 326 0
 974 050e 704B     		ldr	r3, .L107+36	@ tmp556,
 975 0510 0122     		mov	r2, #1	@ tmp557,
 976 0512 1A70     		strb	r2, [r3]	@ tmp558, DMX_channel_quantity
 327:.\src/grouped.c **** 			DMX_channel_selected = GroupedStruct_local.grouped_dmx_channel;
 977              		.loc 1 327 0
 978 0514 6D4B     		ldr	r3, .L107+32	@ tmp559,
 979 0516 DA89     		ldrh	r2, [r3, #14]	@ DMX_channel_selected.90,
 980 0518 6E4B     		ldr	r3, .L107+40	@ tmp560,
 981 051a 1A80     		strh	r2, [r3]	@ tmp561, DMX_channel_selected
 328:.\src/grouped.c **** 			DMX_Ena();
 982              		.loc 1 328 0
 983 051c FFF7FEFF 		bl	DMX_Ena	@
 329:.\src/grouped.c **** 
 330:.\src/grouped.c **** 			if (grouped_selections == MENU_OFF)
 984              		.loc 1 330 0
 985 0520 664B     		ldr	r3, .L107+16	@ tmp562,
 986 0522 1B78     		ldrb	r3, [r3]	@ grouped_selections.91, grouped_selections
 987 0524 022B     		cmp	r3, #2	@ grouped_selections.91,
 988 0526 06D1     		bne	.L56	@,
 331:.\src/grouped.c **** 			{
 332:.\src/grouped.c **** 				LCD_1ER_RENGLON;
 989              		.loc 1 332 0
 990 0528 0020     		mov	r0, #0	@,
 991 052a FFF7FEFF 		bl	Lcd_SetDDRAM	@
 333:.\src/grouped.c **** 				LCDTransmitStr((const char *) "Slave Mode Working");
 992              		.loc 1 333 0
 993 052e 6A4B     		ldr	r3, .L107+44	@ tmp563,
 994 0530 181C     		mov	r0, r3	@, tmp563
 995 0532 FFF7FEFF 		bl	LCDTransmitStr	@
 996              	.L56:
 334:.\src/grouped.c **** 			}
 335:.\src/grouped.c **** 			grouped_state++;
 997              		.loc 1 335 0
 998 0536 604B     		ldr	r3, .L107+12	@ tmp564,
 999 0538 1B78     		ldrb	r3, [r3]	@ grouped_state.92, grouped_state
 1000 053a 0133     		add	r3, r3, #1	@ tmp565,
 1001 053c DAB2     		uxtb	r2, r3	@ grouped_state.93, tmp565
 1002 053e 5E4B     		ldr	r3, .L107+12	@ tmp566,
 1003 0540 1A70     		strb	r2, [r3]	@ tmp567, grouped_state
 336:.\src/grouped.c **** 			break;
 1004              		.loc 1 336 0
 1005 0542 DAE0     		b	.L20	@
 1006              	.L15:
 337:.\src/grouped.c **** 
 338:.\src/grouped.c **** 		case GROUPED_SLAVE_WORKING:
 339:.\src/grouped.c **** 			//me quedo aca hasta que me saquen por menu
 340:.\src/grouped.c **** 
 341:.\src/grouped.c **** 			if (Packet_Detected_Flag)
 1007              		.loc 1 341 0
 1008 0544 654B     		ldr	r3, .L107+48	@ tmp568,
 1009 0546 1B78     		ldrb	r3, [r3]	@ tmp569, Packet_Detected_Flag
 1010 0548 DBB2     		uxtb	r3, r3	@ Packet_Detected_Flag.94, tmp569
 1011 054a 002B     		cmp	r3, #0	@ Packet_Detected_Flag.94,
ARM GAS  C:\Users\Mariano\AppData\Local\Temp\ccqsEEdp.s 			page 26


 1012 054c 0ED0     		beq	.L57	@,
 342:.\src/grouped.c **** 			{
 343:.\src/grouped.c **** 				//llego un paquete DMX
 344:.\src/grouped.c **** 				Packet_Detected_Flag = 0;
 1013              		.loc 1 344 0
 1014 054e 634B     		ldr	r3, .L107+48	@ tmp570,
 1015 0550 0022     		mov	r2, #0	@ tmp571,
 1016 0552 1A70     		strb	r2, [r3]	@ tmp572, Packet_Detected_Flag
 345:.\src/grouped.c **** 
 346:.\src/grouped.c **** 				//en data tengo la info
 347:.\src/grouped.c **** 				Update_TIM3_CH1 (data[0]);
 1017              		.loc 1 347 0
 1018 0554 624B     		ldr	r3, .L107+52	@ tmp573,
 1019 0556 1B78     		ldrb	r3, [r3]	@ tmp574,
 1020 0558 DBB2     		uxtb	r3, r3	@ D.6300, tmp574
 1021 055a 181C     		mov	r0, r3	@, D.6301
 1022 055c FFF7FEFF 		bl	Update_TIM3_CH1	@
 348:.\src/grouped.c **** 				grouped_ii = data[0];
 1023              		.loc 1 348 0
 1024 0560 5F4B     		ldr	r3, .L107+52	@ tmp575,
 1025 0562 1B78     		ldrb	r3, [r3]	@ tmp576,
 1026 0564 DBB2     		uxtb	r3, r3	@ D.6302, tmp576
 1027 0566 1A1C     		mov	r2, r3	@ grouped_ii.95, D.6302
 1028 0568 504B     		ldr	r3, .L107	@ tmp577,
 1029 056a 1A80     		strh	r2, [r3]	@ tmp578, grouped_ii
 1030              	.L57:
 349:.\src/grouped.c **** 			}
 350:.\src/grouped.c **** 
 351:.\src/grouped.c **** 
 352:.\src/grouped.c **** 			if (grouped_ii > 10)
 1031              		.loc 1 352 0
 1032 056c 4F4B     		ldr	r3, .L107	@ tmp579,
 1033 056e 1B88     		ldrh	r3, [r3]	@ grouped_ii.96, grouped_ii
 1034 0570 0A2B     		cmp	r3, #10	@ grouped_ii.96,
 1035 0572 05D9     		bls	.L58	@,
 353:.\src/grouped.c **** 				RELAY_ON;
 1036              		.loc 1 353 0
 1037 0574 9023     		mov	r3, #144	@ tmp756,
 1038 0576 DB05     		lsl	r3, r3, #23	@ D.6307, tmp756,
 1039 0578 8022     		mov	r2, #128	@ tmp757,
 1040 057a 1201     		lsl	r2, r2, #4	@ tmp580, tmp757,
 1041 057c 9A61     		str	r2, [r3, #24]	@ tmp580, D.6307_120->BSRR
 1042 057e 08E0     		b	.L59	@
 1043              	.L58:
 354:.\src/grouped.c **** 			else if (grouped_ii < 5)
 1044              		.loc 1 354 0
 1045 0580 4A4B     		ldr	r3, .L107	@ tmp581,
 1046 0582 1B88     		ldrh	r3, [r3]	@ grouped_ii.97, grouped_ii
 1047 0584 042B     		cmp	r3, #4	@ grouped_ii.97,
 1048 0586 04D8     		bhi	.L59	@,
 355:.\src/grouped.c **** 				RELAY_OFF;
 1049              		.loc 1 355 0
 1050 0588 9023     		mov	r3, #144	@ tmp754,
 1051 058a DB05     		lsl	r3, r3, #23	@ D.6312, tmp754,
 1052 058c 8022     		mov	r2, #128	@ tmp755,
 1053 058e 1205     		lsl	r2, r2, #20	@ tmp582, tmp755,
 1054 0590 9A61     		str	r2, [r3, #24]	@ tmp582, D.6312_122->BSRR
ARM GAS  C:\Users\Mariano\AppData\Local\Temp\ccqsEEdp.s 			page 27


 1055              	.L59:
 356:.\src/grouped.c **** 
 357:.\src/grouped.c **** 			if (grouped_selections == MENU_OFF)
 1056              		.loc 1 357 0
 1057 0592 4A4B     		ldr	r3, .L107+16	@ tmp583,
 1058 0594 1B78     		ldrb	r3, [r3]	@ grouped_selections.98, grouped_selections
 1059 0596 022B     		cmp	r3, #2	@ grouped_selections.98,
 1060 0598 00D0     		beq	.LCB774	@
 1061 059a ADE0     		b	.L100	@long jump	@
 1062              	.LCB774:
 358:.\src/grouped.c **** 			{
 359:.\src/grouped.c **** 				if (grouped_slave_dim_last != grouped_ii)
 1063              		.loc 1 359 0
 1064 059c 514B     		ldr	r3, .L107+56	@ tmp584,
 1065 059e 1B78     		ldrb	r3, [r3]	@ grouped_slave_dim_last.99, grouped_slave_dim_last
 1066 05a0 1A1C     		mov	r2, r3	@ D.6317, grouped_slave_dim_last.99
 1067 05a2 424B     		ldr	r3, .L107	@ tmp585,
 1068 05a4 1B88     		ldrh	r3, [r3]	@ grouped_ii.100, grouped_ii
 1069 05a6 9A42     		cmp	r2, r3	@ D.6317, grouped_ii.100
 1070 05a8 00D1     		bne	.LCB781	@
 1071 05aa A5E0     		b	.L100	@long jump	@
 1072              	.LCB781:
 1073              	.LBB2:
 360:.\src/grouped.c **** 				{
 361:.\src/grouped.c **** 					unsigned char i;
 362:.\src/grouped.c **** 					unsigned short ii;
 363:.\src/grouped.c **** 					char s_lcd [20];
 364:.\src/grouped.c **** 
 365:.\src/grouped.c **** 					grouped_slave_dim_last = grouped_ii;
 1074              		.loc 1 365 0
 1075 05ac 3F4B     		ldr	r3, .L107	@ tmp586,
 1076 05ae 1B88     		ldrh	r3, [r3]	@ grouped_ii.101, grouped_ii
 1077 05b0 DAB2     		uxtb	r2, r3	@ grouped_slave_dim_last.102, grouped_ii.101
 1078 05b2 4C4B     		ldr	r3, .L107+56	@ tmp587,
 1079 05b4 1A70     		strb	r2, [r3]	@ tmp588, grouped_slave_dim_last
 366:.\src/grouped.c **** 
 367:.\src/grouped.c **** 					ii = grouped_slave_dim_last * 100;
 1080              		.loc 1 367 0
 1081 05b6 4B4B     		ldr	r3, .L107+56	@ tmp589,
 1082 05b8 1B78     		ldrb	r3, [r3]	@ grouped_slave_dim_last.103, grouped_slave_dim_last
 1083 05ba 1A1C     		mov	r2, r3	@ D.6324, grouped_slave_dim_last.103
 1084 05bc 07AB     		add	r3, sp, #28	@ tmp590,,
 1085 05be 6421     		mov	r1, #100	@ tmp592,
 1086 05c0 4A43     		mul	r2, r1	@ tmp591, tmp592
 1087 05c2 1A80     		strh	r2, [r3]	@ tmp593, ii
 368:.\src/grouped.c **** 					ii = ii / 255;
 1088              		.loc 1 368 0
 1089 05c4 07AC     		add	r4, sp, #28	@ tmp594,,
 1090 05c6 07AB     		add	r3, sp, #28	@ tmp595,,
 1091 05c8 1B88     		ldrh	r3, [r3]	@ tmp597, ii
 1092 05ca 181C     		mov	r0, r3	@, tmp597
 1093 05cc FF21     		mov	r1, #255	@,
 1094 05ce FFF7FEFF 		bl	__aeabi_uidiv	@
 1095 05d2 031C     		mov	r3, r0	@ tmp600,
 1096 05d4 2380     		strh	r3, [r4]	@ tmp601, ii
 369:.\src/grouped.c **** 					if (ii > 100)
 1097              		.loc 1 369 0
ARM GAS  C:\Users\Mariano\AppData\Local\Temp\ccqsEEdp.s 			page 28


 1098 05d6 07AB     		add	r3, sp, #28	@ tmp602,,
 1099 05d8 1B88     		ldrh	r3, [r3]	@ tmp603, ii
 1100 05da 642B     		cmp	r3, #100	@ tmp603,
 1101 05dc 02D9     		bls	.L61	@,
 370:.\src/grouped.c **** 						ii = 100;
 1102              		.loc 1 370 0
 1103 05de 07AB     		add	r3, sp, #28	@ tmp604,,
 1104 05e0 6422     		mov	r2, #100	@ tmp605,
 1105 05e2 1A80     		strh	r2, [r3]	@ tmp606, ii
 1106              	.L61:
 371:.\src/grouped.c **** 
 372:.\src/grouped.c **** 					LCD_2DO_RENGLON;
 1107              		.loc 1 372 0
 1108 05e4 4020     		mov	r0, #64	@,
 1109 05e6 FFF7FEFF 		bl	Lcd_SetDDRAM	@
 373:.\src/grouped.c **** 					Lcd_SetDDRAM(0x40 + 12);
 1110              		.loc 1 373 0
 1111 05ea 4C20     		mov	r0, #76	@,
 1112 05ec FFF7FEFF 		bl	Lcd_SetDDRAM	@
 374:.\src/grouped.c **** 					sprintf(s_lcd, "%3d", ii);
 1113              		.loc 1 374 0
 1114 05f0 07AB     		add	r3, sp, #28	@ tmp607,,
 1115 05f2 1B88     		ldrh	r3, [r3]	@ D.6327, ii
 1116 05f4 01A9     		add	r1, sp, #4	@ tmp608,,
 1117 05f6 3C4A     		ldr	r2, .L107+60	@ tmp609,
 1118 05f8 081C     		mov	r0, r1	@, tmp608
 1119 05fa 111C     		mov	r1, r2	@, tmp609
 1120 05fc 1A1C     		mov	r2, r3	@, D.6327
 1121 05fe FFF7FEFF 		bl	sprintf	@
 375:.\src/grouped.c **** 					LCDTransmitStr(s_lcd);
 1122              		.loc 1 375 0
 1123 0602 01AB     		add	r3, sp, #4	@ tmp610,,
 1124 0604 181C     		mov	r0, r3	@, tmp610
 1125 0606 FFF7FEFF 		bl	LCDTransmitStr	@
 376:.\src/grouped.c **** 					LCDTransmitStr("%");
 1126              		.loc 1 376 0
 1127 060a 384B     		ldr	r3, .L107+64	@ tmp611,
 1128 060c 181C     		mov	r0, r3	@, tmp611
 1129 060e FFF7FEFF 		bl	LCDTransmitStr	@
 377:.\src/grouped.c **** 
 378:.\src/grouped.c **** 					ii = ii / 10;
 1130              		.loc 1 378 0
 1131 0612 07AC     		add	r4, sp, #28	@ tmp612,,
 1132 0614 07AB     		add	r3, sp, #28	@ tmp613,,
 1133 0616 1B88     		ldrh	r3, [r3]	@ tmp615, ii
 1134 0618 181C     		mov	r0, r3	@, tmp615
 1135 061a 0A21     		mov	r1, #10	@,
 1136 061c FFF7FEFF 		bl	__aeabi_uidiv	@
 1137 0620 031C     		mov	r3, r0	@ tmp618,
 1138 0622 2380     		strh	r3, [r4]	@ tmp619, ii
 379:.\src/grouped.c **** 					if (grouped_slave_dim2_last != ii)
 1139              		.loc 1 379 0
 1140 0624 324B     		ldr	r3, .L107+68	@ tmp620,
 1141 0626 1B78     		ldrb	r3, [r3]	@ grouped_slave_dim2_last.104, grouped_slave_dim2_last
 1142 0628 07AA     		add	r2, sp, #28	@ tmp621,,
 1143 062a 1288     		ldrh	r2, [r2]	@ tmp622, ii
 1144 062c 9A42     		cmp	r2, r3	@ tmp622, D.6329
ARM GAS  C:\Users\Mariano\AppData\Local\Temp\ccqsEEdp.s 			page 29


 1145 062e 63D0     		beq	.L100	@,
 380:.\src/grouped.c **** 					{
 381:.\src/grouped.c **** 						grouped_slave_dim2_last = ii;
 1146              		.loc 1 381 0
 1147 0630 07AB     		add	r3, sp, #28	@ tmp623,,
 1148 0632 1B88     		ldrh	r3, [r3]	@ tmp625, ii
 1149 0634 DAB2     		uxtb	r2, r3	@ grouped_slave_dim2_last.105, tmp624
 1150 0636 2E4B     		ldr	r3, .L107+68	@ tmp626,
 1151 0638 1A70     		strb	r2, [r3]	@ tmp627, grouped_slave_dim2_last
 382:.\src/grouped.c **** 						LCD_2DO_RENGLON;
 1152              		.loc 1 382 0
 1153 063a 4020     		mov	r0, #64	@,
 1154 063c FFF7FEFF 		bl	Lcd_SetDDRAM	@
 383:.\src/grouped.c **** 						LCDTransmitStr((const char *) "            ");
 1155              		.loc 1 383 0
 1156 0640 2C4B     		ldr	r3, .L107+72	@ tmp628,
 1157 0642 181C     		mov	r0, r3	@, tmp628
 1158 0644 FFF7FEFF 		bl	LCDTransmitStr	@
 384:.\src/grouped.c **** 						LCD_2DO_RENGLON;
 1159              		.loc 1 384 0
 1160 0648 4020     		mov	r0, #64	@,
 1161 064a FFF7FEFF 		bl	Lcd_SetDDRAM	@
 385:.\src/grouped.c **** 						for (i = 0; i < ii; i++)
 1162              		.loc 1 385 0
 1163 064e 6B46     		mov	r3, sp	@ tmp629,
 1164 0650 1E33     		add	r3, r3, #30	@ tmp629,
 1165 0652 0022     		mov	r2, #0	@ tmp630,
 1166 0654 1A70     		strb	r2, [r3]	@ tmp631, i
 1167 0656 09E0     		b	.L63	@
 1168              	.L64:
 386:.\src/grouped.c **** 						{
 387:.\src/grouped.c **** 							LCDStartTransmit(0xff);
 1169              		.loc 1 387 0 discriminator 2
 1170 0658 FF20     		mov	r0, #255	@,
 1171 065a FFF7FEFF 		bl	LCDStartTransmit	@
 385:.\src/grouped.c **** 						for (i = 0; i < ii; i++)
 1172              		.loc 1 385 0 discriminator 2
 1173 065e 6B46     		mov	r3, sp	@ tmp632,
 1174 0660 1E33     		add	r3, r3, #30	@ tmp632,
 1175 0662 6A46     		mov	r2, sp	@ tmp633,
 1176 0664 1E32     		add	r2, r2, #30	@ tmp633,
 1177 0666 1278     		ldrb	r2, [r2]	@ tmp634, i
 1178 0668 0132     		add	r2, r2, #1	@ tmp635,
 1179 066a 1A70     		strb	r2, [r3]	@ tmp636, i
 1180              	.L63:
 385:.\src/grouped.c **** 						for (i = 0; i < ii; i++)
 1181              		.loc 1 385 0 is_stmt 0 discriminator 1
 1182 066c 6B46     		mov	r3, sp	@ tmp637,
 1183 066e 1E33     		add	r3, r3, #30	@ tmp637,
 1184 0670 1B78     		ldrb	r3, [r3]	@ tmp639, i
 1185 0672 9BB2     		uxth	r3, r3	@ D.6333, tmp638
 1186 0674 07AA     		add	r2, sp, #28	@ tmp640,,
 1187 0676 1288     		ldrh	r2, [r2]	@ tmp641, ii
 1188 0678 9A42     		cmp	r2, r3	@ tmp641, D.6333
 1189 067a EDD8     		bhi	.L64	@,
 1190              	.LBE2:
 388:.\src/grouped.c **** 						}
ARM GAS  C:\Users\Mariano\AppData\Local\Temp\ccqsEEdp.s 			page 30


 389:.\src/grouped.c **** 					}
 390:.\src/grouped.c **** 				}
 391:.\src/grouped.c **** 			}
 392:.\src/grouped.c **** 			break;
 1191              		.loc 1 392 0 is_stmt 1
 1192 067c 3CE0     		b	.L100	@
 1193              	.L2:
 393:.\src/grouped.c **** 
 394:.\src/grouped.c **** 		default:
 395:.\src/grouped.c **** 			grouped_state = GROUPED_INIT;
 1194              		.loc 1 395 0
 1195 067e 0E4B     		ldr	r3, .L107+12	@ tmp642,
 1196 0680 0022     		mov	r2, #0	@ tmp643,
 1197 0682 1A70     		strb	r2, [r3]	@ tmp644, grouped_state
 396:.\src/grouped.c **** 			break;
 1198              		.loc 1 396 0
 1199 0684 39E0     		b	.L20	@
 1200              	.L91:
 104:.\src/grouped.c **** 			break;
 1201              		.loc 1 104 0
 1202 0686 C046     		mov	r8, r8
 1203 0688 37E0     		b	.L20	@
 1204              	.L92:
 132:.\src/grouped.c **** 			break;
 1205              		.loc 1 132 0
 1206 068a C046     		mov	r8, r8
 1207 068c 35E0     		b	.L20	@
 1208              	.L93:
 161:.\src/grouped.c **** 			break;
 1209              		.loc 1 161 0
 1210 068e C046     		mov	r8, r8
 1211 0690 33E0     		b	.L20	@
 1212              	.L94:
 190:.\src/grouped.c **** 			break;
 1213              		.loc 1 190 0
 1214 0692 C046     		mov	r8, r8
 1215 0694 31E0     		b	.L20	@
 1216              	.L95:
 198:.\src/grouped.c **** 			break;
 1217              		.loc 1 198 0
 1218 0696 C046     		mov	r8, r8
 1219 0698 2FE0     		b	.L20	@
 1220              	.L96:
 226:.\src/grouped.c **** 			break;
 1221              		.loc 1 226 0
 1222 069a C046     		mov	r8, r8
 1223 069c 2DE0     		b	.L20	@
 1224              	.L97:
 259:.\src/grouped.c **** 			break;
 1225              		.loc 1 259 0
 1226 069e C046     		mov	r8, r8
 1227 06a0 2BE0     		b	.L20	@
 1228              	.L98:
 295:.\src/grouped.c **** 			break;
 1229              		.loc 1 295 0
 1230 06a2 C046     		mov	r8, r8
 1231 06a4 29E0     		b	.L20	@
ARM GAS  C:\Users\Mariano\AppData\Local\Temp\ccqsEEdp.s 			page 31


 1232              	.L99:
 323:.\src/grouped.c **** 			break;
 1233              		.loc 1 323 0
 1234 06a6 C046     		mov	r8, r8
 1235 06a8 27E0     		b	.L20	@
 1236              	.L108:
 1237 06aa C046     		.align	2
 1238              	.L107:
 1239 06ac 00000000 		.word	grouped_ii
 1240 06b0 00000000 		.word	data1
 1241 06b4 00000000 		.word	grouped_master_timeout_timer
 1242 06b8 00000000 		.word	grouped_state
 1243 06bc 00000000 		.word	grouped_selections
 1244 06c0 3C000000 		.word	.LC18
 1245 06c4 00000000 		.word	grouped_dimming_last_slope
 1246 06c8 00000000 		.word	standalone_timer
 1247 06cc 00000000 		.word	GroupedStruct_local
 1248 06d0 00000000 		.word	DMX_channel_quantity
 1249 06d4 00000000 		.word	DMX_channel_selected
 1250 06d8 50000000 		.word	.LC22
 1251 06dc 00000000 		.word	Packet_Detected_Flag
 1252 06e0 00000000 		.word	data
 1253 06e4 00000000 		.word	grouped_slave_dim_last
 1254 06e8 64000000 		.word	.LC27
 1255 06ec 68000000 		.word	.LC29
 1256 06f0 00000000 		.word	grouped_slave_dim2_last
 1257 06f4 6C000000 		.word	.LC32
 1258              	.L100:
 392:.\src/grouped.c **** 			break;
 1259              		.loc 1 392 0
 1260 06f8 C046     		mov	r8, r8
 1261              	.L20:
 397:.\src/grouped.c **** 	}
 398:.\src/grouped.c **** 
 399:.\src/grouped.c **** 
 400:.\src/grouped.c **** 	//veo el menu solo si alguien toca los botones o timeout
 401:.\src/grouped.c **** 	switch (grouped_selections)
 1262              		.loc 1 401 0
 1263 06fa 7F4B     		ldr	r3, .L109	@ tmp645,
 1264 06fc 1B78     		ldrb	r3, [r3]	@ grouped_selections.106, grouped_selections
 1265 06fe 012B     		cmp	r3, #1	@ D.6335,
 1266 0700 3CD0     		beq	.L67	@,
 1267 0702 02DC     		bgt	.L70	@,
 1268 0704 002B     		cmp	r3, #0	@ D.6335,
 1269 0706 05D0     		beq	.L66	@,
 1270 0708 CDE0     		b	.L65	@
 1271              	.L70:
 1272 070a 022B     		cmp	r3, #2	@ D.6335,
 1273 070c 4FD0     		beq	.L68	@,
 1274 070e 032B     		cmp	r3, #3	@ D.6335,
 1275 0710 69D0     		beq	.L69	@,
 1276 0712 C8E0     		b	.L65	@
 1277              	.L66:
 402:.\src/grouped.c **** 	{
 403:.\src/grouped.c **** 		case MENU_ON:
 404:.\src/grouped.c **** 			//estado normal
 405:.\src/grouped.c **** 			resp_down = MenuGrouped();
ARM GAS  C:\Users\Mariano\AppData\Local\Temp\ccqsEEdp.s 			page 32


 1278              		.loc 1 405 0
 1279 0714 6C46     		mov	r4, sp	@ tmp646,
 1280 0716 1B34     		add	r4, r4, #27	@ tmp646,
 1281 0718 FFF7FEFF 		bl	MenuGrouped	@
 1282 071c 031C     		mov	r3, r0	@ tmp647,
 1283 071e 2370     		strb	r3, [r4]	@ tmp649, resp_down
 406:.\src/grouped.c **** 
 407:.\src/grouped.c **** 			if (resp_down == RESP_WORKING)	//alguien esta tratando de seleccionar algo, le doy tiempo
 1284              		.loc 1 407 0
 1285 0720 6B46     		mov	r3, sp	@ tmp650,
 1286 0722 1B33     		add	r3, r3, #27	@ tmp650,
 1287 0724 1B78     		ldrb	r3, [r3]	@ tmp651, resp_down
 1288 0726 042B     		cmp	r3, #4	@ tmp651,
 1289 0728 02D1     		bne	.L71	@,
 408:.\src/grouped.c **** 				grouped_enable_menu_timer = TT_MENU_TIMEOUT;
 1290              		.loc 1 408 0
 1291 072a 744B     		ldr	r3, .L109+4	@ tmp652,
 1292 072c 744A     		ldr	r2, .L109+8	@ tmp653,
 1293 072e 1A80     		strh	r2, [r3]	@ tmp654, standalone_enable_menu_timer
 1294              	.L71:
 409:.\src/grouped.c **** 
 410:.\src/grouped.c **** 			if (resp_down == RESP_SELECTED)	//se selecciono algo
 1295              		.loc 1 410 0
 1296 0730 6B46     		mov	r3, sp	@ tmp655,
 1297 0732 1B33     		add	r3, r3, #27	@ tmp655,
 1298 0734 1B78     		ldrb	r3, [r3]	@ tmp656, resp_down
 1299 0736 012B     		cmp	r3, #1	@ tmp656,
 1300 0738 08D1     		bne	.L72	@,
 411:.\src/grouped.c **** 			{
 412:.\src/grouped.c **** 				grouped_enable_menu_timer = TT_MENU_TIMEOUT;
 1301              		.loc 1 412 0
 1302 073a 704B     		ldr	r3, .L109+4	@ tmp657,
 1303 073c 704A     		ldr	r2, .L109+8	@ tmp658,
 1304 073e 1A80     		strh	r2, [r3]	@ tmp659, standalone_enable_menu_timer
 413:.\src/grouped.c **** 				grouped_selections++;
 1305              		.loc 1 413 0
 1306 0740 6D4B     		ldr	r3, .L109	@ tmp660,
 1307 0742 1B78     		ldrb	r3, [r3]	@ grouped_selections.107, grouped_selections
 1308 0744 0133     		add	r3, r3, #1	@ tmp661,
 1309 0746 DAB2     		uxtb	r2, r3	@ grouped_selections.108, tmp661
 1310 0748 6B4B     		ldr	r3, .L109	@ tmp662,
 1311 074a 1A70     		strb	r2, [r3]	@ tmp663, grouped_selections
 1312              	.L72:
 414:.\src/grouped.c **** 			}
 415:.\src/grouped.c **** 
 416:.\src/grouped.c **** 			if (!grouped_enable_menu_timer)	//ya mostre el menu mucho tiempo, lo apago
 1313              		.loc 1 416 0
 1314 074c 6B4B     		ldr	r3, .L109+4	@ tmp664,
 1315 074e 1B88     		ldrh	r3, [r3]	@ tmp665, standalone_enable_menu_timer
 1316 0750 9BB2     		uxth	r3, r3	@ standalone_enable_menu_timer.109, tmp665
 1317 0752 002B     		cmp	r3, #0	@ standalone_enable_menu_timer.109,
 1318 0754 00D0     		beq	.LCB1022	@
 1319 0756 AAE0     		b	.L101	@long jump	@
 1320              	.LCB1022:
 417:.\src/grouped.c **** 			{
 418:.\src/grouped.c **** 				LCD_1ER_RENGLON;
 1321              		.loc 1 418 0
ARM GAS  C:\Users\Mariano\AppData\Local\Temp\ccqsEEdp.s 			page 33


 1322 0758 0020     		mov	r0, #0	@,
 1323 075a FFF7FEFF 		bl	Lcd_SetDDRAM	@
 419:.\src/grouped.c **** 				LCDTransmitStr((const char *)s_blank_line);
 1324              		.loc 1 419 0
 1325 075e 694B     		ldr	r3, .L109+12	@ tmp666,
 1326 0760 181C     		mov	r0, r3	@, tmp666
 1327 0762 FFF7FEFF 		bl	LCDTransmitStr	@
 420:.\src/grouped.c **** 				LCD_2DO_RENGLON;
 1328              		.loc 1 420 0
 1329 0766 4020     		mov	r0, #64	@,
 1330 0768 FFF7FEFF 		bl	Lcd_SetDDRAM	@
 421:.\src/grouped.c **** 				LCDTransmitStr((const char *)s_blank_line);
 1331              		.loc 1 421 0
 1332 076c 654B     		ldr	r3, .L109+12	@ tmp667,
 1333 076e 181C     		mov	r0, r3	@, tmp667
 1334 0770 FFF7FEFF 		bl	LCDTransmitStr	@
 422:.\src/grouped.c **** 				grouped_selections = MENU_OFF;
 1335              		.loc 1 422 0
 1336 0774 604B     		ldr	r3, .L109	@ tmp668,
 1337 0776 0222     		mov	r2, #2	@ tmp669,
 1338 0778 1A70     		strb	r2, [r3]	@ tmp670, grouped_selections
 423:.\src/grouped.c **** 			}
 424:.\src/grouped.c **** 
 425:.\src/grouped.c **** 			break;
 1339              		.loc 1 425 0
 1340 077a 98E0     		b	.L101	@
 1341              	.L67:
 426:.\src/grouped.c **** 
 427:.\src/grouped.c **** 		case MENU_SELECTED:
 428:.\src/grouped.c **** 			//estado algo seleccionado espero update
 429:.\src/grouped.c **** 			resp_down = FuncShowBlink ((const char *) "Something Select", (const char *) "Updating Values", 
 1342              		.loc 1 429 0
 1343 077c 6C46     		mov	r4, sp	@ tmp671,
 1344 077e 1B34     		add	r4, r4, #27	@ tmp671,
 1345 0780 614A     		ldr	r2, .L109+16	@ tmp672,
 1346 0782 624B     		ldr	r3, .L109+20	@ tmp673,
 1347 0784 101C     		mov	r0, r2	@, tmp672
 1348 0786 191C     		mov	r1, r3	@, tmp673
 1349 0788 0122     		mov	r2, #1	@,
 1350 078a 0223     		mov	r3, #2	@,
 1351 078c FFF7FEFF 		bl	FuncShowBlink	@
 1352 0790 031C     		mov	r3, r0	@ tmp674,
 1353 0792 2370     		strb	r3, [r4]	@ tmp676, resp_down
 430:.\src/grouped.c **** 
 431:.\src/grouped.c **** 			//if ((resp_down == RESP_FINISH) && (CheckS1() == S_NO))
 432:.\src/grouped.c **** 			if (resp_down == RESP_FINISH)
 1354              		.loc 1 432 0
 1355 0794 6B46     		mov	r3, sp	@ tmp677,
 1356 0796 1B33     		add	r3, r3, #27	@ tmp677,
 1357 0798 1B78     		ldrb	r3, [r3]	@ tmp678, resp_down
 1358 079a 0A2B     		cmp	r3, #10	@ tmp678,
 1359 079c 00D0     		beq	.LCB1055	@
 1360 079e 88E0     		b	.L102	@long jump	@
 1361              	.LCB1055:
 433:.\src/grouped.c **** 			{
 434:.\src/grouped.c **** 				grouped_state = GROUPED_UPDATE;
 1362              		.loc 1 434 0
ARM GAS  C:\Users\Mariano\AppData\Local\Temp\ccqsEEdp.s 			page 34


 1363 07a0 5B4B     		ldr	r3, .L109+24	@ tmp679,
 1364 07a2 1422     		mov	r2, #20	@ tmp680,
 1365 07a4 1A70     		strb	r2, [r3]	@ tmp681, grouped_state
 435:.\src/grouped.c **** 				grouped_selections = MENU_ON;
 1366              		.loc 1 435 0
 1367 07a6 544B     		ldr	r3, .L109	@ tmp682,
 1368 07a8 0022     		mov	r2, #0	@ tmp683,
 1369 07aa 1A70     		strb	r2, [r3]	@ tmp684, grouped_selections
 436:.\src/grouped.c **** 			}
 437:.\src/grouped.c **** 			break;
 1370              		.loc 1 437 0
 1371 07ac 81E0     		b	.L102	@
 1372              	.L68:
 438:.\src/grouped.c **** 
 439:.\src/grouped.c **** 		case MENU_OFF:
 440:.\src/grouped.c **** 			//estado menu apagado
 441:.\src/grouped.c **** 			if ((CheckS1() > S_NO) || (CheckS2() > S_NO))
 1373              		.loc 1 441 0
 1374 07ae FFF7FEFF 		bl	CheckS1	@
 1375 07b2 031C     		mov	r3, r0	@ tmp685,
 1376 07b4 002B     		cmp	r3, #0	@ D.6349,
 1377 07b6 05D1     		bne	.L76	@,
 1378              		.loc 1 441 0 is_stmt 0 discriminator 1
 1379 07b8 FFF7FEFF 		bl	CheckS2	@
 1380 07bc 031C     		mov	r3, r0	@ tmp687,
 1381 07be 002B     		cmp	r3, #0	@ D.6351,
 1382 07c0 00D1     		bne	.LCB1073	@
 1383 07c2 78E0     		b	.L103	@long jump	@
 1384              	.LCB1073:
 1385              	.L76:
 442:.\src/grouped.c **** 			{
 443:.\src/grouped.c **** 				grouped_enable_menu_timer = TT_MENU_TIMEOUT;			//vuelvo a mostrar
 1386              		.loc 1 443 0 is_stmt 1
 1387 07c4 4D4B     		ldr	r3, .L109+4	@ tmp689,
 1388 07c6 4E4A     		ldr	r2, .L109+8	@ tmp690,
 1389 07c8 1A80     		strh	r2, [r3]	@ tmp691, standalone_enable_menu_timer
 444:.\src/grouped.c **** 				LCD_1ER_RENGLON;
 1390              		.loc 1 444 0
 1391 07ca 0020     		mov	r0, #0	@,
 1392 07cc FFF7FEFF 		bl	Lcd_SetDDRAM	@
 445:.\src/grouped.c **** 				LCDTransmitStr((const char *) "wait to free    ");
 1393              		.loc 1 445 0
 1394 07d0 504B     		ldr	r3, .L109+28	@ tmp692,
 1395 07d2 181C     		mov	r0, r3	@, tmp692
 1396 07d4 FFF7FEFF 		bl	LCDTransmitStr	@
 446:.\src/grouped.c **** 
 447:.\src/grouped.c **** 				grouped_selections++;
 1397              		.loc 1 447 0
 1398 07d8 474B     		ldr	r3, .L109	@ tmp693,
 1399 07da 1B78     		ldrb	r3, [r3]	@ grouped_selections.110, grouped_selections
 1400 07dc 0133     		add	r3, r3, #1	@ tmp694,
 1401 07de DAB2     		uxtb	r2, r3	@ grouped_selections.111, tmp694
 1402 07e0 454B     		ldr	r3, .L109	@ tmp695,
 1403 07e2 1A70     		strb	r2, [r3]	@ tmp696, grouped_selections
 448:.\src/grouped.c **** 			}
 449:.\src/grouped.c **** 			break;
 1404              		.loc 1 449 0
ARM GAS  C:\Users\Mariano\AppData\Local\Temp\ccqsEEdp.s 			page 35


 1405 07e4 67E0     		b	.L103	@
 1406              	.L69:
 450:.\src/grouped.c **** 
 451:.\src/grouped.c **** 		case MENU_WAIT_FREE:
 452:.\src/grouped.c **** 			if ((CheckS1() == S_NO) && (CheckS2() == S_NO))
 1407              		.loc 1 452 0
 1408 07e6 FFF7FEFF 		bl	CheckS1	@
 1409 07ea 031C     		mov	r3, r0	@ tmp697,
 1410 07ec 002B     		cmp	r3, #0	@ D.6354,
 1411 07ee 00D0     		beq	.LCB1096	@
 1412 07f0 63E0     		b	.L104	@long jump	@
 1413              	.LCB1096:
 1414              		.loc 1 452 0 is_stmt 0 discriminator 1
 1415 07f2 FFF7FEFF 		bl	CheckS2	@
 1416 07f6 031C     		mov	r3, r0	@ tmp699,
 1417 07f8 002B     		cmp	r3, #0	@ D.6357,
 1418 07fa 5ED1     		bne	.L104	@,
 453:.\src/grouped.c **** 			{
 454:.\src/grouped.c **** 				grouped_selections = MENU_ON;
 1419              		.loc 1 454 0 is_stmt 1
 1420 07fc 3E4B     		ldr	r3, .L109	@ tmp701,
 1421 07fe 0022     		mov	r2, #0	@ tmp702,
 1422 0800 1A70     		strb	r2, [r3]	@ tmp703, grouped_selections
 455:.\src/grouped.c **** 				//voy a activar el Menu
 456:.\src/grouped.c **** 				//me fijo en ue parte del Menu estaba
 457:.\src/grouped.c **** 				//TODO ES UNA CHANCHADA, PERO BUENO...
 458:.\src/grouped.c **** 				if (grouped_menu_state <= GROUPED_MENU_SLAVE_ENABLE)
 1423              		.loc 1 458 0
 1424 0802 454B     		ldr	r3, .L109+32	@ tmp704,
 1425 0804 1B78     		ldrb	r3, [r3]	@ grouped_menu_state.112, grouped_menu_state
 1426 0806 082B     		cmp	r3, #8	@ grouped_menu_state.112,
 1427 0808 07D8     		bhi	.L79	@,
 459:.\src/grouped.c **** 				{
 460:.\src/grouped.c **** 					//salgo directo
 461:.\src/grouped.c **** 					LCD_2DO_RENGLON;
 1428              		.loc 1 461 0
 1429 080a 4020     		mov	r0, #64	@,
 1430 080c FFF7FEFF 		bl	Lcd_SetDDRAM	@
 462:.\src/grouped.c **** 					LCDTransmitStr((const char *) "Cont.     Select");
 1431              		.loc 1 462 0
 1432 0810 424B     		ldr	r3, .L109+36	@ tmp705,
 1433 0812 181C     		mov	r0, r3	@, tmp705
 1434 0814 FFF7FEFF 		bl	LCDTransmitStr	@
 463:.\src/grouped.c **** 				}
 464:.\src/grouped.c **** 				else
 465:.\src/grouped.c **** 				{
 466:.\src/grouped.c **** 					if (grouped_menu_state <= GROUPED_MENU_MOV_SENS_SELECTED_2)
 467:.\src/grouped.c **** 					{
 468:.\src/grouped.c **** 						grouped_menu_state = GROUPED_MENU_MOV_SENS;
 469:.\src/grouped.c **** 					}
 470:.\src/grouped.c **** 					else if (grouped_menu_state <= GROUPED_MENU_LDR_SELECTED_5)
 471:.\src/grouped.c **** 					{
 472:.\src/grouped.c **** 						grouped_menu_state = GROUPED_MENU_LDR;
 473:.\src/grouped.c **** 					}
 474:.\src/grouped.c **** 					else if (grouped_menu_state <= GROUPED_MENU_MAX_DIMMING_SELECTED_1)
 475:.\src/grouped.c **** 					{
 476:.\src/grouped.c **** 						grouped_menu_state = GROUPED_MENU_MAX_DIMMING;
ARM GAS  C:\Users\Mariano\AppData\Local\Temp\ccqsEEdp.s 			page 36


 477:.\src/grouped.c **** 					}
 478:.\src/grouped.c **** 					else if (grouped_menu_state <= GROUPED_MENU_MIN_DIMMING_SELECTED_1)
 479:.\src/grouped.c **** 					{
 480:.\src/grouped.c **** 						grouped_menu_state = GROUPED_MENU_MIN_DIMMING;
 481:.\src/grouped.c **** 					}
 482:.\src/grouped.c **** 					else if (grouped_menu_state <= GROUPED_MENU_RAMP_ON_START_SELECTED_1)
 483:.\src/grouped.c **** 					{
 484:.\src/grouped.c **** 						grouped_menu_state =GROUPED_MENU_RAMP_ON_START;
 485:.\src/grouped.c **** 					}
 486:.\src/grouped.c **** 					else if (grouped_menu_state <= GROUPED_MENU_RAMP_ON_DIMMING_SELECTED_1)
 487:.\src/grouped.c **** 					{
 488:.\src/grouped.c **** 						grouped_menu_state = GROUPED_MENU_RAMP_ON_DIMMING;
 489:.\src/grouped.c **** 					}
 490:.\src/grouped.c **** 					else if (grouped_menu_state <= GROUPED_MENU_MASTER_ENABLE_SELECTED_2)
 491:.\src/grouped.c **** 					{
 492:.\src/grouped.c **** 						grouped_menu_state = GROUPED_MENU_MASTER_ENABLE;
 493:.\src/grouped.c **** 					}
 494:.\src/grouped.c **** 					else if (grouped_menu_state <= GROUPED_MENU_SLAVE_ENABLE_SELECTED_3)
 495:.\src/grouped.c **** 					{
 496:.\src/grouped.c **** 						grouped_menu_state = GROUPED_MENU_SLAVE_ENABLE;
 497:.\src/grouped.c **** 					}
 498:.\src/grouped.c **** 					FuncOptionsReset ();
 499:.\src/grouped.c **** 					FuncShowSelectv2Reset ();
 500:.\src/grouped.c **** 					FuncChangeReset ();
 501:.\src/grouped.c **** 				}
 502:.\src/grouped.c **** 			}
 503:.\src/grouped.c **** 			break;
 1435              		.loc 1 503 0
 1436 0818 4FE0     		b	.L104	@
 1437              	.L79:
 466:.\src/grouped.c **** 					if (grouped_menu_state <= GROUPED_MENU_MOV_SENS_SELECTED_2)
 1438              		.loc 1 466 0
 1439 081a 3F4B     		ldr	r3, .L109+32	@ tmp706,
 1440 081c 1B78     		ldrb	r3, [r3]	@ grouped_menu_state.113, grouped_menu_state
 1441 081e 0C2B     		cmp	r3, #12	@ grouped_menu_state.113,
 1442 0820 03D8     		bhi	.L80	@,
 468:.\src/grouped.c **** 						grouped_menu_state = GROUPED_MENU_MOV_SENS;
 1443              		.loc 1 468 0
 1444 0822 3D4B     		ldr	r3, .L109+32	@ tmp707,
 1445 0824 0122     		mov	r2, #1	@ tmp708,
 1446 0826 1A70     		strb	r2, [r3]	@ tmp709, grouped_menu_state
 1447 0828 36E0     		b	.L81	@
 1448              	.L80:
 470:.\src/grouped.c **** 					else if (grouped_menu_state <= GROUPED_MENU_LDR_SELECTED_5)
 1449              		.loc 1 470 0
 1450 082a 3B4B     		ldr	r3, .L109+32	@ tmp710,
 1451 082c 1B78     		ldrb	r3, [r3]	@ grouped_menu_state.114, grouped_menu_state
 1452 082e 122B     		cmp	r3, #18	@ grouped_menu_state.114,
 1453 0830 03D8     		bhi	.L82	@,
 472:.\src/grouped.c **** 						grouped_menu_state = GROUPED_MENU_LDR;
 1454              		.loc 1 472 0
 1455 0832 394B     		ldr	r3, .L109+32	@ tmp711,
 1456 0834 0222     		mov	r2, #2	@ tmp712,
 1457 0836 1A70     		strb	r2, [r3]	@ tmp713, grouped_menu_state
 1458 0838 2EE0     		b	.L81	@
 1459              	.L82:
 474:.\src/grouped.c **** 					else if (grouped_menu_state <= GROUPED_MENU_MAX_DIMMING_SELECTED_1)
ARM GAS  C:\Users\Mariano\AppData\Local\Temp\ccqsEEdp.s 			page 37


 1460              		.loc 1 474 0
 1461 083a 374B     		ldr	r3, .L109+32	@ tmp714,
 1462 083c 1B78     		ldrb	r3, [r3]	@ grouped_menu_state.115, grouped_menu_state
 1463 083e 142B     		cmp	r3, #20	@ grouped_menu_state.115,
 1464 0840 03D8     		bhi	.L83	@,
 476:.\src/grouped.c **** 						grouped_menu_state = GROUPED_MENU_MAX_DIMMING;
 1465              		.loc 1 476 0
 1466 0842 354B     		ldr	r3, .L109+32	@ tmp715,
 1467 0844 0322     		mov	r2, #3	@ tmp716,
 1468 0846 1A70     		strb	r2, [r3]	@ tmp717, grouped_menu_state
 1469 0848 26E0     		b	.L81	@
 1470              	.L83:
 478:.\src/grouped.c **** 					else if (grouped_menu_state <= GROUPED_MENU_MIN_DIMMING_SELECTED_1)
 1471              		.loc 1 478 0
 1472 084a 334B     		ldr	r3, .L109+32	@ tmp718,
 1473 084c 1B78     		ldrb	r3, [r3]	@ grouped_menu_state.116, grouped_menu_state
 1474 084e 162B     		cmp	r3, #22	@ grouped_menu_state.116,
 1475 0850 03D8     		bhi	.L84	@,
 480:.\src/grouped.c **** 						grouped_menu_state = GROUPED_MENU_MIN_DIMMING;
 1476              		.loc 1 480 0
 1477 0852 314B     		ldr	r3, .L109+32	@ tmp719,
 1478 0854 0422     		mov	r2, #4	@ tmp720,
 1479 0856 1A70     		strb	r2, [r3]	@ tmp721, grouped_menu_state
 1480 0858 1EE0     		b	.L81	@
 1481              	.L84:
 482:.\src/grouped.c **** 					else if (grouped_menu_state <= GROUPED_MENU_RAMP_ON_START_SELECTED_1)
 1482              		.loc 1 482 0
 1483 085a 2F4B     		ldr	r3, .L109+32	@ tmp722,
 1484 085c 1B78     		ldrb	r3, [r3]	@ grouped_menu_state.117, grouped_menu_state
 1485 085e 182B     		cmp	r3, #24	@ grouped_menu_state.117,
 1486 0860 03D8     		bhi	.L85	@,
 484:.\src/grouped.c **** 						grouped_menu_state =GROUPED_MENU_RAMP_ON_START;
 1487              		.loc 1 484 0
 1488 0862 2D4B     		ldr	r3, .L109+32	@ tmp723,
 1489 0864 0522     		mov	r2, #5	@ tmp724,
 1490 0866 1A70     		strb	r2, [r3]	@ tmp725, grouped_menu_state
 1491 0868 16E0     		b	.L81	@
 1492              	.L85:
 486:.\src/grouped.c **** 					else if (grouped_menu_state <= GROUPED_MENU_RAMP_ON_DIMMING_SELECTED_1)
 1493              		.loc 1 486 0
 1494 086a 2B4B     		ldr	r3, .L109+32	@ tmp726,
 1495 086c 1B78     		ldrb	r3, [r3]	@ grouped_menu_state.118, grouped_menu_state
 1496 086e 1A2B     		cmp	r3, #26	@ grouped_menu_state.118,
 1497 0870 03D8     		bhi	.L86	@,
 488:.\src/grouped.c **** 						grouped_menu_state = GROUPED_MENU_RAMP_ON_DIMMING;
 1498              		.loc 1 488 0
 1499 0872 294B     		ldr	r3, .L109+32	@ tmp727,
 1500 0874 0622     		mov	r2, #6	@ tmp728,
 1501 0876 1A70     		strb	r2, [r3]	@ tmp729, grouped_menu_state
 1502 0878 0EE0     		b	.L81	@
 1503              	.L86:
 490:.\src/grouped.c **** 					else if (grouped_menu_state <= GROUPED_MENU_MASTER_ENABLE_SELECTED_2)
 1504              		.loc 1 490 0
 1505 087a 274B     		ldr	r3, .L109+32	@ tmp730,
 1506 087c 1B78     		ldrb	r3, [r3]	@ grouped_menu_state.119, grouped_menu_state
 1507 087e 1D2B     		cmp	r3, #29	@ grouped_menu_state.119,
 1508 0880 03D8     		bhi	.L87	@,
ARM GAS  C:\Users\Mariano\AppData\Local\Temp\ccqsEEdp.s 			page 38


 492:.\src/grouped.c **** 						grouped_menu_state = GROUPED_MENU_MASTER_ENABLE;
 1509              		.loc 1 492 0
 1510 0882 254B     		ldr	r3, .L109+32	@ tmp731,
 1511 0884 0722     		mov	r2, #7	@ tmp732,
 1512 0886 1A70     		strb	r2, [r3]	@ tmp733, grouped_menu_state
 1513 0888 06E0     		b	.L81	@
 1514              	.L87:
 494:.\src/grouped.c **** 					else if (grouped_menu_state <= GROUPED_MENU_SLAVE_ENABLE_SELECTED_3)
 1515              		.loc 1 494 0
 1516 088a 234B     		ldr	r3, .L109+32	@ tmp734,
 1517 088c 1B78     		ldrb	r3, [r3]	@ grouped_menu_state.120, grouped_menu_state
 1518 088e 212B     		cmp	r3, #33	@ grouped_menu_state.120,
 1519 0890 02D8     		bhi	.L81	@,
 496:.\src/grouped.c **** 						grouped_menu_state = GROUPED_MENU_SLAVE_ENABLE;
 1520              		.loc 1 496 0
 1521 0892 214B     		ldr	r3, .L109+32	@ tmp735,
 1522 0894 0822     		mov	r2, #8	@ tmp736,
 1523 0896 1A70     		strb	r2, [r3]	@ tmp737, grouped_menu_state
 1524              	.L81:
 498:.\src/grouped.c **** 					FuncOptionsReset ();
 1525              		.loc 1 498 0
 1526 0898 FFF7FEFF 		bl	FuncOptionsReset	@
 499:.\src/grouped.c **** 					FuncShowSelectv2Reset ();
 1527              		.loc 1 499 0
 1528 089c FFF7FEFF 		bl	FuncShowSelectv2Reset	@
 500:.\src/grouped.c **** 					FuncChangeReset ();
 1529              		.loc 1 500 0
 1530 08a0 FFF7FEFF 		bl	FuncChangeReset	@
 1531              		.loc 1 503 0
 1532 08a4 09E0     		b	.L104	@
 1533              	.L65:
 504:.\src/grouped.c **** 
 505:.\src/grouped.c **** 		default:
 506:.\src/grouped.c **** 			grouped_selections = MENU_ON;
 1534              		.loc 1 506 0
 1535 08a6 144B     		ldr	r3, .L109	@ tmp738,
 1536 08a8 0022     		mov	r2, #0	@ tmp739,
 1537 08aa 1A70     		strb	r2, [r3]	@ tmp740, grouped_selections
 507:.\src/grouped.c **** 			break;
 1538              		.loc 1 507 0
 1539 08ac 06E0     		b	.L74	@
 1540              	.L101:
 425:.\src/grouped.c **** 			break;
 1541              		.loc 1 425 0
 1542 08ae C046     		mov	r8, r8
 1543 08b0 04E0     		b	.L74	@
 1544              	.L102:
 437:.\src/grouped.c **** 			break;
 1545              		.loc 1 437 0
 1546 08b2 C046     		mov	r8, r8
 1547 08b4 02E0     		b	.L74	@
 1548              	.L103:
 449:.\src/grouped.c **** 			break;
 1549              		.loc 1 449 0
 1550 08b6 C046     		mov	r8, r8
 1551 08b8 00E0     		b	.L74	@
 1552              	.L104:
ARM GAS  C:\Users\Mariano\AppData\Local\Temp\ccqsEEdp.s 			page 39


 503:.\src/grouped.c **** 			break;
 1553              		.loc 1 503 0
 1554 08ba C046     		mov	r8, r8
 1555              	.L74:
 508:.\src/grouped.c **** 	}
 509:.\src/grouped.c **** 
 510:.\src/grouped.c **** 	if (CheckS1() > S_HALF)
 1556              		.loc 1 510 0
 1557 08bc FFF7FEFF 		bl	CheckS1	@
 1558 08c0 031C     		mov	r3, r0	@ tmp741,
 1559 08c2 032B     		cmp	r3, #3	@ D.6395,
 1560 08c4 03D9     		bls	.L88	@,
 511:.\src/grouped.c **** 		resp = RESP_CHANGE_ALL_UP;
 1561              		.loc 1 511 0
 1562 08c6 6B46     		mov	r3, sp	@ tmp743,
 1563 08c8 1F33     		add	r3, r3, #31	@ tmp743,
 1564 08ca 0322     		mov	r2, #3	@ tmp744,
 1565 08cc 1A70     		strb	r2, [r3]	@ tmp745, resp
 1566              	.L88:
 512:.\src/grouped.c **** 
 513:.\src/grouped.c **** 	//si estoy en modo master y llego timeout mando un paquete
 514:.\src/grouped.c **** 	//OJO mando con la ultima info conocida
 515:.\src/grouped.c **** 	if ((GroupedStruct_local.grouped_mode == GROUPED_MODE_MASTER) && (!grouped_master_timeout_timer))
 1567              		.loc 1 515 0
 1568 08ce 144B     		ldr	r3, .L109+40	@ tmp746,
 1569 08d0 1B7B     		ldrb	r3, [r3, #12]	@ D.6398,
 1570 08d2 002B     		cmp	r3, #0	@ D.6398,
 1571 08d4 0AD1     		bne	.L89	@,
 1572              		.loc 1 515 0 is_stmt 0 discriminator 1
 1573 08d6 134B     		ldr	r3, .L109+44	@ tmp747,
 1574 08d8 1B78     		ldrb	r3, [r3]	@ tmp748, grouped_master_timeout_timer
 1575 08da DBB2     		uxtb	r3, r3	@ grouped_master_timeout_timer.121, tmp748
 1576 08dc 002B     		cmp	r3, #0	@ grouped_master_timeout_timer.121,
 1577 08de 05D1     		bne	.L89	@,
 516:.\src/grouped.c **** 	{
 517:.\src/grouped.c **** 		SendDMXPacket(PCKT_INIT);
 1578              		.loc 1 517 0 is_stmt 1
 1579 08e0 0020     		mov	r0, #0	@,
 1580 08e2 FFF7FEFF 		bl	SendDMXPacket	@
 518:.\src/grouped.c **** 		grouped_master_timeout_timer = TT_MASTER_TIMEOUT;
 1581              		.loc 1 518 0
 1582 08e6 0F4B     		ldr	r3, .L109+44	@ tmp749,
 1583 08e8 6422     		mov	r2, #100	@ tmp750,
 1584 08ea 1A70     		strb	r2, [r3]	@ tmp751, grouped_master_timeout_timer
 1585              	.L89:
 519:.\src/grouped.c **** 	}
 520:.\src/grouped.c **** 
 521:.\src/grouped.c **** 
 522:.\src/grouped.c **** 	return resp;
 1586              		.loc 1 522 0
 1587 08ec 6B46     		mov	r3, sp	@ tmp752,
 1588 08ee 1F33     		add	r3, r3, #31	@ tmp752,
 1589 08f0 1B78     		ldrb	r3, [r3]	@ D.6404, resp
 523:.\src/grouped.c **** }
 1590              		.loc 1 523 0
 1591 08f2 181C     		mov	r0, r3	@, <retval>
 1592 08f4 08B0     		add	sp, sp, #32	@,,
ARM GAS  C:\Users\Mariano\AppData\Local\Temp\ccqsEEdp.s 			page 40


 1593              		@ sp needed for prologue	@
 1594 08f6 10BD     		pop	{r4, pc}
 1595              	.L110:
 1596              		.align	2
 1597              	.L109:
 1598 08f8 00000000 		.word	grouped_selections
 1599 08fc 00000000 		.word	standalone_enable_menu_timer
 1600 0900 30750000 		.word	30000
 1601 0904 00000000 		.word	s_blank_line
 1602 0908 7C000000 		.word	.LC35
 1603 090c 90000000 		.word	.LC37
 1604 0910 00000000 		.word	grouped_state
 1605 0914 A0000000 		.word	.LC39
 1606 0918 00000000 		.word	grouped_menu_state
 1607 091c B4000000 		.word	.LC42
 1608 0920 00000000 		.word	GroupedStruct_local
 1609 0924 00000000 		.word	grouped_master_timeout_timer
 1610              		.cfi_endproc
 1611              	.LFE20:
 1612              		.size	FuncGrouped, .-FuncGrouped
 1613              		.section	.rodata
 1614 00c5 000000   		.align	2
 1615              	.LC46:
 1616 00c8 53746172 		.ascii	"Starting Grouped\000"
 1616      74696E67 
 1616      2047726F 
 1616      75706564 
 1616      00
 1617 00d9 000000   		.align	2
 1618              	.LC48:
 1619 00dc 53656C65 		.ascii	"Selections\000"
 1619      6374696F 
 1619      6E7300
 1620 00e7 00       		.align	2
 1621              	.LC50:
 1622 00e8 4D617374 		.ascii	"Master Enable   \000"
 1622      65722045 
 1622      6E61626C 
 1622      65202020 
 1622      00
 1623 00f9 000000   		.align	2
 1624              	.LC52:
 1625 00fc 536C6176 		.ascii	"Slave Enable   \000"
 1625      6520456E 
 1625      61626C65 
 1625      20202000 
 1626              		.align	2
 1627              	.LC54:
 1628 010c 4D6F7665 		.ascii	"Move Sensor Conf\000"
 1628      2053656E 
 1628      736F7220 
 1628      436F6E66 
 1628      00
 1629 011d 000000   		.align	2
 1630              	.LC56:
 1631 0120 456E6572 		.ascii	"Energy Harv Conf\000"
 1631      67792048 
ARM GAS  C:\Users\Mariano\AppData\Local\Temp\ccqsEEdp.s 			page 41


 1631      61727620 
 1631      436F6E66 
 1631      00
 1632 0131 000000   		.align	2
 1633              	.LC58:
 1634 0134 4D617820 		.ascii	"Max Dimming Conf\000"
 1634      44696D6D 
 1634      696E6720 
 1634      436F6E66 
 1634      00
 1635 0145 000000   		.align	2
 1636              	.LC60:
 1637 0148 4D696E20 		.ascii	"Min Dimming Conf\000"
 1637      44696D6D 
 1637      696E6720 
 1637      436F6E66 
 1637      00
 1638 0159 000000   		.align	2
 1639              	.LC62:
 1640 015c 52616D70 		.ascii	"Ramp ON/OFF Conf\000"
 1640      204F4E2F 
 1640      4F464620 
 1640      436F6E66 
 1640      00
 1641 016d 000000   		.align	2
 1642              	.LC64:
 1643 0170 52616D70 		.ascii	"Ramp on Dim Conf\000"
 1643      206F6E20 
 1643      44696D20 
 1643      436F6E66 
 1643      00
 1644 0181 000000   		.align	2
 1645              	.LC67:
 1646 0184 6F6E2020 		.ascii	"on   off   back \000"
 1646      206F6666 
 1646      20202062 
 1646      61636B20 
 1646      00
 1647 0195 000000   		.section	.text.MenuGrouped,"ax",%progbits
 1648              		.align	2
 1649              		.global	MenuGrouped
 1650              		.code	16
 1651              		.thumb_func
 1652              		.type	MenuGrouped, %function
 1653              	MenuGrouped:
 1654              	.LFB21:
 524:.\src/grouped.c **** 
 525:.\src/grouped.c **** 
 526:.\src/grouped.c **** unsigned char MenuGrouped(void)
 527:.\src/grouped.c **** {
 1655              		.loc 1 527 0
 1656              		.cfi_startproc
 1657 0000 10B5     		push	{r4, lr}	@
 1658              	.LCFI2:
 1659              		.cfi_def_cfa_offset 8
 1660              		.cfi_offset 4, -8
 1661              		.cfi_offset 14, -4
ARM GAS  C:\Users\Mariano\AppData\Local\Temp\ccqsEEdp.s 			page 42


 1662 0002 84B0     		sub	sp, sp, #16	@,,
 1663              	.LCFI3:
 1664              		.cfi_def_cfa_offset 24
 528:.\src/grouped.c **** 	unsigned char resp = RESP_CONTINUE;
 1665              		.loc 1 528 0
 1666 0004 6B46     		mov	r3, sp	@ tmp214,
 1667 0006 0F33     		add	r3, r3, #15	@ tmp214,
 1668 0008 0022     		mov	r2, #0	@ tmp215,
 1669 000a 1A70     		strb	r2, [r3]	@ tmp216, resp
 529:.\src/grouped.c **** 	unsigned char resp_down = RESP_CONTINUE;
 1670              		.loc 1 529 0
 1671 000c 6B46     		mov	r3, sp	@ tmp217,
 1672 000e 0E33     		add	r3, r3, #14	@ tmp217,
 1673 0010 0022     		mov	r2, #0	@ tmp218,
 1674 0012 1A70     		strb	r2, [r3]	@ tmp219, resp_down
 530:.\src/grouped.c **** 	unsigned char dummy = 0;
 1675              		.loc 1 530 0
 1676 0014 6B46     		mov	r3, sp	@ tmp220,
 1677 0016 0933     		add	r3, r3, #9	@ tmp220,
 1678 0018 0022     		mov	r2, #0	@ tmp221,
 1679 001a 1A70     		strb	r2, [r3]	@ tmp222, dummy
 531:.\src/grouped.c **** 
 532:.\src/grouped.c **** 	switch (grouped_menu_state)
 1680              		.loc 1 532 0
 1681 001c E54B     		ldr	r3, .L239	@ tmp223,
 1682 001e 1B78     		ldrb	r3, [r3]	@ grouped_menu_state.0, grouped_menu_state
 1683 0020 212B     		cmp	r3, #33	@ D.5884,
 1684 0022 01D9     		bls	.LCB1318	@
 1685 0024 00F077FD 		bl	.L112	@far jump	@
 1686              	.LCB1318:
 1687 0028 9A00     		lsl	r2, r3, #2	@ tmp224, D.5884,
 1688 002a E34B     		ldr	r3, .L239+4	@ tmp226,
 1689 002c D318     		add	r3, r2, r3	@ tmp225, tmp224, tmp226
 1690 002e 1B68     		ldr	r3, [r3]	@ tmp227,
 1691 0030 9F46     		mov	pc, r3	@ tmp227
 1692              		.section	.rodata.MenuGrouped,"a",%progbits
 1693              		.align	2
 1694              	.L146:
 1695 0000 32000000 		.word	.L113
 1696 0004 F6000000 		.word	.L114
 1697 0008 40010000 		.word	.L115
 1698 000c 8A010000 		.word	.L116
 1699 0010 D4010000 		.word	.L117
 1700 0014 1E020000 		.word	.L118
 1701 0018 68020000 		.word	.L119
 1702 001c 62000000 		.word	.L120
 1703 0020 AC000000 		.word	.L121
 1704 0024 160B0000 		.word	.L112
 1705 0028 70050000 		.word	.L122
 1706 002c B2050000 		.word	.L123
 1707 0030 5C060000 		.word	.L124
 1708 0034 76060000 		.word	.L125
 1709 0038 B8060000 		.word	.L126
 1710 003c 76070000 		.word	.L127
 1711 0040 B4070000 		.word	.L128
 1712 0044 F2070000 		.word	.L129
 1713 0048 0C080000 		.word	.L130
ARM GAS  C:\Users\Mariano\AppData\Local\Temp\ccqsEEdp.s 			page 43


 1714 004c 30080000 		.word	.L131
 1715 0050 A6080000 		.word	.L132
 1716 0054 10090000 		.word	.L133
 1717 0058 8E090000 		.word	.L134
 1718 005c F8090000 		.word	.L135
 1719 0060 640A0000 		.word	.L136
 1720 0064 880A0000 		.word	.L137
 1721 0068 F40A0000 		.word	.L138
 1722 006c B2020000 		.word	.L139
 1723 0070 F6020000 		.word	.L140
 1724 0074 F8030000 		.word	.L141
 1725 0078 14040000 		.word	.L142
 1726 007c 58040000 		.word	.L143
 1727 0080 10050000 		.word	.L144
 1728 0084 2A050000 		.word	.L145
 1729              		.section	.text.MenuGrouped
 1730              	.L113:
 533:.\src/grouped.c **** 	{
 534:.\src/grouped.c **** 		case GROUPED_MENU_INIT:
 535:.\src/grouped.c **** 			//empiezo con las selecciones
 536:.\src/grouped.c **** 			resp_down = FuncShowBlink ((const char *) "Starting Grouped", (const char *) "Selections", 1, BL
 1731              		.loc 1 536 0
 1732 0032 6C46     		mov	r4, sp	@ tmp228,
 1733 0034 0E34     		add	r4, r4, #14	@ tmp228,
 1734 0036 E14A     		ldr	r2, .L239+8	@ tmp229,
 1735 0038 E14B     		ldr	r3, .L239+12	@ tmp230,
 1736 003a 101C     		mov	r0, r2	@, tmp229
 1737 003c 191C     		mov	r1, r3	@, tmp230
 1738 003e 0122     		mov	r2, #1	@,
 1739 0040 0223     		mov	r3, #2	@,
 1740 0042 FFF7FEFF 		bl	FuncShowBlink	@
 1741 0046 031C     		mov	r3, r0	@ tmp231,
 1742 0048 2370     		strb	r3, [r4]	@ tmp233, resp_down
 537:.\src/grouped.c **** 
 538:.\src/grouped.c **** 			if (resp_down == RESP_FINISH)
 1743              		.loc 1 538 0
 1744 004a 6B46     		mov	r3, sp	@ tmp234,
 1745 004c 0E33     		add	r3, r3, #14	@ tmp234,
 1746 004e 1B78     		ldrb	r3, [r3]	@ tmp235, resp_down
 1747 0050 0A2B     		cmp	r3, #10	@ tmp235,
 1748 0052 01D0     		beq	.LCB1345	@
 1749 0054 00F063FD 		bl	.L217	@far jump	@
 1750              	.LCB1345:
 539:.\src/grouped.c **** 				grouped_menu_state = GROUPED_MENU_MASTER_ENABLE;
 1751              		.loc 1 539 0
 1752 0058 D64B     		ldr	r3, .L239	@ tmp236,
 1753 005a 0722     		mov	r2, #7	@ tmp237,
 1754 005c 1A70     		strb	r2, [r3]	@ tmp238, grouped_menu_state
 540:.\src/grouped.c **** 			break;
 1755              		.loc 1 540 0
 1756 005e 00F05EFD 		bl	.L217	@ far jump	@
 1757              	.L120:
 541:.\src/grouped.c **** 
 542:.\src/grouped.c **** 		case GROUPED_MENU_MASTER_ENABLE:
 543:.\src/grouped.c **** 			resp_down = FuncShowSelectv2 ((const char * ) "Master Enable   ");
 1758              		.loc 1 543 0
 1759 0062 6C46     		mov	r4, sp	@ tmp239,
ARM GAS  C:\Users\Mariano\AppData\Local\Temp\ccqsEEdp.s 			page 44


 1760 0064 0E34     		add	r4, r4, #14	@ tmp239,
 1761 0066 D74B     		ldr	r3, .L239+16	@ tmp240,
 1762 0068 181C     		mov	r0, r3	@, tmp240
 1763 006a FFF7FEFF 		bl	FuncShowSelectv2	@
 1764 006e 031C     		mov	r3, r0	@ tmp241,
 1765 0070 2370     		strb	r3, [r4]	@ tmp243, resp_down
 544:.\src/grouped.c **** 
 545:.\src/grouped.c **** 			if (resp_down == RESP_CHANGE)	//cambio de menu
 1766              		.loc 1 545 0
 1767 0072 6B46     		mov	r3, sp	@ tmp244,
 1768 0074 0E33     		add	r3, r3, #14	@ tmp244,
 1769 0076 1B78     		ldrb	r3, [r3]	@ tmp245, resp_down
 1770 0078 022B     		cmp	r3, #2	@ tmp245,
 1771 007a 02D1     		bne	.L149	@,
 546:.\src/grouped.c **** 				grouped_menu_state = GROUPED_MENU_SLAVE_ENABLE;
 1772              		.loc 1 546 0
 1773 007c CD4B     		ldr	r3, .L239	@ tmp246,
 1774 007e 0822     		mov	r2, #8	@ tmp247,
 1775 0080 1A70     		strb	r2, [r3]	@ tmp248, grouped_menu_state
 1776              	.L149:
 547:.\src/grouped.c **** 
 548:.\src/grouped.c **** 			if (resp_down == RESP_SELECTED)	//se eligio el menu
 1777              		.loc 1 548 0
 1778 0082 6B46     		mov	r3, sp	@ tmp249,
 1779 0084 0E33     		add	r3, r3, #14	@ tmp249,
 1780 0086 1B78     		ldrb	r3, [r3]	@ tmp250, resp_down
 1781 0088 012B     		cmp	r3, #1	@ tmp250,
 1782 008a 02D1     		bne	.L150	@,
 549:.\src/grouped.c **** 				grouped_menu_state = GROUPED_MENU_MASTER_ENABLE_SELECTED;
 1783              		.loc 1 549 0
 1784 008c C94B     		ldr	r3, .L239	@ tmp251,
 1785 008e 1B22     		mov	r2, #27	@ tmp252,
 1786 0090 1A70     		strb	r2, [r3]	@ tmp253, grouped_menu_state
 1787              	.L150:
 550:.\src/grouped.c **** 
 551:.\src/grouped.c **** 			if (resp_down != RESP_CONTINUE)
 1788              		.loc 1 551 0
 1789 0092 6B46     		mov	r3, sp	@ tmp254,
 1790 0094 0E33     		add	r3, r3, #14	@ tmp254,
 1791 0096 1B78     		ldrb	r3, [r3]	@ tmp255, resp_down
 1792 0098 002B     		cmp	r3, #0	@ tmp255,
 1793 009a 01D1     		bne	.LCB1384	@
 1794 009c 00F041FD 		bl	.L218	@far jump	@
 1795              	.LCB1384:
 552:.\src/grouped.c **** 				resp = RESP_WORKING;
 1796              		.loc 1 552 0
 1797 00a0 6B46     		mov	r3, sp	@ tmp256,
 1798 00a2 0F33     		add	r3, r3, #15	@ tmp256,
 1799 00a4 0422     		mov	r2, #4	@ tmp257,
 1800 00a6 1A70     		strb	r2, [r3]	@ tmp258, resp
 553:.\src/grouped.c **** 
 554:.\src/grouped.c **** 			break;
 1801              		.loc 1 554 0
 1802 00a8 00F03BFD 		bl	.L218	@ far jump	@
 1803              	.L121:
 555:.\src/grouped.c **** 
 556:.\src/grouped.c **** 		case GROUPED_MENU_SLAVE_ENABLE:
ARM GAS  C:\Users\Mariano\AppData\Local\Temp\ccqsEEdp.s 			page 45


 557:.\src/grouped.c **** 			resp_down = FuncShowSelectv2 ((const char * ) "Slave Enable   ");
 1804              		.loc 1 557 0
 1805 00ac 6C46     		mov	r4, sp	@ tmp259,
 1806 00ae 0E34     		add	r4, r4, #14	@ tmp259,
 1807 00b0 C54B     		ldr	r3, .L239+20	@ tmp260,
 1808 00b2 181C     		mov	r0, r3	@, tmp260
 1809 00b4 FFF7FEFF 		bl	FuncShowSelectv2	@
 1810 00b8 031C     		mov	r3, r0	@ tmp261,
 1811 00ba 2370     		strb	r3, [r4]	@ tmp263, resp_down
 558:.\src/grouped.c **** 
 559:.\src/grouped.c **** 			if (resp_down == RESP_CHANGE)	//cambio de menu
 1812              		.loc 1 559 0
 1813 00bc 6B46     		mov	r3, sp	@ tmp264,
 1814 00be 0E33     		add	r3, r3, #14	@ tmp264,
 1815 00c0 1B78     		ldrb	r3, [r3]	@ tmp265, resp_down
 1816 00c2 022B     		cmp	r3, #2	@ tmp265,
 1817 00c4 02D1     		bne	.L152	@,
 560:.\src/grouped.c **** 				grouped_menu_state = GROUPED_MENU_MASTER_ENABLE;
 1818              		.loc 1 560 0
 1819 00c6 BB4B     		ldr	r3, .L239	@ tmp266,
 1820 00c8 0722     		mov	r2, #7	@ tmp267,
 1821 00ca 1A70     		strb	r2, [r3]	@ tmp268, grouped_menu_state
 1822              	.L152:
 561:.\src/grouped.c **** 
 562:.\src/grouped.c **** 			if (resp_down == RESP_SELECTED)	//se eligio el menu
 1823              		.loc 1 562 0
 1824 00cc 6B46     		mov	r3, sp	@ tmp269,
 1825 00ce 0E33     		add	r3, r3, #14	@ tmp269,
 1826 00d0 1B78     		ldrb	r3, [r3]	@ tmp270, resp_down
 1827 00d2 012B     		cmp	r3, #1	@ tmp270,
 1828 00d4 02D1     		bne	.L153	@,
 563:.\src/grouped.c **** 				grouped_menu_state = GROUPED_MENU_SLAVE_ENABLE_SELECTED;
 1829              		.loc 1 563 0
 1830 00d6 B74B     		ldr	r3, .L239	@ tmp271,
 1831 00d8 1E22     		mov	r2, #30	@ tmp272,
 1832 00da 1A70     		strb	r2, [r3]	@ tmp273, grouped_menu_state
 1833              	.L153:
 564:.\src/grouped.c **** 
 565:.\src/grouped.c **** 			if (resp_down != RESP_CONTINUE)
 1834              		.loc 1 565 0
 1835 00dc 6B46     		mov	r3, sp	@ tmp274,
 1836 00de 0E33     		add	r3, r3, #14	@ tmp274,
 1837 00e0 1B78     		ldrb	r3, [r3]	@ tmp275, resp_down
 1838 00e2 002B     		cmp	r3, #0	@ tmp275,
 1839 00e4 01D1     		bne	.LCB1424	@
 1840 00e6 00F01EFD 		bl	.L219	@far jump	@
 1841              	.LCB1424:
 566:.\src/grouped.c **** 				resp = RESP_WORKING;
 1842              		.loc 1 566 0
 1843 00ea 6B46     		mov	r3, sp	@ tmp276,
 1844 00ec 0F33     		add	r3, r3, #15	@ tmp276,
 1845 00ee 0422     		mov	r2, #4	@ tmp277,
 1846 00f0 1A70     		strb	r2, [r3]	@ tmp278, resp
 567:.\src/grouped.c **** 
 568:.\src/grouped.c **** 			break;
 1847              		.loc 1 568 0
 1848 00f2 00F018FD 		bl	.L219	@ far jump	@
ARM GAS  C:\Users\Mariano\AppData\Local\Temp\ccqsEEdp.s 			page 46


 1849              	.L114:
 569:.\src/grouped.c **** 
 570:.\src/grouped.c **** 		case GROUPED_MENU_MOV_SENS:
 571:.\src/grouped.c **** 			resp_down = FuncShowSelectv2 ((const char * ) "Move Sensor Conf");
 1850              		.loc 1 571 0
 1851 00f6 6C46     		mov	r4, sp	@ tmp279,
 1852 00f8 0E34     		add	r4, r4, #14	@ tmp279,
 1853 00fa B44B     		ldr	r3, .L239+24	@ tmp280,
 1854 00fc 181C     		mov	r0, r3	@, tmp280
 1855 00fe FFF7FEFF 		bl	FuncShowSelectv2	@
 1856 0102 031C     		mov	r3, r0	@ tmp281,
 1857 0104 2370     		strb	r3, [r4]	@ tmp283, resp_down
 572:.\src/grouped.c **** 
 573:.\src/grouped.c **** 			if (resp_down == RESP_CHANGE)	//cambio de menu
 1858              		.loc 1 573 0
 1859 0106 6B46     		mov	r3, sp	@ tmp284,
 1860 0108 0E33     		add	r3, r3, #14	@ tmp284,
 1861 010a 1B78     		ldrb	r3, [r3]	@ tmp285, resp_down
 1862 010c 022B     		cmp	r3, #2	@ tmp285,
 1863 010e 02D1     		bne	.L155	@,
 574:.\src/grouped.c **** 				grouped_menu_state = GROUPED_MENU_LDR;
 1864              		.loc 1 574 0
 1865 0110 A84B     		ldr	r3, .L239	@ tmp286,
 1866 0112 0222     		mov	r2, #2	@ tmp287,
 1867 0114 1A70     		strb	r2, [r3]	@ tmp288, grouped_menu_state
 1868              	.L155:
 575:.\src/grouped.c **** 
 576:.\src/grouped.c **** 			if (resp_down == RESP_SELECTED)	//se eligio el menu
 1869              		.loc 1 576 0
 1870 0116 6B46     		mov	r3, sp	@ tmp289,
 1871 0118 0E33     		add	r3, r3, #14	@ tmp289,
 1872 011a 1B78     		ldrb	r3, [r3]	@ tmp290, resp_down
 1873 011c 012B     		cmp	r3, #1	@ tmp290,
 1874 011e 02D1     		bne	.L156	@,
 577:.\src/grouped.c **** 				grouped_menu_state = GROUPED_MENU_MOV_SENS_SELECTED;
 1875              		.loc 1 577 0
 1876 0120 A44B     		ldr	r3, .L239	@ tmp291,
 1877 0122 0A22     		mov	r2, #10	@ tmp292,
 1878 0124 1A70     		strb	r2, [r3]	@ tmp293, grouped_menu_state
 1879              	.L156:
 578:.\src/grouped.c **** 
 579:.\src/grouped.c **** 			if (resp_down != RESP_CONTINUE)
 1880              		.loc 1 579 0
 1881 0126 6B46     		mov	r3, sp	@ tmp294,
 1882 0128 0E33     		add	r3, r3, #14	@ tmp294,
 1883 012a 1B78     		ldrb	r3, [r3]	@ tmp295, resp_down
 1884 012c 002B     		cmp	r3, #0	@ tmp295,
 1885 012e 01D1     		bne	.LCB1464	@
 1886 0130 00F0FBFC 		bl	.L220	@far jump	@
 1887              	.LCB1464:
 580:.\src/grouped.c **** 				resp = RESP_WORKING;
 1888              		.loc 1 580 0
 1889 0134 6B46     		mov	r3, sp	@ tmp296,
 1890 0136 0F33     		add	r3, r3, #15	@ tmp296,
 1891 0138 0422     		mov	r2, #4	@ tmp297,
 1892 013a 1A70     		strb	r2, [r3]	@ tmp298, resp
 581:.\src/grouped.c **** 
ARM GAS  C:\Users\Mariano\AppData\Local\Temp\ccqsEEdp.s 			page 47


 582:.\src/grouped.c **** 			break;
 1893              		.loc 1 582 0
 1894 013c 00F0F5FC 		bl	.L220	@ far jump	@
 1895              	.L115:
 583:.\src/grouped.c **** 
 584:.\src/grouped.c **** 		case GROUPED_MENU_LDR:
 585:.\src/grouped.c **** 			resp_down = FuncShowSelectv2 ((const char * ) "Energy Harv Conf");
 1896              		.loc 1 585 0
 1897 0140 6C46     		mov	r4, sp	@ tmp299,
 1898 0142 0E34     		add	r4, r4, #14	@ tmp299,
 1899 0144 A24B     		ldr	r3, .L239+28	@ tmp300,
 1900 0146 181C     		mov	r0, r3	@, tmp300
 1901 0148 FFF7FEFF 		bl	FuncShowSelectv2	@
 1902 014c 031C     		mov	r3, r0	@ tmp301,
 1903 014e 2370     		strb	r3, [r4]	@ tmp303, resp_down
 586:.\src/grouped.c **** 
 587:.\src/grouped.c **** 			if (resp_down == RESP_CHANGE)	//cambio de menu
 1904              		.loc 1 587 0
 1905 0150 6B46     		mov	r3, sp	@ tmp304,
 1906 0152 0E33     		add	r3, r3, #14	@ tmp304,
 1907 0154 1B78     		ldrb	r3, [r3]	@ tmp305, resp_down
 1908 0156 022B     		cmp	r3, #2	@ tmp305,
 1909 0158 02D1     		bne	.L158	@,
 588:.\src/grouped.c **** 				grouped_menu_state = GROUPED_MENU_MAX_DIMMING;
 1910              		.loc 1 588 0
 1911 015a 964B     		ldr	r3, .L239	@ tmp306,
 1912 015c 0322     		mov	r2, #3	@ tmp307,
 1913 015e 1A70     		strb	r2, [r3]	@ tmp308, grouped_menu_state
 1914              	.L158:
 589:.\src/grouped.c **** 
 590:.\src/grouped.c **** 
 591:.\src/grouped.c **** 			if (resp_down == RESP_SELECTED)	//se eligio el menu
 1915              		.loc 1 591 0
 1916 0160 6B46     		mov	r3, sp	@ tmp309,
 1917 0162 0E33     		add	r3, r3, #14	@ tmp309,
 1918 0164 1B78     		ldrb	r3, [r3]	@ tmp310, resp_down
 1919 0166 012B     		cmp	r3, #1	@ tmp310,
 1920 0168 02D1     		bne	.L159	@,
 592:.\src/grouped.c **** 				grouped_menu_state = GROUPED_MENU_LDR_SELECTED;
 1921              		.loc 1 592 0
 1922 016a 924B     		ldr	r3, .L239	@ tmp311,
 1923 016c 0D22     		mov	r2, #13	@ tmp312,
 1924 016e 1A70     		strb	r2, [r3]	@ tmp313, grouped_menu_state
 1925              	.L159:
 593:.\src/grouped.c **** 
 594:.\src/grouped.c **** 			if (resp_down != RESP_CONTINUE)
 1926              		.loc 1 594 0
 1927 0170 6B46     		mov	r3, sp	@ tmp314,
 1928 0172 0E33     		add	r3, r3, #14	@ tmp314,
 1929 0174 1B78     		ldrb	r3, [r3]	@ tmp315, resp_down
 1930 0176 002B     		cmp	r3, #0	@ tmp315,
 1931 0178 01D1     		bne	.LCB1504	@
 1932 017a 00F0D8FC 		bl	.L221	@far jump	@
 1933              	.LCB1504:
 595:.\src/grouped.c **** 				resp = RESP_WORKING;
 1934              		.loc 1 595 0
 1935 017e 6B46     		mov	r3, sp	@ tmp316,
ARM GAS  C:\Users\Mariano\AppData\Local\Temp\ccqsEEdp.s 			page 48


 1936 0180 0F33     		add	r3, r3, #15	@ tmp316,
 1937 0182 0422     		mov	r2, #4	@ tmp317,
 1938 0184 1A70     		strb	r2, [r3]	@ tmp318, resp
 596:.\src/grouped.c **** 
 597:.\src/grouped.c **** 			break;
 1939              		.loc 1 597 0
 1940 0186 00F0D2FC 		bl	.L221	@ far jump	@
 1941              	.L116:
 598:.\src/grouped.c **** 
 599:.\src/grouped.c **** 		case GROUPED_MENU_MAX_DIMMING:
 600:.\src/grouped.c **** 			resp_down = FuncShowSelectv2 ((const char * ) "Max Dimming Conf");
 1942              		.loc 1 600 0
 1943 018a 6C46     		mov	r4, sp	@ tmp319,
 1944 018c 0E34     		add	r4, r4, #14	@ tmp319,
 1945 018e 914B     		ldr	r3, .L239+32	@ tmp320,
 1946 0190 181C     		mov	r0, r3	@, tmp320
 1947 0192 FFF7FEFF 		bl	FuncShowSelectv2	@
 1948 0196 031C     		mov	r3, r0	@ tmp321,
 1949 0198 2370     		strb	r3, [r4]	@ tmp323, resp_down
 601:.\src/grouped.c **** 
 602:.\src/grouped.c **** 			if (resp_down == RESP_CHANGE)	//cambio de menu
 1950              		.loc 1 602 0
 1951 019a 6B46     		mov	r3, sp	@ tmp324,
 1952 019c 0E33     		add	r3, r3, #14	@ tmp324,
 1953 019e 1B78     		ldrb	r3, [r3]	@ tmp325, resp_down
 1954 01a0 022B     		cmp	r3, #2	@ tmp325,
 1955 01a2 02D1     		bne	.L161	@,
 603:.\src/grouped.c **** 				grouped_menu_state = GROUPED_MENU_MIN_DIMMING;
 1956              		.loc 1 603 0
 1957 01a4 834B     		ldr	r3, .L239	@ tmp326,
 1958 01a6 0422     		mov	r2, #4	@ tmp327,
 1959 01a8 1A70     		strb	r2, [r3]	@ tmp328, grouped_menu_state
 1960              	.L161:
 604:.\src/grouped.c **** 
 605:.\src/grouped.c **** 			if (resp_down == RESP_SELECTED)	//se eligio el menu
 1961              		.loc 1 605 0
 1962 01aa 6B46     		mov	r3, sp	@ tmp329,
 1963 01ac 0E33     		add	r3, r3, #14	@ tmp329,
 1964 01ae 1B78     		ldrb	r3, [r3]	@ tmp330, resp_down
 1965 01b0 012B     		cmp	r3, #1	@ tmp330,
 1966 01b2 02D1     		bne	.L162	@,
 606:.\src/grouped.c **** 				grouped_menu_state = GROUPED_MENU_MAX_DIMMING_SELECTED;
 1967              		.loc 1 606 0
 1968 01b4 7F4B     		ldr	r3, .L239	@ tmp331,
 1969 01b6 1322     		mov	r2, #19	@ tmp332,
 1970 01b8 1A70     		strb	r2, [r3]	@ tmp333, grouped_menu_state
 1971              	.L162:
 607:.\src/grouped.c **** 
 608:.\src/grouped.c **** 			if (resp_down != RESP_CONTINUE)
 1972              		.loc 1 608 0
 1973 01ba 6B46     		mov	r3, sp	@ tmp334,
 1974 01bc 0E33     		add	r3, r3, #14	@ tmp334,
 1975 01be 1B78     		ldrb	r3, [r3]	@ tmp335, resp_down
 1976 01c0 002B     		cmp	r3, #0	@ tmp335,
 1977 01c2 01D1     		bne	.LCB1544	@
 1978 01c4 00F0B5FC 		bl	.L222	@far jump	@
 1979              	.LCB1544:
ARM GAS  C:\Users\Mariano\AppData\Local\Temp\ccqsEEdp.s 			page 49


 609:.\src/grouped.c **** 				resp = RESP_WORKING;
 1980              		.loc 1 609 0
 1981 01c8 6B46     		mov	r3, sp	@ tmp336,
 1982 01ca 0F33     		add	r3, r3, #15	@ tmp336,
 1983 01cc 0422     		mov	r2, #4	@ tmp337,
 1984 01ce 1A70     		strb	r2, [r3]	@ tmp338, resp
 610:.\src/grouped.c **** 
 611:.\src/grouped.c **** 			break;
 1985              		.loc 1 611 0
 1986 01d0 00F0AFFC 		bl	.L222	@ far jump	@
 1987              	.L117:
 612:.\src/grouped.c **** 
 613:.\src/grouped.c **** 		case GROUPED_MENU_MIN_DIMMING:
 614:.\src/grouped.c **** 			resp_down = FuncShowSelectv2 ((const char * ) "Min Dimming Conf");
 1988              		.loc 1 614 0
 1989 01d4 6C46     		mov	r4, sp	@ tmp339,
 1990 01d6 0E34     		add	r4, r4, #14	@ tmp339,
 1991 01d8 7F4B     		ldr	r3, .L239+36	@ tmp340,
 1992 01da 181C     		mov	r0, r3	@, tmp340
 1993 01dc FFF7FEFF 		bl	FuncShowSelectv2	@
 1994 01e0 031C     		mov	r3, r0	@ tmp341,
 1995 01e2 2370     		strb	r3, [r4]	@ tmp343, resp_down
 615:.\src/grouped.c **** 
 616:.\src/grouped.c **** 			if (resp_down == RESP_CHANGE)	//cambio de menu
 1996              		.loc 1 616 0
 1997 01e4 6B46     		mov	r3, sp	@ tmp344,
 1998 01e6 0E33     		add	r3, r3, #14	@ tmp344,
 1999 01e8 1B78     		ldrb	r3, [r3]	@ tmp345, resp_down
 2000 01ea 022B     		cmp	r3, #2	@ tmp345,
 2001 01ec 02D1     		bne	.L164	@,
 617:.\src/grouped.c **** 				grouped_menu_state = GROUPED_MENU_RAMP_ON_START;
 2002              		.loc 1 617 0
 2003 01ee 714B     		ldr	r3, .L239	@ tmp346,
 2004 01f0 0522     		mov	r2, #5	@ tmp347,
 2005 01f2 1A70     		strb	r2, [r3]	@ tmp348, grouped_menu_state
 2006              	.L164:
 618:.\src/grouped.c **** 
 619:.\src/grouped.c **** 			if (resp_down == RESP_SELECTED)	//se eligio el menu
 2007              		.loc 1 619 0
 2008 01f4 6B46     		mov	r3, sp	@ tmp349,
 2009 01f6 0E33     		add	r3, r3, #14	@ tmp349,
 2010 01f8 1B78     		ldrb	r3, [r3]	@ tmp350, resp_down
 2011 01fa 012B     		cmp	r3, #1	@ tmp350,
 2012 01fc 02D1     		bne	.L165	@,
 620:.\src/grouped.c **** 				grouped_menu_state = GROUPED_MENU_MIN_DIMMING_SELECTED;
 2013              		.loc 1 620 0
 2014 01fe 6D4B     		ldr	r3, .L239	@ tmp351,
 2015 0200 1522     		mov	r2, #21	@ tmp352,
 2016 0202 1A70     		strb	r2, [r3]	@ tmp353, grouped_menu_state
 2017              	.L165:
 621:.\src/grouped.c **** 
 622:.\src/grouped.c **** 			if (resp_down != RESP_CONTINUE)
 2018              		.loc 1 622 0
 2019 0204 6B46     		mov	r3, sp	@ tmp354,
 2020 0206 0E33     		add	r3, r3, #14	@ tmp354,
 2021 0208 1B78     		ldrb	r3, [r3]	@ tmp355, resp_down
 2022 020a 002B     		cmp	r3, #0	@ tmp355,
ARM GAS  C:\Users\Mariano\AppData\Local\Temp\ccqsEEdp.s 			page 50


 2023 020c 01D1     		bne	.LCB1584	@
 2024 020e 00F092FC 		bl	.L223	@far jump	@
 2025              	.LCB1584:
 623:.\src/grouped.c **** 				resp = RESP_WORKING;
 2026              		.loc 1 623 0
 2027 0212 6B46     		mov	r3, sp	@ tmp356,
 2028 0214 0F33     		add	r3, r3, #15	@ tmp356,
 2029 0216 0422     		mov	r2, #4	@ tmp357,
 2030 0218 1A70     		strb	r2, [r3]	@ tmp358, resp
 624:.\src/grouped.c **** 
 625:.\src/grouped.c **** 			break;
 2031              		.loc 1 625 0
 2032 021a 00F08CFC 		bl	.L223	@ far jump	@
 2033              	.L118:
 626:.\src/grouped.c **** 
 627:.\src/grouped.c **** 		case GROUPED_MENU_RAMP_ON_START:
 628:.\src/grouped.c **** 			resp_down = FuncShowSelectv2 ((const char * ) "Ramp ON/OFF Conf");
 2034              		.loc 1 628 0
 2035 021e 6C46     		mov	r4, sp	@ tmp359,
 2036 0220 0E34     		add	r4, r4, #14	@ tmp359,
 2037 0222 6E4B     		ldr	r3, .L239+40	@ tmp360,
 2038 0224 181C     		mov	r0, r3	@, tmp360
 2039 0226 FFF7FEFF 		bl	FuncShowSelectv2	@
 2040 022a 031C     		mov	r3, r0	@ tmp361,
 2041 022c 2370     		strb	r3, [r4]	@ tmp363, resp_down
 629:.\src/grouped.c **** 
 630:.\src/grouped.c **** 			if (resp_down == RESP_CHANGE)	//cambio de menu
 2042              		.loc 1 630 0
 2043 022e 6B46     		mov	r3, sp	@ tmp364,
 2044 0230 0E33     		add	r3, r3, #14	@ tmp364,
 2045 0232 1B78     		ldrb	r3, [r3]	@ tmp365, resp_down
 2046 0234 022B     		cmp	r3, #2	@ tmp365,
 2047 0236 02D1     		bne	.L167	@,
 631:.\src/grouped.c **** 				grouped_menu_state = GROUPED_MENU_RAMP_ON_DIMMING;
 2048              		.loc 1 631 0
 2049 0238 5E4B     		ldr	r3, .L239	@ tmp366,
 2050 023a 0622     		mov	r2, #6	@ tmp367,
 2051 023c 1A70     		strb	r2, [r3]	@ tmp368, grouped_menu_state
 2052              	.L167:
 632:.\src/grouped.c **** 
 633:.\src/grouped.c **** 			if (resp_down == RESP_SELECTED)	//se eligio el menu
 2053              		.loc 1 633 0
 2054 023e 6B46     		mov	r3, sp	@ tmp369,
 2055 0240 0E33     		add	r3, r3, #14	@ tmp369,
 2056 0242 1B78     		ldrb	r3, [r3]	@ tmp370, resp_down
 2057 0244 012B     		cmp	r3, #1	@ tmp370,
 2058 0246 02D1     		bne	.L168	@,
 634:.\src/grouped.c **** 				grouped_menu_state = GROUPED_MENU_RAMP_ON_START_SELECTED;
 2059              		.loc 1 634 0
 2060 0248 5A4B     		ldr	r3, .L239	@ tmp371,
 2061 024a 1722     		mov	r2, #23	@ tmp372,
 2062 024c 1A70     		strb	r2, [r3]	@ tmp373, grouped_menu_state
 2063              	.L168:
 635:.\src/grouped.c **** 
 636:.\src/grouped.c **** 			if (resp_down != RESP_CONTINUE)
 2064              		.loc 1 636 0
 2065 024e 6B46     		mov	r3, sp	@ tmp374,
ARM GAS  C:\Users\Mariano\AppData\Local\Temp\ccqsEEdp.s 			page 51


 2066 0250 0E33     		add	r3, r3, #14	@ tmp374,
 2067 0252 1B78     		ldrb	r3, [r3]	@ tmp375, resp_down
 2068 0254 002B     		cmp	r3, #0	@ tmp375,
 2069 0256 01D1     		bne	.LCB1624	@
 2070 0258 00F082FC 		bl	.L224	@far jump	@
 2071              	.LCB1624:
 637:.\src/grouped.c **** 				resp = RESP_WORKING;
 2072              		.loc 1 637 0
 2073 025c 6B46     		mov	r3, sp	@ tmp376,
 2074 025e 0F33     		add	r3, r3, #15	@ tmp376,
 2075 0260 0422     		mov	r2, #4	@ tmp377,
 2076 0262 1A70     		strb	r2, [r3]	@ tmp378, resp
 638:.\src/grouped.c **** 
 639:.\src/grouped.c **** 			break;
 2077              		.loc 1 639 0
 2078 0264 00F07CFC 		bl	.L224	@ far jump	@
 2079              	.L119:
 640:.\src/grouped.c **** 
 641:.\src/grouped.c **** 		case GROUPED_MENU_RAMP_ON_DIMMING:
 642:.\src/grouped.c **** 			resp_down = FuncShowSelectv2 ((const char * ) "Ramp on Dim Conf");
 2080              		.loc 1 642 0
 2081 0268 6C46     		mov	r4, sp	@ tmp379,
 2082 026a 0E34     		add	r4, r4, #14	@ tmp379,
 2083 026c 5C4B     		ldr	r3, .L239+44	@ tmp380,
 2084 026e 181C     		mov	r0, r3	@, tmp380
 2085 0270 FFF7FEFF 		bl	FuncShowSelectv2	@
 2086 0274 031C     		mov	r3, r0	@ tmp381,
 2087 0276 2370     		strb	r3, [r4]	@ tmp383, resp_down
 643:.\src/grouped.c **** 
 644:.\src/grouped.c **** 			if (resp_down == RESP_CHANGE)	//cambio de menu
 2088              		.loc 1 644 0
 2089 0278 6B46     		mov	r3, sp	@ tmp384,
 2090 027a 0E33     		add	r3, r3, #14	@ tmp384,
 2091 027c 1B78     		ldrb	r3, [r3]	@ tmp385, resp_down
 2092 027e 022B     		cmp	r3, #2	@ tmp385,
 2093 0280 02D1     		bne	.L170	@,
 645:.\src/grouped.c **** 				grouped_menu_state = GROUPED_MENU_MOV_SENS;
 2094              		.loc 1 645 0
 2095 0282 4C4B     		ldr	r3, .L239	@ tmp386,
 2096 0284 0122     		mov	r2, #1	@ tmp387,
 2097 0286 1A70     		strb	r2, [r3]	@ tmp388, grouped_menu_state
 2098              	.L170:
 646:.\src/grouped.c **** 
 647:.\src/grouped.c **** 			if (resp_down == RESP_SELECTED)	//se eligio el menu
 2099              		.loc 1 647 0
 2100 0288 6B46     		mov	r3, sp	@ tmp389,
 2101 028a 0E33     		add	r3, r3, #14	@ tmp389,
 2102 028c 1B78     		ldrb	r3, [r3]	@ tmp390, resp_down
 2103 028e 012B     		cmp	r3, #1	@ tmp390,
 2104 0290 02D1     		bne	.L171	@,
 648:.\src/grouped.c **** 				grouped_menu_state = GROUPED_MENU_RAMP_ON_DIMMING_SELECTED;
 2105              		.loc 1 648 0
 2106 0292 484B     		ldr	r3, .L239	@ tmp391,
 2107 0294 1922     		mov	r2, #25	@ tmp392,
 2108 0296 1A70     		strb	r2, [r3]	@ tmp393, grouped_menu_state
 2109              	.L171:
 649:.\src/grouped.c **** 
ARM GAS  C:\Users\Mariano\AppData\Local\Temp\ccqsEEdp.s 			page 52


 650:.\src/grouped.c **** 			if (resp_down != RESP_CONTINUE)
 2110              		.loc 1 650 0
 2111 0298 6B46     		mov	r3, sp	@ tmp394,
 2112 029a 0E33     		add	r3, r3, #14	@ tmp394,
 2113 029c 1B78     		ldrb	r3, [r3]	@ tmp395, resp_down
 2114 029e 002B     		cmp	r3, #0	@ tmp395,
 2115 02a0 01D1     		bne	.LCB1664	@
 2116 02a2 00F05FFC 		bl	.L225	@far jump	@
 2117              	.LCB1664:
 651:.\src/grouped.c **** 				resp = RESP_WORKING;
 2118              		.loc 1 651 0
 2119 02a6 6B46     		mov	r3, sp	@ tmp396,
 2120 02a8 0F33     		add	r3, r3, #15	@ tmp396,
 2121 02aa 0422     		mov	r2, #4	@ tmp397,
 2122 02ac 1A70     		strb	r2, [r3]	@ tmp398, resp
 652:.\src/grouped.c **** 
 653:.\src/grouped.c **** 			break;
 2123              		.loc 1 653 0
 2124 02ae 00F059FC 		bl	.L225	@ far jump	@
 2125              	.L139:
 654:.\src/grouped.c **** 
 655:.\src/grouped.c **** 
 656:.\src/grouped.c **** 		case GROUPED_MENU_MASTER_ENABLE_SELECTED:
 657:.\src/grouped.c **** 			if (GroupedStruct_local.grouped_mode == GROUPED_MODE_MASTER)
 2126              		.loc 1 657 0
 2127 02b2 4C4B     		ldr	r3, .L239+48	@ tmp399,
 2128 02b4 1B7B     		ldrb	r3, [r3, #12]	@ D.5935,
 2129 02b6 002B     		cmp	r3, #0	@ D.5935,
 2130 02b8 04D1     		bne	.L173	@,
 658:.\src/grouped.c **** 				resp_down = 0x80;
 2131              		.loc 1 658 0
 2132 02ba 6B46     		mov	r3, sp	@ tmp400,
 2133 02bc 0E33     		add	r3, r3, #14	@ tmp400,
 2134 02be 8022     		mov	r2, #128	@ tmp401,
 2135 02c0 1A70     		strb	r2, [r3]	@ tmp402, resp_down
 2136 02c2 03E0     		b	.L174	@
 2137              	.L173:
 659:.\src/grouped.c **** 			else
 660:.\src/grouped.c **** 				resp_down = 0x81;
 2138              		.loc 1 660 0
 2139 02c4 6B46     		mov	r3, sp	@ tmp403,
 2140 02c6 0E33     		add	r3, r3, #14	@ tmp403,
 2141 02c8 8122     		mov	r2, #129	@ tmp404,
 2142 02ca 1A70     		strb	r2, [r3]	@ tmp405, resp_down
 2143              	.L174:
 661:.\src/grouped.c **** 
 662:.\src/grouped.c **** 			FuncOptions ((const char *) "on   off   back ", (const char *) s_blank_line, (unsigned char *)s_
 2144              		.loc 1 662 0
 2145 02cc 4649     		ldr	r1, .L239+52	@ tmp406,
 2146 02ce 474A     		ldr	r2, .L239+56	@ tmp407,
 2147 02d0 474B     		ldr	r3, .L239+60	@ tmp408,
 2148 02d2 6846     		mov	r0, sp	@ tmp409,
 2149 02d4 0E30     		add	r0, r0, #14	@ tmp409,
 2150 02d6 0078     		ldrb	r0, [r0]	@ tmp410, resp_down
 2151 02d8 0090     		str	r0, [sp]	@ tmp410,
 2152 02da 081C     		mov	r0, r1	@, tmp406
 2153 02dc 111C     		mov	r1, r2	@, tmp407
ARM GAS  C:\Users\Mariano\AppData\Local\Temp\ccqsEEdp.s 			page 53


 2154 02de 1A1C     		mov	r2, r3	@, tmp408
 2155 02e0 0323     		mov	r3, #3	@,
 2156 02e2 FFF7FEFF 		bl	FuncOptions	@
 663:.\src/grouped.c **** 			grouped_menu_state++;
 2157              		.loc 1 663 0
 2158 02e6 334B     		ldr	r3, .L239	@ tmp411,
 2159 02e8 1B78     		ldrb	r3, [r3]	@ grouped_menu_state.1, grouped_menu_state
 2160 02ea 0133     		add	r3, r3, #1	@ tmp412,
 2161 02ec DAB2     		uxtb	r2, r3	@ grouped_menu_state.2, tmp412
 2162 02ee 314B     		ldr	r3, .L239	@ tmp413,
 2163 02f0 1A70     		strb	r2, [r3]	@ tmp414, grouped_menu_state
 664:.\src/grouped.c **** 			break;
 2164              		.loc 1 664 0
 2165 02f2 00F052FC 		bl	.L148	@ far jump	@
 2166              	.L140:
 665:.\src/grouped.c **** 
 666:.\src/grouped.c **** 		case GROUPED_MENU_MASTER_ENABLE_SELECTED_1:
 667:.\src/grouped.c **** 			resp_down = FuncOptions ((const char *) "on   off   back ",(const char *)  s_blank_line, (unsign
 2167              		.loc 1 667 0
 2168 02f6 6C46     		mov	r4, sp	@ tmp415,
 2169 02f8 0E34     		add	r4, r4, #14	@ tmp415,
 2170 02fa 3B49     		ldr	r1, .L239+52	@ tmp416,
 2171 02fc 3B4A     		ldr	r2, .L239+56	@ tmp417,
 2172 02fe 3C4B     		ldr	r3, .L239+60	@ tmp418,
 2173 0300 0020     		mov	r0, #0	@ tmp419,
 2174 0302 0090     		str	r0, [sp]	@ tmp419,
 2175 0304 081C     		mov	r0, r1	@, tmp416
 2176 0306 111C     		mov	r1, r2	@, tmp417
 2177 0308 1A1C     		mov	r2, r3	@, tmp418
 2178 030a 0323     		mov	r3, #3	@,
 2179 030c FFF7FEFF 		bl	FuncOptions	@
 2180 0310 031C     		mov	r3, r0	@ tmp420,
 2181 0312 2370     		strb	r3, [r4]	@ tmp422, resp_down
 668:.\src/grouped.c **** 
 669:.\src/grouped.c **** 			if ((resp_down & 0x0f) == RESP_SELECTED)
 2182              		.loc 1 669 0
 2183 0314 6B46     		mov	r3, sp	@ tmp423,
 2184 0316 0E33     		add	r3, r3, #14	@ tmp423,
 2185 0318 1A78     		ldrb	r2, [r3]	@ D.5941, resp_down
 2186 031a 0F23     		mov	r3, #15	@ tmp424,
 2187 031c 1340     		and	r3, r2	@ D.5942, D.5941
 2188 031e 012B     		cmp	r3, #1	@ D.5942,
 2189 0320 01D0     		beq	.LCB1733	@
 2190 0322 00F021FC 		bl	.L226	@far jump	@
 2191              	.LCB1733:
 670:.\src/grouped.c **** 			{
 671:.\src/grouped.c **** 				resp_down = resp_down & 0xf0;
 2192              		.loc 1 671 0
 2193 0326 6B46     		mov	r3, sp	@ tmp425,
 2194 0328 0E33     		add	r3, r3, #14	@ tmp425,
 2195 032a 6A46     		mov	r2, sp	@ tmp426,
 2196 032c 0E32     		add	r2, r2, #14	@ tmp426,
 2197 032e 1278     		ldrb	r2, [r2]	@ tmp427, resp_down
 2198 0330 0F21     		mov	r1, #15	@ tmp429,
 2199 0332 8A43     		bic	r2, r1	@ tmp428, tmp429
 2200 0334 1A70     		strb	r2, [r3]	@ tmp430, resp_down
 672:.\src/grouped.c **** 				resp_down >>= 4;
ARM GAS  C:\Users\Mariano\AppData\Local\Temp\ccqsEEdp.s 			page 54


 2201              		.loc 1 672 0
 2202 0336 6B46     		mov	r3, sp	@ tmp431,
 2203 0338 0E33     		add	r3, r3, #14	@ tmp431,
 2204 033a 6A46     		mov	r2, sp	@ tmp432,
 2205 033c 0E32     		add	r2, r2, #14	@ tmp432,
 2206 033e 1278     		ldrb	r2, [r2]	@ tmp433, resp_down
 2207 0340 1209     		lsr	r2, r2, #4	@ tmp434, tmp433,
 2208 0342 1A70     		strb	r2, [r3]	@ tmp435, resp_down
 673:.\src/grouped.c **** 				if (resp_down == 0)
 2209              		.loc 1 673 0
 2210 0344 6B46     		mov	r3, sp	@ tmp436,
 2211 0346 0E33     		add	r3, r3, #14	@ tmp436,
 2212 0348 1B78     		ldrb	r3, [r3]	@ tmp437, resp_down
 2213 034a 002B     		cmp	r3, #0	@ tmp437,
 2214 034c 09D1     		bne	.L176	@,
 674:.\src/grouped.c **** 				{
 675:.\src/grouped.c **** 					GroupedStruct_local.grouped_mode = GROUPED_MODE_MASTER;
 2215              		.loc 1 675 0
 2216 034e 254B     		ldr	r3, .L239+48	@ tmp438,
 2217 0350 0022     		mov	r2, #0	@ tmp439,
 2218 0352 1A73     		strb	r2, [r3, #12]	@ tmp440, GroupedStruct_local.grouped_mode
 676:.\src/grouped.c **** 					resp = RESP_SELECTED;
 2219              		.loc 1 676 0
 2220 0354 6B46     		mov	r3, sp	@ tmp441,
 2221 0356 0F33     		add	r3, r3, #15	@ tmp441,
 2222 0358 0122     		mov	r2, #1	@ tmp442,
 2223 035a 1A70     		strb	r2, [r3]	@ tmp443, resp
 677:.\src/grouped.c **** 					grouped_menu_state = GROUPED_MENU_MOV_SENS;
 2224              		.loc 1 677 0
 2225 035c 154B     		ldr	r3, .L239	@ tmp444,
 2226 035e 0122     		mov	r2, #1	@ tmp445,
 2227 0360 1A70     		strb	r2, [r3]	@ tmp446, grouped_menu_state
 2228              	.L176:
 678:.\src/grouped.c **** 				}
 679:.\src/grouped.c **** 
 680:.\src/grouped.c **** 				if (resp_down == 1)
 2229              		.loc 1 680 0
 2230 0362 6B46     		mov	r3, sp	@ tmp447,
 2231 0364 0E33     		add	r3, r3, #14	@ tmp447,
 2232 0366 1B78     		ldrb	r3, [r3]	@ tmp448, resp_down
 2233 0368 012B     		cmp	r3, #1	@ tmp448,
 2234 036a 09D1     		bne	.L177	@,
 681:.\src/grouped.c **** 				{
 682:.\src/grouped.c **** 					GroupedStruct_local.grouped_mode = GROUPED_MODE_SLAVE;
 2235              		.loc 1 682 0
 2236 036c 1D4B     		ldr	r3, .L239+48	@ tmp449,
 2237 036e 0122     		mov	r2, #1	@ tmp450,
 2238 0370 1A73     		strb	r2, [r3, #12]	@ tmp451, GroupedStruct_local.grouped_mode
 683:.\src/grouped.c **** 					resp = RESP_SELECTED;
 2239              		.loc 1 683 0
 2240 0372 6B46     		mov	r3, sp	@ tmp452,
 2241 0374 0F33     		add	r3, r3, #15	@ tmp452,
 2242 0376 0122     		mov	r2, #1	@ tmp453,
 2243 0378 1A70     		strb	r2, [r3]	@ tmp454, resp
 684:.\src/grouped.c **** 					grouped_menu_state = GROUPED_MENU_SLAVE_ENABLE;
 2244              		.loc 1 684 0
 2245 037a 0E4B     		ldr	r3, .L239	@ tmp455,
ARM GAS  C:\Users\Mariano\AppData\Local\Temp\ccqsEEdp.s 			page 55


 2246 037c 0822     		mov	r2, #8	@ tmp456,
 2247 037e 1A70     		strb	r2, [r3]	@ tmp457, grouped_menu_state
 2248              	.L177:
 685:.\src/grouped.c **** 				}
 686:.\src/grouped.c **** 
 687:.\src/grouped.c **** 				if (resp_down == 2)
 2249              		.loc 1 687 0
 2250 0380 6B46     		mov	r3, sp	@ tmp458,
 2251 0382 0E33     		add	r3, r3, #14	@ tmp458,
 2252 0384 1B78     		ldrb	r3, [r3]	@ tmp459, resp_down
 2253 0386 022B     		cmp	r3, #2	@ tmp459,
 2254 0388 01D0     		beq	.LCB1787	@
 2255 038a 00F0EDFB 		bl	.L226	@far jump	@
 2256              	.LCB1787:
 688:.\src/grouped.c **** 				{
 689:.\src/grouped.c **** 					resp = RESP_WORKING;
 2257              		.loc 1 689 0
 2258 038e 6B46     		mov	r3, sp	@ tmp460,
 2259 0390 0F33     		add	r3, r3, #15	@ tmp460,
 2260 0392 0422     		mov	r2, #4	@ tmp461,
 2261 0394 1A70     		strb	r2, [r3]	@ tmp462, resp
 690:.\src/grouped.c **** 					grouped_menu_state++;
 2262              		.loc 1 690 0
 2263 0396 074B     		ldr	r3, .L239	@ tmp463,
 2264 0398 1B78     		ldrb	r3, [r3]	@ grouped_menu_state.3, grouped_menu_state
 2265 039a 0133     		add	r3, r3, #1	@ tmp464,
 2266 039c DAB2     		uxtb	r2, r3	@ grouped_menu_state.4, tmp464
 2267 039e 054B     		ldr	r3, .L239	@ tmp465,
 2268 03a0 1A70     		strb	r2, [r3]	@ tmp466, grouped_menu_state
 691:.\src/grouped.c **** 					LCD_1ER_RENGLON;
 2269              		.loc 1 691 0
 2270 03a2 0020     		mov	r0, #0	@,
 2271 03a4 FFF7FEFF 		bl	Lcd_SetDDRAM	@
 692:.\src/grouped.c **** 					LCDTransmitStr((const char *) "wait to free    ");
 2272              		.loc 1 692 0
 2273 03a8 124B     		ldr	r3, .L239+64	@ tmp467,
 2274 03aa 181C     		mov	r0, r3	@, tmp467
 2275 03ac FFF7FEFF 		bl	LCDTransmitStr	@
 693:.\src/grouped.c **** 				}
 694:.\src/grouped.c **** 			}
 695:.\src/grouped.c **** 			break;
 2276              		.loc 1 695 0
 2277 03b0 00F0DAFB 		bl	.L226	@ far jump	@
 2278              	.L240:
 2279              		.align	2
 2280              	.L239:
 2281 03b4 00000000 		.word	grouped_menu_state
 2282 03b8 00000000 		.word	.L146
 2283 03bc C8000000 		.word	.LC46
 2284 03c0 DC000000 		.word	.LC48
 2285 03c4 E8000000 		.word	.LC50
 2286 03c8 FC000000 		.word	.LC52
 2287 03cc 0C010000 		.word	.LC54
 2288 03d0 20010000 		.word	.LC56
 2289 03d4 34010000 		.word	.LC58
 2290 03d8 48010000 		.word	.LC60
 2291 03dc 5C010000 		.word	.LC62
ARM GAS  C:\Users\Mariano\AppData\Local\Temp\ccqsEEdp.s 			page 56


 2292 03e0 70010000 		.word	.LC64
 2293 03e4 00000000 		.word	GroupedStruct_local
 2294 03e8 84010000 		.word	.LC67
 2295 03ec 00000000 		.word	s_blank_line
 2296 03f0 00000000 		.word	s_sel_g
 2297 03f4 A0000000 		.word	.LC39
 2298              	.L141:
 696:.\src/grouped.c **** 
 697:.\src/grouped.c **** 		case GROUPED_MENU_MASTER_ENABLE_SELECTED_2:		//si eligen back vuelvo al menu master slave
 698:.\src/grouped.c **** 			if (CheckS2() == S_NO)
 2299              		.loc 1 698 0
 2300 03f8 FFF7FEFF 		bl	CheckS2	@
 2301 03fc 031C     		mov	r3, r0	@ tmp468,
 2302 03fe 002B     		cmp	r3, #0	@ D.5953,
 2303 0400 02D1     		bne	.L178	@,
 699:.\src/grouped.c **** 				grouped_menu_state = GROUPED_MENU_MASTER_ENABLE;
 2304              		.loc 1 699 0
 2305 0402 E54B     		ldr	r3, .L241	@ tmp470,
 2306 0404 0722     		mov	r2, #7	@ tmp471,
 2307 0406 1A70     		strb	r2, [r3]	@ tmp472, grouped_menu_state
 2308              	.L178:
 700:.\src/grouped.c **** 
 701:.\src/grouped.c **** 			resp = RESP_WORKING;
 2309              		.loc 1 701 0
 2310 0408 6B46     		mov	r3, sp	@ tmp473,
 2311 040a 0F33     		add	r3, r3, #15	@ tmp473,
 2312 040c 0422     		mov	r2, #4	@ tmp474,
 2313 040e 1A70     		strb	r2, [r3]	@ tmp475, resp
 702:.\src/grouped.c **** 			break;
 2314              		.loc 1 702 0
 2315 0410 00F0C3FB 		bl	.L148	@ far jump	@
 2316              	.L142:
 703:.\src/grouped.c **** 
 704:.\src/grouped.c **** 		case GROUPED_MENU_SLAVE_ENABLE_SELECTED:
 705:.\src/grouped.c **** 			if (GroupedStruct_local.grouped_mode == GROUPED_MODE_SLAVE)
 2317              		.loc 1 705 0
 2318 0414 E14B     		ldr	r3, .L241+4	@ tmp476,
 2319 0416 1B7B     		ldrb	r3, [r3, #12]	@ D.5956,
 2320 0418 012B     		cmp	r3, #1	@ D.5956,
 2321 041a 04D1     		bne	.L179	@,
 706:.\src/grouped.c **** 				resp_down = 0x80;
 2322              		.loc 1 706 0
 2323 041c 6B46     		mov	r3, sp	@ tmp477,
 2324 041e 0E33     		add	r3, r3, #14	@ tmp477,
 2325 0420 8022     		mov	r2, #128	@ tmp478,
 2326 0422 1A70     		strb	r2, [r3]	@ tmp479, resp_down
 2327 0424 03E0     		b	.L180	@
 2328              	.L179:
 707:.\src/grouped.c **** 			else
 708:.\src/grouped.c **** 				resp_down = 0x81;
 2329              		.loc 1 708 0
 2330 0426 6B46     		mov	r3, sp	@ tmp480,
 2331 0428 0E33     		add	r3, r3, #14	@ tmp480,
 2332 042a 8122     		mov	r2, #129	@ tmp481,
 2333 042c 1A70     		strb	r2, [r3]	@ tmp482, resp_down
 2334              	.L180:
 709:.\src/grouped.c **** 
ARM GAS  C:\Users\Mariano\AppData\Local\Temp\ccqsEEdp.s 			page 57


 710:.\src/grouped.c **** 			FuncOptions ((const char *) "on   off   back ",(const char *)  s_blank_line, (unsigned char *)s_
 2335              		.loc 1 710 0
 2336 042e DC49     		ldr	r1, .L241+8	@ tmp483,
 2337 0430 DC4A     		ldr	r2, .L241+12	@ tmp484,
 2338 0432 DD4B     		ldr	r3, .L241+16	@ tmp485,
 2339 0434 6846     		mov	r0, sp	@ tmp486,
 2340 0436 0E30     		add	r0, r0, #14	@ tmp486,
 2341 0438 0078     		ldrb	r0, [r0]	@ tmp487, resp_down
 2342 043a 0090     		str	r0, [sp]	@ tmp487,
 2343 043c 081C     		mov	r0, r1	@, tmp483
 2344 043e 111C     		mov	r1, r2	@, tmp484
 2345 0440 1A1C     		mov	r2, r3	@, tmp485
 2346 0442 0323     		mov	r3, #3	@,
 2347 0444 FFF7FEFF 		bl	FuncOptions	@
 711:.\src/grouped.c **** 			grouped_menu_state++;
 2348              		.loc 1 711 0
 2349 0448 D34B     		ldr	r3, .L241	@ tmp488,
 2350 044a 1B78     		ldrb	r3, [r3]	@ grouped_menu_state.5, grouped_menu_state
 2351 044c 0133     		add	r3, r3, #1	@ tmp489,
 2352 044e DAB2     		uxtb	r2, r3	@ grouped_menu_state.6, tmp489
 2353 0450 D14B     		ldr	r3, .L241	@ tmp490,
 2354 0452 1A70     		strb	r2, [r3]	@ tmp491, grouped_menu_state
 712:.\src/grouped.c **** 			break;
 2355              		.loc 1 712 0
 2356 0454 00F0A1FB 		bl	.L148	@ far jump	@
 2357              	.L143:
 713:.\src/grouped.c **** 
 714:.\src/grouped.c **** 		case GROUPED_MENU_SLAVE_ENABLE_SELECTED_1:
 715:.\src/grouped.c **** 			resp_down = FuncOptions ((const char *) "on   off   back ",(const char *)  s_blank_line, (unsign
 2358              		.loc 1 715 0
 2359 0458 6C46     		mov	r4, sp	@ tmp492,
 2360 045a 0E34     		add	r4, r4, #14	@ tmp492,
 2361 045c D049     		ldr	r1, .L241+8	@ tmp493,
 2362 045e D14A     		ldr	r2, .L241+12	@ tmp494,
 2363 0460 D14B     		ldr	r3, .L241+16	@ tmp495,
 2364 0462 0020     		mov	r0, #0	@ tmp496,
 2365 0464 0090     		str	r0, [sp]	@ tmp496,
 2366 0466 081C     		mov	r0, r1	@, tmp493
 2367 0468 111C     		mov	r1, r2	@, tmp494
 2368 046a 1A1C     		mov	r2, r3	@, tmp495
 2369 046c 0323     		mov	r3, #3	@,
 2370 046e FFF7FEFF 		bl	FuncOptions	@
 2371 0472 031C     		mov	r3, r0	@ tmp497,
 2372 0474 2370     		strb	r3, [r4]	@ tmp499, resp_down
 716:.\src/grouped.c **** 
 717:.\src/grouped.c **** 			if ((resp_down & 0x0f) == RESP_SELECTED)
 2373              		.loc 1 717 0
 2374 0476 6B46     		mov	r3, sp	@ tmp500,
 2375 0478 0E33     		add	r3, r3, #14	@ tmp500,
 2376 047a 1A78     		ldrb	r2, [r3]	@ D.5962, resp_down
 2377 047c 0F23     		mov	r3, #15	@ tmp501,
 2378 047e 1340     		and	r3, r2	@ D.5963, D.5962
 2379 0480 012B     		cmp	r3, #1	@ D.5963,
 2380 0482 00D0     		beq	.LCB1906	@
 2381 0484 72E3     		b	.L227	@long jump	@
 2382              	.LCB1906:
 718:.\src/grouped.c **** 			{
ARM GAS  C:\Users\Mariano\AppData\Local\Temp\ccqsEEdp.s 			page 58


 719:.\src/grouped.c **** 				resp_down = resp_down & 0xf0;
 2383              		.loc 1 719 0
 2384 0486 6B46     		mov	r3, sp	@ tmp502,
 2385 0488 0E33     		add	r3, r3, #14	@ tmp502,
 2386 048a 6A46     		mov	r2, sp	@ tmp503,
 2387 048c 0E32     		add	r2, r2, #14	@ tmp503,
 2388 048e 1278     		ldrb	r2, [r2]	@ tmp504, resp_down
 2389 0490 0F21     		mov	r1, #15	@ tmp506,
 2390 0492 8A43     		bic	r2, r1	@ tmp505, tmp506
 2391 0494 1A70     		strb	r2, [r3]	@ tmp507, resp_down
 720:.\src/grouped.c **** 				resp_down >>= 4;
 2392              		.loc 1 720 0
 2393 0496 6B46     		mov	r3, sp	@ tmp508,
 2394 0498 0E33     		add	r3, r3, #14	@ tmp508,
 2395 049a 6A46     		mov	r2, sp	@ tmp509,
 2396 049c 0E32     		add	r2, r2, #14	@ tmp509,
 2397 049e 1278     		ldrb	r2, [r2]	@ tmp510, resp_down
 2398 04a0 1209     		lsr	r2, r2, #4	@ tmp511, tmp510,
 2399 04a2 1A70     		strb	r2, [r3]	@ tmp512, resp_down
 721:.\src/grouped.c **** 				if (resp_down == 0)
 2400              		.loc 1 721 0
 2401 04a4 6B46     		mov	r3, sp	@ tmp513,
 2402 04a6 0E33     		add	r3, r3, #14	@ tmp513,
 2403 04a8 1B78     		ldrb	r3, [r3]	@ tmp514, resp_down
 2404 04aa 002B     		cmp	r3, #0	@ tmp514,
 2405 04ac 09D1     		bne	.L182	@,
 722:.\src/grouped.c **** 				{
 723:.\src/grouped.c **** 					GroupedStruct_local.grouped_mode = GROUPED_MODE_SLAVE;
 2406              		.loc 1 723 0
 2407 04ae BB4B     		ldr	r3, .L241+4	@ tmp515,
 2408 04b0 0122     		mov	r2, #1	@ tmp516,
 2409 04b2 1A73     		strb	r2, [r3, #12]	@ tmp517, GroupedStruct_local.grouped_mode
 724:.\src/grouped.c **** 					resp = RESP_SELECTED;
 2410              		.loc 1 724 0
 2411 04b4 6B46     		mov	r3, sp	@ tmp518,
 2412 04b6 0F33     		add	r3, r3, #15	@ tmp518,
 2413 04b8 0122     		mov	r2, #1	@ tmp519,
 2414 04ba 1A70     		strb	r2, [r3]	@ tmp520, resp
 725:.\src/grouped.c **** 					grouped_menu_state = GROUPED_MENU_SLAVE_ENABLE_SELECTED_3;
 2415              		.loc 1 725 0
 2416 04bc B64B     		ldr	r3, .L241	@ tmp521,
 2417 04be 2122     		mov	r2, #33	@ tmp522,
 2418 04c0 1A70     		strb	r2, [r3]	@ tmp523, grouped_menu_state
 2419              	.L182:
 726:.\src/grouped.c **** 				}
 727:.\src/grouped.c **** 
 728:.\src/grouped.c **** 				if (resp_down == 1)
 2420              		.loc 1 728 0
 2421 04c2 6B46     		mov	r3, sp	@ tmp524,
 2422 04c4 0E33     		add	r3, r3, #14	@ tmp524,
 2423 04c6 1B78     		ldrb	r3, [r3]	@ tmp525, resp_down
 2424 04c8 012B     		cmp	r3, #1	@ tmp525,
 2425 04ca 09D1     		bne	.L183	@,
 729:.\src/grouped.c **** 				{
 730:.\src/grouped.c **** 					GroupedStruct_local.grouped_mode = GROUPED_MODE_MASTER;
 2426              		.loc 1 730 0
 2427 04cc B34B     		ldr	r3, .L241+4	@ tmp526,
ARM GAS  C:\Users\Mariano\AppData\Local\Temp\ccqsEEdp.s 			page 59


 2428 04ce 0022     		mov	r2, #0	@ tmp527,
 2429 04d0 1A73     		strb	r2, [r3, #12]	@ tmp528, GroupedStruct_local.grouped_mode
 731:.\src/grouped.c **** 					resp = RESP_SELECTED;
 2430              		.loc 1 731 0
 2431 04d2 6B46     		mov	r3, sp	@ tmp529,
 2432 04d4 0F33     		add	r3, r3, #15	@ tmp529,
 2433 04d6 0122     		mov	r2, #1	@ tmp530,
 2434 04d8 1A70     		strb	r2, [r3]	@ tmp531, resp
 732:.\src/grouped.c **** 					grouped_menu_state = GROUPED_MENU_MASTER_ENABLE;
 2435              		.loc 1 732 0
 2436 04da AF4B     		ldr	r3, .L241	@ tmp532,
 2437 04dc 0722     		mov	r2, #7	@ tmp533,
 2438 04de 1A70     		strb	r2, [r3]	@ tmp534, grouped_menu_state
 2439              	.L183:
 733:.\src/grouped.c **** 				}
 734:.\src/grouped.c **** 
 735:.\src/grouped.c **** 				if (resp_down == 2)
 2440              		.loc 1 735 0
 2441 04e0 6B46     		mov	r3, sp	@ tmp535,
 2442 04e2 0E33     		add	r3, r3, #14	@ tmp535,
 2443 04e4 1B78     		ldrb	r3, [r3]	@ tmp536, resp_down
 2444 04e6 022B     		cmp	r3, #2	@ tmp536,
 2445 04e8 00D0     		beq	.LCB1960	@
 2446 04ea 3FE3     		b	.L227	@long jump	@
 2447              	.LCB1960:
 736:.\src/grouped.c **** 				{
 737:.\src/grouped.c **** 					resp = RESP_WORKING;
 2448              		.loc 1 737 0
 2449 04ec 6B46     		mov	r3, sp	@ tmp537,
 2450 04ee 0F33     		add	r3, r3, #15	@ tmp537,
 2451 04f0 0422     		mov	r2, #4	@ tmp538,
 2452 04f2 1A70     		strb	r2, [r3]	@ tmp539, resp
 738:.\src/grouped.c **** 					grouped_menu_state++;
 2453              		.loc 1 738 0
 2454 04f4 A84B     		ldr	r3, .L241	@ tmp540,
 2455 04f6 1B78     		ldrb	r3, [r3]	@ grouped_menu_state.7, grouped_menu_state
 2456 04f8 0133     		add	r3, r3, #1	@ tmp541,
 2457 04fa DAB2     		uxtb	r2, r3	@ grouped_menu_state.8, tmp541
 2458 04fc A64B     		ldr	r3, .L241	@ tmp542,
 2459 04fe 1A70     		strb	r2, [r3]	@ tmp543, grouped_menu_state
 739:.\src/grouped.c **** 					LCD_1ER_RENGLON;
 2460              		.loc 1 739 0
 2461 0500 0020     		mov	r0, #0	@,
 2462 0502 FFF7FEFF 		bl	Lcd_SetDDRAM	@
 740:.\src/grouped.c **** 					LCDTransmitStr((const char *) "wait to free    ");
 2463              		.loc 1 740 0
 2464 0506 A94B     		ldr	r3, .L241+20	@ tmp544,
 2465 0508 181C     		mov	r0, r3	@, tmp544
 2466 050a FFF7FEFF 		bl	LCDTransmitStr	@
 741:.\src/grouped.c **** 				}
 742:.\src/grouped.c **** 			}
 743:.\src/grouped.c **** 			break;
 2467              		.loc 1 743 0
 2468 050e 2DE3     		b	.L227	@
 2469              	.L144:
 744:.\src/grouped.c **** 
 745:.\src/grouped.c **** 		case GROUPED_MENU_SLAVE_ENABLE_SELECTED_2:		//si eligen back vuelvo al menu master slave
ARM GAS  C:\Users\Mariano\AppData\Local\Temp\ccqsEEdp.s 			page 60


 746:.\src/grouped.c **** 			if (CheckS2() == S_NO)
 2470              		.loc 1 746 0
 2471 0510 FFF7FEFF 		bl	CheckS2	@
 2472 0514 031C     		mov	r3, r0	@ tmp545,
 2473 0516 002B     		cmp	r3, #0	@ D.5974,
 2474 0518 02D1     		bne	.L184	@,
 747:.\src/grouped.c **** 				grouped_menu_state = GROUPED_MENU_SLAVE_ENABLE;
 2475              		.loc 1 747 0
 2476 051a 9F4B     		ldr	r3, .L241	@ tmp547,
 2477 051c 0822     		mov	r2, #8	@ tmp548,
 2478 051e 1A70     		strb	r2, [r3]	@ tmp549, grouped_menu_state
 2479              	.L184:
 748:.\src/grouped.c **** 
 749:.\src/grouped.c **** 			resp = RESP_WORKING;
 2480              		.loc 1 749 0
 2481 0520 6B46     		mov	r3, sp	@ tmp550,
 2482 0522 0F33     		add	r3, r3, #15	@ tmp550,
 2483 0524 0422     		mov	r2, #4	@ tmp551,
 2484 0526 1A70     		strb	r2, [r3]	@ tmp552, resp
 750:.\src/grouped.c **** 			break;
 2485              		.loc 1 750 0
 2486 0528 37E3     		b	.L148	@
 2487              	.L145:
 751:.\src/grouped.c **** 
 752:.\src/grouped.c **** 		case GROUPED_MENU_SLAVE_ENABLE_SELECTED_3:
 753:.\src/grouped.c **** 			resp_down = FuncChangeChannels ((unsigned char *) &GroupedStruct_local.grouped_dmx_channel);
 2488              		.loc 1 753 0
 2489 052a 6C46     		mov	r4, sp	@ tmp553,
 2490 052c 0E34     		add	r4, r4, #14	@ tmp553,
 2491 052e A04B     		ldr	r3, .L241+24	@ tmp554,
 2492 0530 181C     		mov	r0, r3	@, tmp554
 2493 0532 0221     		mov	r1, #2	@,
 2494 0534 0122     		mov	r2, #1	@,
 2495 0536 FF23     		mov	r3, #255	@,
 2496 0538 FFF7FEFF 		bl	FuncChange	@
 2497 053c 031C     		mov	r3, r0	@ tmp555,
 2498 053e 2370     		strb	r3, [r4]	@ tmp557, resp_down
 754:.\src/grouped.c **** 
 755:.\src/grouped.c **** 			if (resp_down == RESP_FINISH)
 2499              		.loc 1 755 0
 2500 0540 6B46     		mov	r3, sp	@ tmp558,
 2501 0542 0E33     		add	r3, r3, #14	@ tmp558,
 2502 0544 1B78     		ldrb	r3, [r3]	@ tmp559, resp_down
 2503 0546 0A2B     		cmp	r3, #10	@ tmp559,
 2504 0548 07D1     		bne	.L185	@,
 756:.\src/grouped.c **** 			{
 757:.\src/grouped.c **** 				resp = RESP_SELECTED;
 2505              		.loc 1 757 0
 2506 054a 6B46     		mov	r3, sp	@ tmp560,
 2507 054c 0F33     		add	r3, r3, #15	@ tmp560,
 2508 054e 0122     		mov	r2, #1	@ tmp561,
 2509 0550 1A70     		strb	r2, [r3]	@ tmp562, resp
 758:.\src/grouped.c **** 				grouped_menu_state = GROUPED_MENU_SLAVE_ENABLE;
 2510              		.loc 1 758 0
 2511 0552 914B     		ldr	r3, .L241	@ tmp563,
 2512 0554 0822     		mov	r2, #8	@ tmp564,
 2513 0556 1A70     		strb	r2, [r3]	@ tmp565, grouped_menu_state
ARM GAS  C:\Users\Mariano\AppData\Local\Temp\ccqsEEdp.s 			page 61


 759:.\src/grouped.c **** 			}
 760:.\src/grouped.c **** 			else if (resp_down == RESP_WORKING)
 761:.\src/grouped.c **** 				resp = RESP_WORKING;
 762:.\src/grouped.c **** 
 763:.\src/grouped.c **** 			break;
 2514              		.loc 1 763 0
 2515 0558 0AE3     		b	.L228	@
 2516              	.L185:
 760:.\src/grouped.c **** 			else if (resp_down == RESP_WORKING)
 2517              		.loc 1 760 0
 2518 055a 6B46     		mov	r3, sp	@ tmp566,
 2519 055c 0E33     		add	r3, r3, #14	@ tmp566,
 2520 055e 1B78     		ldrb	r3, [r3]	@ tmp567, resp_down
 2521 0560 042B     		cmp	r3, #4	@ tmp567,
 2522 0562 00D0     		beq	.LCB2027	@
 2523 0564 04E3     		b	.L228	@long jump	@
 2524              	.LCB2027:
 761:.\src/grouped.c **** 				resp = RESP_WORKING;
 2525              		.loc 1 761 0
 2526 0566 6B46     		mov	r3, sp	@ tmp568,
 2527 0568 0F33     		add	r3, r3, #15	@ tmp568,
 2528 056a 0422     		mov	r2, #4	@ tmp569,
 2529 056c 1A70     		strb	r2, [r3]	@ tmp570, resp
 2530              		.loc 1 763 0
 2531 056e FFE2     		b	.L228	@
 2532              	.L122:
 764:.\src/grouped.c **** 
 765:.\src/grouped.c **** 		case GROUPED_MENU_MOV_SENS_SELECTED:
 766:.\src/grouped.c **** 			if (GroupedStruct_local.move_sensor_enable)
 2533              		.loc 1 766 0
 2534 0570 8A4B     		ldr	r3, .L241+4	@ tmp571,
 2535 0572 1B78     		ldrb	r3, [r3]	@ D.5982,
 2536 0574 002B     		cmp	r3, #0	@ D.5982,
 2537 0576 04D0     		beq	.L187	@,
 767:.\src/grouped.c **** 				resp_down = 0x80;
 2538              		.loc 1 767 0
 2539 0578 6B46     		mov	r3, sp	@ tmp572,
 2540 057a 0E33     		add	r3, r3, #14	@ tmp572,
 2541 057c 8022     		mov	r2, #128	@ tmp573,
 2542 057e 1A70     		strb	r2, [r3]	@ tmp574, resp_down
 2543 0580 03E0     		b	.L188	@
 2544              	.L187:
 768:.\src/grouped.c **** 			else
 769:.\src/grouped.c **** 				resp_down = 0x81;
 2545              		.loc 1 769 0
 2546 0582 6B46     		mov	r3, sp	@ tmp575,
 2547 0584 0E33     		add	r3, r3, #14	@ tmp575,
 2548 0586 8122     		mov	r2, #129	@ tmp576,
 2549 0588 1A70     		strb	r2, [r3]	@ tmp577, resp_down
 2550              	.L188:
 770:.\src/grouped.c **** 
 771:.\src/grouped.c **** 			FuncOptions ((const char *) "on   off   back ", (const char *) s_blank_line, (unsigned char *)s_
 2551              		.loc 1 771 0
 2552 058a 8549     		ldr	r1, .L241+8	@ tmp578,
 2553 058c 854A     		ldr	r2, .L241+12	@ tmp579,
 2554 058e 864B     		ldr	r3, .L241+16	@ tmp580,
 2555 0590 6846     		mov	r0, sp	@ tmp581,
ARM GAS  C:\Users\Mariano\AppData\Local\Temp\ccqsEEdp.s 			page 62


 2556 0592 0E30     		add	r0, r0, #14	@ tmp581,
 2557 0594 0078     		ldrb	r0, [r0]	@ tmp582, resp_down
 2558 0596 0090     		str	r0, [sp]	@ tmp582,
 2559 0598 081C     		mov	r0, r1	@, tmp578
 2560 059a 111C     		mov	r1, r2	@, tmp579
 2561 059c 1A1C     		mov	r2, r3	@, tmp580
 2562 059e 0323     		mov	r3, #3	@,
 2563 05a0 FFF7FEFF 		bl	FuncOptions	@
 772:.\src/grouped.c **** 			grouped_menu_state++;
 2564              		.loc 1 772 0
 2565 05a4 7C4B     		ldr	r3, .L241	@ tmp583,
 2566 05a6 1B78     		ldrb	r3, [r3]	@ grouped_menu_state.9, grouped_menu_state
 2567 05a8 0133     		add	r3, r3, #1	@ tmp584,
 2568 05aa DAB2     		uxtb	r2, r3	@ grouped_menu_state.10, tmp584
 2569 05ac 7A4B     		ldr	r3, .L241	@ tmp585,
 2570 05ae 1A70     		strb	r2, [r3]	@ tmp586, grouped_menu_state
 773:.\src/grouped.c **** 			break;
 2571              		.loc 1 773 0
 2572 05b0 F3E2     		b	.L148	@
 2573              	.L123:
 774:.\src/grouped.c **** 
 775:.\src/grouped.c **** 		case GROUPED_MENU_MOV_SENS_SELECTED_1:
 776:.\src/grouped.c **** 			resp_down = FuncOptions ((const char *) "on   off   back ", (const char *) s_blank_line, (unsign
 2574              		.loc 1 776 0
 2575 05b2 6C46     		mov	r4, sp	@ tmp587,
 2576 05b4 0E34     		add	r4, r4, #14	@ tmp587,
 2577 05b6 7A49     		ldr	r1, .L241+8	@ tmp588,
 2578 05b8 7A4A     		ldr	r2, .L241+12	@ tmp589,
 2579 05ba 7B4B     		ldr	r3, .L241+16	@ tmp590,
 2580 05bc 0020     		mov	r0, #0	@ tmp591,
 2581 05be 0090     		str	r0, [sp]	@ tmp591,
 2582 05c0 081C     		mov	r0, r1	@, tmp588
 2583 05c2 111C     		mov	r1, r2	@, tmp589
 2584 05c4 1A1C     		mov	r2, r3	@, tmp590
 2585 05c6 0323     		mov	r3, #3	@,
 2586 05c8 FFF7FEFF 		bl	FuncOptions	@
 2587 05cc 031C     		mov	r3, r0	@ tmp592,
 2588 05ce 2370     		strb	r3, [r4]	@ tmp594, resp_down
 777:.\src/grouped.c **** 
 778:.\src/grouped.c **** 			if ((resp_down & 0x0f) == RESP_SELECTED)
 2589              		.loc 1 778 0
 2590 05d0 6B46     		mov	r3, sp	@ tmp595,
 2591 05d2 0E33     		add	r3, r3, #14	@ tmp595,
 2592 05d4 1A78     		ldrb	r2, [r3]	@ D.5988, resp_down
 2593 05d6 0F23     		mov	r3, #15	@ tmp596,
 2594 05d8 1340     		and	r3, r2	@ D.5989, D.5988
 2595 05da 012B     		cmp	r3, #1	@ D.5989,
 2596 05dc 00D0     		beq	.LCB2096	@
 2597 05de C9E2     		b	.L229	@long jump	@
 2598              	.LCB2096:
 779:.\src/grouped.c **** 			{
 780:.\src/grouped.c **** 				resp_down = resp_down & 0xf0;
 2599              		.loc 1 780 0
 2600 05e0 6B46     		mov	r3, sp	@ tmp597,
 2601 05e2 0E33     		add	r3, r3, #14	@ tmp597,
 2602 05e4 6A46     		mov	r2, sp	@ tmp598,
 2603 05e6 0E32     		add	r2, r2, #14	@ tmp598,
ARM GAS  C:\Users\Mariano\AppData\Local\Temp\ccqsEEdp.s 			page 63


 2604 05e8 1278     		ldrb	r2, [r2]	@ tmp599, resp_down
 2605 05ea 0F21     		mov	r1, #15	@ tmp601,
 2606 05ec 8A43     		bic	r2, r1	@ tmp600, tmp601
 2607 05ee 1A70     		strb	r2, [r3]	@ tmp602, resp_down
 781:.\src/grouped.c **** 				resp_down >>= 4;
 2608              		.loc 1 781 0
 2609 05f0 6B46     		mov	r3, sp	@ tmp603,
 2610 05f2 0E33     		add	r3, r3, #14	@ tmp603,
 2611 05f4 6A46     		mov	r2, sp	@ tmp604,
 2612 05f6 0E32     		add	r2, r2, #14	@ tmp604,
 2613 05f8 1278     		ldrb	r2, [r2]	@ tmp605, resp_down
 2614 05fa 1209     		lsr	r2, r2, #4	@ tmp606, tmp605,
 2615 05fc 1A70     		strb	r2, [r3]	@ tmp607, resp_down
 782:.\src/grouped.c **** 				if (resp_down == 0)
 2616              		.loc 1 782 0
 2617 05fe 6B46     		mov	r3, sp	@ tmp608,
 2618 0600 0E33     		add	r3, r3, #14	@ tmp608,
 2619 0602 1B78     		ldrb	r3, [r3]	@ tmp609, resp_down
 2620 0604 002B     		cmp	r3, #0	@ tmp609,
 2621 0606 02D1     		bne	.L190	@,
 783:.\src/grouped.c **** 				{
 784:.\src/grouped.c **** 					GroupedStruct_local.move_sensor_enable = 1;
 2622              		.loc 1 784 0
 2623 0608 644B     		ldr	r3, .L241+4	@ tmp610,
 2624 060a 0122     		mov	r2, #1	@ tmp611,
 2625 060c 1A70     		strb	r2, [r3]	@ tmp612, GroupedStruct_local.move_sensor_enable
 2626              	.L190:
 785:.\src/grouped.c **** 				}
 786:.\src/grouped.c **** 
 787:.\src/grouped.c **** 				if (resp_down == 1)
 2627              		.loc 1 787 0
 2628 060e 6B46     		mov	r3, sp	@ tmp613,
 2629 0610 0E33     		add	r3, r3, #14	@ tmp613,
 2630 0612 1B78     		ldrb	r3, [r3]	@ tmp614, resp_down
 2631 0614 012B     		cmp	r3, #1	@ tmp614,
 2632 0616 02D1     		bne	.L191	@,
 788:.\src/grouped.c **** 				{
 789:.\src/grouped.c **** 					GroupedStruct_local.move_sensor_enable = 0;
 2633              		.loc 1 789 0
 2634 0618 604B     		ldr	r3, .L241+4	@ tmp615,
 2635 061a 0022     		mov	r2, #0	@ tmp616,
 2636 061c 1A70     		strb	r2, [r3]	@ tmp617, GroupedStruct_local.move_sensor_enable
 2637              	.L191:
 790:.\src/grouped.c **** 				}
 791:.\src/grouped.c **** 
 792:.\src/grouped.c **** 				if (resp_down == 2)
 2638              		.loc 1 792 0
 2639 061e 6B46     		mov	r3, sp	@ tmp618,
 2640 0620 0E33     		add	r3, r3, #14	@ tmp618,
 2641 0622 1B78     		ldrb	r3, [r3]	@ tmp619, resp_down
 2642 0624 022B     		cmp	r3, #2	@ tmp619,
 2643 0626 11D1     		bne	.L192	@,
 793:.\src/grouped.c **** 				{
 794:.\src/grouped.c **** 					resp = RESP_WORKING;
 2644              		.loc 1 794 0
 2645 0628 6B46     		mov	r3, sp	@ tmp620,
 2646 062a 0F33     		add	r3, r3, #15	@ tmp620,
ARM GAS  C:\Users\Mariano\AppData\Local\Temp\ccqsEEdp.s 			page 64


 2647 062c 0422     		mov	r2, #4	@ tmp621,
 2648 062e 1A70     		strb	r2, [r3]	@ tmp622, resp
 795:.\src/grouped.c **** 					grouped_menu_state++;
 2649              		.loc 1 795 0
 2650 0630 594B     		ldr	r3, .L241	@ tmp623,
 2651 0632 1B78     		ldrb	r3, [r3]	@ grouped_menu_state.11, grouped_menu_state
 2652 0634 0133     		add	r3, r3, #1	@ tmp624,
 2653 0636 DAB2     		uxtb	r2, r3	@ grouped_menu_state.12, tmp624
 2654 0638 574B     		ldr	r3, .L241	@ tmp625,
 2655 063a 1A70     		strb	r2, [r3]	@ tmp626, grouped_menu_state
 796:.\src/grouped.c **** 					LCD_1ER_RENGLON;
 2656              		.loc 1 796 0
 2657 063c 0020     		mov	r0, #0	@,
 2658 063e FFF7FEFF 		bl	Lcd_SetDDRAM	@
 797:.\src/grouped.c **** 					LCDTransmitStr((const char *) "wait to free    ");
 2659              		.loc 1 797 0
 2660 0642 5A4B     		ldr	r3, .L241+20	@ tmp627,
 2661 0644 181C     		mov	r0, r3	@, tmp627
 2662 0646 FFF7FEFF 		bl	LCDTransmitStr	@
 798:.\src/grouped.c **** 				}
 799:.\src/grouped.c **** 				else
 800:.\src/grouped.c **** 				{
 801:.\src/grouped.c **** 					resp = RESP_SELECTED;
 802:.\src/grouped.c **** 					grouped_menu_state = GROUPED_MENU_MOV_SENS;
 803:.\src/grouped.c **** 				}
 804:.\src/grouped.c **** 			}
 805:.\src/grouped.c **** 			break;
 2663              		.loc 1 805 0
 2664 064a 93E2     		b	.L229	@
 2665              	.L192:
 801:.\src/grouped.c **** 					resp = RESP_SELECTED;
 2666              		.loc 1 801 0
 2667 064c 6B46     		mov	r3, sp	@ tmp628,
 2668 064e 0F33     		add	r3, r3, #15	@ tmp628,
 2669 0650 0122     		mov	r2, #1	@ tmp629,
 2670 0652 1A70     		strb	r2, [r3]	@ tmp630, resp
 802:.\src/grouped.c **** 					grouped_menu_state = GROUPED_MENU_MOV_SENS;
 2671              		.loc 1 802 0
 2672 0654 504B     		ldr	r3, .L241	@ tmp631,
 2673 0656 0122     		mov	r2, #1	@ tmp632,
 2674 0658 1A70     		strb	r2, [r3]	@ tmp633, grouped_menu_state
 2675              		.loc 1 805 0
 2676 065a 8BE2     		b	.L229	@
 2677              	.L124:
 806:.\src/grouped.c **** 
 807:.\src/grouped.c **** 		case GROUPED_MENU_MOV_SENS_SELECTED_2:
 808:.\src/grouped.c **** 			if (CheckS2() == S_NO)
 2678              		.loc 1 808 0
 2679 065c FFF7FEFF 		bl	CheckS2	@
 2680 0660 031C     		mov	r3, r0	@ tmp634,
 2681 0662 002B     		cmp	r3, #0	@ D.6001,
 2682 0664 02D1     		bne	.L193	@,
 809:.\src/grouped.c **** 				grouped_menu_state = GROUPED_MENU_MOV_SENS;
 2683              		.loc 1 809 0
 2684 0666 4C4B     		ldr	r3, .L241	@ tmp636,
 2685 0668 0122     		mov	r2, #1	@ tmp637,
 2686 066a 1A70     		strb	r2, [r3]	@ tmp638, grouped_menu_state
ARM GAS  C:\Users\Mariano\AppData\Local\Temp\ccqsEEdp.s 			page 65


 2687              	.L193:
 810:.\src/grouped.c **** 
 811:.\src/grouped.c **** 			resp = RESP_WORKING;
 2688              		.loc 1 811 0
 2689 066c 6B46     		mov	r3, sp	@ tmp639,
 2690 066e 0F33     		add	r3, r3, #15	@ tmp639,
 2691 0670 0422     		mov	r2, #4	@ tmp640,
 2692 0672 1A70     		strb	r2, [r3]	@ tmp641, resp
 812:.\src/grouped.c **** 			break;
 2693              		.loc 1 812 0
 2694 0674 91E2     		b	.L148	@
 2695              	.L125:
 813:.\src/grouped.c **** 
 814:.\src/grouped.c **** 		case GROUPED_MENU_LDR_SELECTED:
 815:.\src/grouped.c **** 			if (GroupedStruct_local.ldr_enable)
 2696              		.loc 1 815 0
 2697 0676 494B     		ldr	r3, .L241+4	@ tmp642,
 2698 0678 5B78     		ldrb	r3, [r3, #1]	@ D.6004,
 2699 067a 002B     		cmp	r3, #0	@ D.6004,
 2700 067c 04D0     		beq	.L194	@,
 816:.\src/grouped.c **** 				resp_down = 0x80;
 2701              		.loc 1 816 0
 2702 067e 6B46     		mov	r3, sp	@ tmp643,
 2703 0680 0E33     		add	r3, r3, #14	@ tmp643,
 2704 0682 8022     		mov	r2, #128	@ tmp644,
 2705 0684 1A70     		strb	r2, [r3]	@ tmp645, resp_down
 2706 0686 03E0     		b	.L195	@
 2707              	.L194:
 817:.\src/grouped.c **** 			else
 818:.\src/grouped.c **** 				resp_down = 0x81;
 2708              		.loc 1 818 0
 2709 0688 6B46     		mov	r3, sp	@ tmp646,
 2710 068a 0E33     		add	r3, r3, #14	@ tmp646,
 2711 068c 8122     		mov	r2, #129	@ tmp647,
 2712 068e 1A70     		strb	r2, [r3]	@ tmp648, resp_down
 2713              	.L195:
 819:.\src/grouped.c **** 
 820:.\src/grouped.c **** 			FuncOptions ((const char *) "on   off   back ", (const char *)s_blank_line,(unsigned char *) s_s
 2714              		.loc 1 820 0
 2715 0690 4349     		ldr	r1, .L241+8	@ tmp649,
 2716 0692 444A     		ldr	r2, .L241+12	@ tmp650,
 2717 0694 444B     		ldr	r3, .L241+16	@ tmp651,
 2718 0696 6846     		mov	r0, sp	@ tmp652,
 2719 0698 0E30     		add	r0, r0, #14	@ tmp652,
 2720 069a 0078     		ldrb	r0, [r0]	@ tmp653, resp_down
 2721 069c 0090     		str	r0, [sp]	@ tmp653,
 2722 069e 081C     		mov	r0, r1	@, tmp649
 2723 06a0 111C     		mov	r1, r2	@, tmp650
 2724 06a2 1A1C     		mov	r2, r3	@, tmp651
 2725 06a4 0323     		mov	r3, #3	@,
 2726 06a6 FFF7FEFF 		bl	FuncOptions	@
 821:.\src/grouped.c **** 			grouped_menu_state++;
 2727              		.loc 1 821 0
 2728 06aa 3B4B     		ldr	r3, .L241	@ tmp654,
 2729 06ac 1B78     		ldrb	r3, [r3]	@ grouped_menu_state.13, grouped_menu_state
 2730 06ae 0133     		add	r3, r3, #1	@ tmp655,
 2731 06b0 DAB2     		uxtb	r2, r3	@ grouped_menu_state.14, tmp655
ARM GAS  C:\Users\Mariano\AppData\Local\Temp\ccqsEEdp.s 			page 66


 2732 06b2 394B     		ldr	r3, .L241	@ tmp656,
 2733 06b4 1A70     		strb	r2, [r3]	@ tmp657, grouped_menu_state
 822:.\src/grouped.c **** 			break;
 2734              		.loc 1 822 0
 2735 06b6 70E2     		b	.L148	@
 2736              	.L126:
 823:.\src/grouped.c **** 
 824:.\src/grouped.c **** 		case GROUPED_MENU_LDR_SELECTED_1:
 825:.\src/grouped.c **** 			resp_down = FuncOptions ((const char *) "on   off   back ", (const char *)s_blank_line, (unsigne
 2737              		.loc 1 825 0
 2738 06b8 6C46     		mov	r4, sp	@ tmp658,
 2739 06ba 0E34     		add	r4, r4, #14	@ tmp658,
 2740 06bc 3849     		ldr	r1, .L241+8	@ tmp659,
 2741 06be 394A     		ldr	r2, .L241+12	@ tmp660,
 2742 06c0 394B     		ldr	r3, .L241+16	@ tmp661,
 2743 06c2 0020     		mov	r0, #0	@ tmp662,
 2744 06c4 0090     		str	r0, [sp]	@ tmp662,
 2745 06c6 081C     		mov	r0, r1	@, tmp659
 2746 06c8 111C     		mov	r1, r2	@, tmp660
 2747 06ca 1A1C     		mov	r2, r3	@, tmp661
 2748 06cc 0323     		mov	r3, #3	@,
 2749 06ce FFF7FEFF 		bl	FuncOptions	@
 2750 06d2 031C     		mov	r3, r0	@ tmp663,
 2751 06d4 2370     		strb	r3, [r4]	@ tmp665, resp_down
 826:.\src/grouped.c **** 
 827:.\src/grouped.c **** 			if ((resp_down & 0x0f) == RESP_SELECTED)
 2752              		.loc 1 827 0
 2753 06d6 6B46     		mov	r3, sp	@ tmp666,
 2754 06d8 0E33     		add	r3, r3, #14	@ tmp666,
 2755 06da 1A78     		ldrb	r2, [r3]	@ D.6010, resp_down
 2756 06dc 0F23     		mov	r3, #15	@ tmp667,
 2757 06de 1340     		and	r3, r2	@ D.6011, D.6010
 2758 06e0 012B     		cmp	r3, #1	@ D.6011,
 2759 06e2 00D0     		beq	.LCB2244	@
 2760 06e4 48E2     		b	.L230	@long jump	@
 2761              	.LCB2244:
 828:.\src/grouped.c **** 			{
 829:.\src/grouped.c **** 				resp_down = resp_down & 0xf0;
 2762              		.loc 1 829 0
 2763 06e6 6B46     		mov	r3, sp	@ tmp668,
 2764 06e8 0E33     		add	r3, r3, #14	@ tmp668,
 2765 06ea 6A46     		mov	r2, sp	@ tmp669,
 2766 06ec 0E32     		add	r2, r2, #14	@ tmp669,
 2767 06ee 1278     		ldrb	r2, [r2]	@ tmp670, resp_down
 2768 06f0 0F21     		mov	r1, #15	@ tmp672,
 2769 06f2 8A43     		bic	r2, r1	@ tmp671, tmp672
 2770 06f4 1A70     		strb	r2, [r3]	@ tmp673, resp_down
 830:.\src/grouped.c **** 				resp_down >>= 4;
 2771              		.loc 1 830 0
 2772 06f6 6B46     		mov	r3, sp	@ tmp674,
 2773 06f8 0E33     		add	r3, r3, #14	@ tmp674,
 2774 06fa 6A46     		mov	r2, sp	@ tmp675,
 2775 06fc 0E32     		add	r2, r2, #14	@ tmp675,
 2776 06fe 1278     		ldrb	r2, [r2]	@ tmp676, resp_down
 2777 0700 1209     		lsr	r2, r2, #4	@ tmp677, tmp676,
 2778 0702 1A70     		strb	r2, [r3]	@ tmp678, resp_down
 831:.\src/grouped.c **** 				if (resp_down == 0)
ARM GAS  C:\Users\Mariano\AppData\Local\Temp\ccqsEEdp.s 			page 67


 2779              		.loc 1 831 0
 2780 0704 6B46     		mov	r3, sp	@ tmp679,
 2781 0706 0E33     		add	r3, r3, #14	@ tmp679,
 2782 0708 1B78     		ldrb	r3, [r3]	@ tmp680, resp_down
 2783 070a 002B     		cmp	r3, #0	@ tmp680,
 2784 070c 0FD1     		bne	.L197	@,
 832:.\src/grouped.c **** 				{
 833:.\src/grouped.c **** 					GroupedStruct_local.ldr_enable = 1;
 2785              		.loc 1 833 0
 2786 070e 234B     		ldr	r3, .L241+4	@ tmp681,
 2787 0710 0122     		mov	r2, #1	@ tmp682,
 2788 0712 5A70     		strb	r2, [r3, #1]	@ tmp683, GroupedStruct_local.ldr_enable
 834:.\src/grouped.c **** 					grouped_menu_state++;
 2789              		.loc 1 834 0
 2790 0714 204B     		ldr	r3, .L241	@ tmp684,
 2791 0716 1B78     		ldrb	r3, [r3]	@ grouped_menu_state.15, grouped_menu_state
 2792 0718 0133     		add	r3, r3, #1	@ tmp685,
 2793 071a DAB2     		uxtb	r2, r3	@ grouped_menu_state.16, tmp685
 2794 071c 1E4B     		ldr	r3, .L241	@ tmp686,
 2795 071e 1A70     		strb	r2, [r3]	@ tmp687, grouped_menu_state
 835:.\src/grouped.c **** 					LCD_1ER_RENGLON;
 2796              		.loc 1 835 0
 2797 0720 0020     		mov	r0, #0	@,
 2798 0722 FFF7FEFF 		bl	Lcd_SetDDRAM	@
 836:.\src/grouped.c **** 					LCDTransmitStr((const char *) "wait to free    ");
 2799              		.loc 1 836 0
 2800 0726 214B     		ldr	r3, .L241+20	@ tmp688,
 2801 0728 181C     		mov	r0, r3	@, tmp688
 2802 072a FFF7FEFF 		bl	LCDTransmitStr	@
 2803              	.L197:
 837:.\src/grouped.c **** 				}
 838:.\src/grouped.c **** 
 839:.\src/grouped.c **** 				if (resp_down == 1)
 2804              		.loc 1 839 0
 2805 072e 6B46     		mov	r3, sp	@ tmp689,
 2806 0730 0E33     		add	r3, r3, #14	@ tmp689,
 2807 0732 1B78     		ldrb	r3, [r3]	@ tmp690, resp_down
 2808 0734 012B     		cmp	r3, #1	@ tmp690,
 2809 0736 09D1     		bne	.L198	@,
 840:.\src/grouped.c **** 				{
 841:.\src/grouped.c **** 					GroupedStruct_local.ldr_enable = 0;
 2810              		.loc 1 841 0
 2811 0738 184B     		ldr	r3, .L241+4	@ tmp691,
 2812 073a 0022     		mov	r2, #0	@ tmp692,
 2813 073c 5A70     		strb	r2, [r3, #1]	@ tmp693, GroupedStruct_local.ldr_enable
 842:.\src/grouped.c **** 					resp = RESP_SELECTED;
 2814              		.loc 1 842 0
 2815 073e 6B46     		mov	r3, sp	@ tmp694,
 2816 0740 0F33     		add	r3, r3, #15	@ tmp694,
 2817 0742 0122     		mov	r2, #1	@ tmp695,
 2818 0744 1A70     		strb	r2, [r3]	@ tmp696, resp
 843:.\src/grouped.c **** 					grouped_menu_state = GROUPED_MENU_LDR;
 2819              		.loc 1 843 0
 2820 0746 144B     		ldr	r3, .L241	@ tmp697,
 2821 0748 0222     		mov	r2, #2	@ tmp698,
 2822 074a 1A70     		strb	r2, [r3]	@ tmp699, grouped_menu_state
 2823              	.L198:
ARM GAS  C:\Users\Mariano\AppData\Local\Temp\ccqsEEdp.s 			page 68


 844:.\src/grouped.c **** 				}
 845:.\src/grouped.c **** 
 846:.\src/grouped.c **** 				if (resp_down == 2)
 2824              		.loc 1 846 0
 2825 074c 6B46     		mov	r3, sp	@ tmp700,
 2826 074e 0E33     		add	r3, r3, #14	@ tmp700,
 2827 0750 1B78     		ldrb	r3, [r3]	@ tmp701, resp_down
 2828 0752 022B     		cmp	r3, #2	@ tmp701,
 2829 0754 00D0     		beq	.LCB2302	@
 2830 0756 0FE2     		b	.L230	@long jump	@
 2831              	.LCB2302:
 847:.\src/grouped.c **** 				{
 848:.\src/grouped.c **** 					resp = RESP_WORKING;
 2832              		.loc 1 848 0
 2833 0758 6B46     		mov	r3, sp	@ tmp702,
 2834 075a 0F33     		add	r3, r3, #15	@ tmp702,
 2835 075c 0422     		mov	r2, #4	@ tmp703,
 2836 075e 1A70     		strb	r2, [r3]	@ tmp704, resp
 849:.\src/grouped.c **** 					grouped_menu_state = GROUPED_MENU_LDR_SELECTED_4;
 2837              		.loc 1 849 0
 2838 0760 0D4B     		ldr	r3, .L241	@ tmp705,
 2839 0762 1122     		mov	r2, #17	@ tmp706,
 2840 0764 1A70     		strb	r2, [r3]	@ tmp707, grouped_menu_state
 850:.\src/grouped.c **** 					LCD_1ER_RENGLON;
 2841              		.loc 1 850 0
 2842 0766 0020     		mov	r0, #0	@,
 2843 0768 FFF7FEFF 		bl	Lcd_SetDDRAM	@
 851:.\src/grouped.c **** 					LCDTransmitStr((const char *) "wait to free    ");
 2844              		.loc 1 851 0
 2845 076c 0F4B     		ldr	r3, .L241+20	@ tmp708,
 2846 076e 181C     		mov	r0, r3	@, tmp708
 2847 0770 FFF7FEFF 		bl	LCDTransmitStr	@
 852:.\src/grouped.c **** 				}
 853:.\src/grouped.c **** 			}
 854:.\src/grouped.c **** 			break;
 2848              		.loc 1 854 0
 2849 0774 00E2     		b	.L230	@
 2850              	.L127:
 855:.\src/grouped.c **** 
 856:.\src/grouped.c **** 		case GROUPED_MENU_LDR_SELECTED_2:
 857:.\src/grouped.c **** 			if (CheckS2() == S_NO)
 2851              		.loc 1 857 0
 2852 0776 FFF7FEFF 		bl	CheckS2	@
 2853 077a 031C     		mov	r3, r0	@ tmp709,
 2854 077c 002B     		cmp	r3, #0	@ D.6022,
 2855 077e 05D1     		bne	.L199	@,
 858:.\src/grouped.c **** 				grouped_menu_state++;
 2856              		.loc 1 858 0
 2857 0780 054B     		ldr	r3, .L241	@ tmp711,
 2858 0782 1B78     		ldrb	r3, [r3]	@ grouped_menu_state.17, grouped_menu_state
 2859 0784 0133     		add	r3, r3, #1	@ tmp712,
 2860 0786 DAB2     		uxtb	r2, r3	@ grouped_menu_state.18, tmp712
 2861 0788 034B     		ldr	r3, .L241	@ tmp713,
 2862 078a 1A70     		strb	r2, [r3]	@ tmp714, grouped_menu_state
 2863              	.L199:
 859:.\src/grouped.c **** 
 860:.\src/grouped.c **** 			resp = RESP_WORKING;
ARM GAS  C:\Users\Mariano\AppData\Local\Temp\ccqsEEdp.s 			page 69


 2864              		.loc 1 860 0
 2865 078c 6B46     		mov	r3, sp	@ tmp715,
 2866 078e 0F33     		add	r3, r3, #15	@ tmp715,
 2867 0790 0422     		mov	r2, #4	@ tmp716,
 2868 0792 1A70     		strb	r2, [r3]	@ tmp717, resp
 861:.\src/grouped.c **** 			break;
 2869              		.loc 1 861 0
 2870 0794 01E2     		b	.L148	@
 2871              	.L242:
 2872 0796 C046     		.align	2
 2873              	.L241:
 2874 0798 00000000 		.word	grouped_menu_state
 2875 079c 00000000 		.word	GroupedStruct_local
 2876 07a0 84010000 		.word	.LC67
 2877 07a4 00000000 		.word	s_blank_line
 2878 07a8 00000000 		.word	s_sel_g
 2879 07ac A0000000 		.word	.LC39
 2880 07b0 0E000000 		.word	GroupedStruct_local+14
 2881              	.L128:
 862:.\src/grouped.c **** 
 863:.\src/grouped.c **** 		case GROUPED_MENU_LDR_SELECTED_3:
 864:.\src/grouped.c **** 			//resp_down = FuncChange (&GroupedStruct_local.ldr_value);
 865:.\src/grouped.c **** 			resp_down = FuncChangePercent (&GroupedStruct_local.ldr_value);
 2882              		.loc 1 865 0
 2883 07b4 6C46     		mov	r4, sp	@ tmp718,
 2884 07b6 0E34     		add	r4, r4, #14	@ tmp718,
 2885 07b8 E04B     		ldr	r3, .L243	@ tmp719,
 2886 07ba 181C     		mov	r0, r3	@, tmp719
 2887 07bc 0021     		mov	r1, #0	@,
 2888 07be 0022     		mov	r2, #0	@,
 2889 07c0 6423     		mov	r3, #100	@,
 2890 07c2 FFF7FEFF 		bl	FuncChange	@
 2891 07c6 031C     		mov	r3, r0	@ tmp720,
 2892 07c8 2370     		strb	r3, [r4]	@ tmp722, resp_down
 866:.\src/grouped.c **** 
 867:.\src/grouped.c **** 			if (resp_down == RESP_FINISH)
 2893              		.loc 1 867 0
 2894 07ca 6B46     		mov	r3, sp	@ tmp723,
 2895 07cc 0E33     		add	r3, r3, #14	@ tmp723,
 2896 07ce 1B78     		ldrb	r3, [r3]	@ tmp724, resp_down
 2897 07d0 0A2B     		cmp	r3, #10	@ tmp724,
 2898 07d2 03D1     		bne	.L200	@,
 868:.\src/grouped.c **** 				grouped_menu_state = GROUPED_MENU_LDR_SELECTED_5;
 2899              		.loc 1 868 0
 2900 07d4 DA4B     		ldr	r3, .L243+4	@ tmp725,
 2901 07d6 1222     		mov	r2, #18	@ tmp726,
 2902 07d8 1A70     		strb	r2, [r3]	@ tmp727, grouped_menu_state
 869:.\src/grouped.c **** 			else if (resp_down == RESP_WORKING)
 870:.\src/grouped.c **** 				resp = RESP_WORKING;
 871:.\src/grouped.c **** 
 872:.\src/grouped.c **** 			break;
 2903              		.loc 1 872 0
 2904 07da CFE1     		b	.L231	@
 2905              	.L200:
 869:.\src/grouped.c **** 			else if (resp_down == RESP_WORKING)
 2906              		.loc 1 869 0
 2907 07dc 6B46     		mov	r3, sp	@ tmp728,
ARM GAS  C:\Users\Mariano\AppData\Local\Temp\ccqsEEdp.s 			page 70


 2908 07de 0E33     		add	r3, r3, #14	@ tmp728,
 2909 07e0 1B78     		ldrb	r3, [r3]	@ tmp729, resp_down
 2910 07e2 042B     		cmp	r3, #4	@ tmp729,
 2911 07e4 00D0     		beq	.LCB2377	@
 2912 07e6 C9E1     		b	.L231	@long jump	@
 2913              	.LCB2377:
 870:.\src/grouped.c **** 				resp = RESP_WORKING;
 2914              		.loc 1 870 0
 2915 07e8 6B46     		mov	r3, sp	@ tmp730,
 2916 07ea 0F33     		add	r3, r3, #15	@ tmp730,
 2917 07ec 0422     		mov	r2, #4	@ tmp731,
 2918 07ee 1A70     		strb	r2, [r3]	@ tmp732, resp
 2919              		.loc 1 872 0
 2920 07f0 C4E1     		b	.L231	@
 2921              	.L129:
 873:.\src/grouped.c **** 
 874:.\src/grouped.c **** 		case GROUPED_MENU_LDR_SELECTED_4:
 875:.\src/grouped.c **** 			if (CheckS2() == S_NO)
 2922              		.loc 1 875 0
 2923 07f2 FFF7FEFF 		bl	CheckS2	@
 2924 07f6 031C     		mov	r3, r0	@ tmp733,
 2925 07f8 002B     		cmp	r3, #0	@ D.6032,
 2926 07fa 02D1     		bne	.L202	@,
 876:.\src/grouped.c **** 				grouped_menu_state = GROUPED_MENU_LDR;
 2927              		.loc 1 876 0
 2928 07fc D04B     		ldr	r3, .L243+4	@ tmp735,
 2929 07fe 0222     		mov	r2, #2	@ tmp736,
 2930 0800 1A70     		strb	r2, [r3]	@ tmp737, grouped_menu_state
 2931              	.L202:
 877:.\src/grouped.c **** 
 878:.\src/grouped.c **** 			resp = RESP_WORKING;
 2932              		.loc 1 878 0
 2933 0802 6B46     		mov	r3, sp	@ tmp738,
 2934 0804 0F33     		add	r3, r3, #15	@ tmp738,
 2935 0806 0422     		mov	r2, #4	@ tmp739,
 2936 0808 1A70     		strb	r2, [r3]	@ tmp740, resp
 879:.\src/grouped.c **** 			break;
 2937              		.loc 1 879 0
 2938 080a C6E1     		b	.L148	@
 2939              	.L130:
 880:.\src/grouped.c **** 
 881:.\src/grouped.c **** 		case GROUPED_MENU_LDR_SELECTED_5:
 882:.\src/grouped.c **** 			resp = RESP_WORKING;
 2940              		.loc 1 882 0
 2941 080c 6B46     		mov	r3, sp	@ tmp741,
 2942 080e 0F33     		add	r3, r3, #15	@ tmp741,
 2943 0810 0422     		mov	r2, #4	@ tmp742,
 2944 0812 1A70     		strb	r2, [r3]	@ tmp743, resp
 883:.\src/grouped.c **** 			if (CheckS2() == S_NO)
 2945              		.loc 1 883 0
 2946 0814 FFF7FEFF 		bl	CheckS2	@
 2947 0818 031C     		mov	r3, r0	@ tmp744,
 2948 081a 002B     		cmp	r3, #0	@ D.6035,
 2949 081c 00D0     		beq	.LCB2410	@
 2950 081e AFE1     		b	.L232	@long jump	@
 2951              	.LCB2410:
 884:.\src/grouped.c **** 			{
ARM GAS  C:\Users\Mariano\AppData\Local\Temp\ccqsEEdp.s 			page 71


 885:.\src/grouped.c **** 				grouped_menu_state = GROUPED_MENU_LDR;
 2952              		.loc 1 885 0
 2953 0820 C74B     		ldr	r3, .L243+4	@ tmp746,
 2954 0822 0222     		mov	r2, #2	@ tmp747,
 2955 0824 1A70     		strb	r2, [r3]	@ tmp748, grouped_menu_state
 886:.\src/grouped.c **** 				resp = RESP_SELECTED;
 2956              		.loc 1 886 0
 2957 0826 6B46     		mov	r3, sp	@ tmp749,
 2958 0828 0F33     		add	r3, r3, #15	@ tmp749,
 2959 082a 0122     		mov	r2, #1	@ tmp750,
 2960 082c 1A70     		strb	r2, [r3]	@ tmp751, resp
 887:.\src/grouped.c **** 			}
 888:.\src/grouped.c **** 			break;
 2961              		.loc 1 888 0
 2962 082e A7E1     		b	.L232	@
 2963              	.L131:
 889:.\src/grouped.c **** 
 890:.\src/grouped.c **** 		case GROUPED_MENU_MAX_DIMMING_SELECTED:
 891:.\src/grouped.c **** 			resp_down = FuncChangePercent (&GroupedStruct_local.max_dimmer_value_percent);
 2964              		.loc 1 891 0
 2965 0830 6C46     		mov	r4, sp	@ tmp752,
 2966 0832 0E34     		add	r4, r4, #14	@ tmp752,
 2967 0834 C34B     		ldr	r3, .L243+8	@ tmp753,
 2968 0836 181C     		mov	r0, r3	@, tmp753
 2969 0838 0021     		mov	r1, #0	@,
 2970 083a 0022     		mov	r2, #0	@,
 2971 083c 6423     		mov	r3, #100	@,
 2972 083e FFF7FEFF 		bl	FuncChange	@
 2973 0842 031C     		mov	r3, r0	@ tmp754,
 2974 0844 2370     		strb	r3, [r4]	@ tmp756, resp_down
 892:.\src/grouped.c **** 
 893:.\src/grouped.c **** 			if (resp_down == RESP_FINISH)
 2975              		.loc 1 893 0
 2976 0846 6B46     		mov	r3, sp	@ tmp757,
 2977 0848 0E33     		add	r3, r3, #14	@ tmp757,
 2978 084a 1B78     		ldrb	r3, [r3]	@ tmp758, resp_down
 2979 084c 0A2B     		cmp	r3, #10	@ tmp758,
 2980 084e 1FD1     		bne	.L204	@,
 2981              	.LBB3:
 894:.\src/grouped.c **** 			{
 895:.\src/grouped.c **** 				unsigned short local;
 896:.\src/grouped.c **** 				local = GroupedStruct_local.max_dimmer_value_percent * 255;
 2982              		.loc 1 896 0
 2983 0850 BD4B     		ldr	r3, .L243+12	@ tmp759,
 2984 0852 DB78     		ldrb	r3, [r3, #3]	@ D.6040,
 2985 0854 03AA     		add	r2, sp, #12	@ tmp760,,
 2986 0856 191C     		add	r1, r3, #0	@ tmp762, tmp761
 2987 0858 0902     		lsl	r1, r1, #8	@ tmp763, tmp762,
 2988 085a CB1A     		sub	r3, r1, r3	@ tmp765, tmp764, tmp761
 2989 085c 1380     		strh	r3, [r2]	@ tmp766, local
 897:.\src/grouped.c **** 				local = local / 100;
 2990              		.loc 1 897 0
 2991 085e 03AC     		add	r4, sp, #12	@ tmp767,,
 2992 0860 03AB     		add	r3, sp, #12	@ tmp768,,
 2993 0862 1B88     		ldrh	r3, [r3]	@ tmp770, local
 2994 0864 181C     		mov	r0, r3	@, tmp770
 2995 0866 6421     		mov	r1, #100	@,
ARM GAS  C:\Users\Mariano\AppData\Local\Temp\ccqsEEdp.s 			page 72


 2996 0868 FFF7FEFF 		bl	__aeabi_uidiv	@
 2997 086c 031C     		mov	r3, r0	@ tmp773,
 2998 086e 2380     		strh	r3, [r4]	@ tmp774, local
 898:.\src/grouped.c **** 				GroupedStruct_local.max_dimmer_value_dmx = local;
 2999              		.loc 1 898 0
 3000 0870 03AB     		add	r3, sp, #12	@ tmp775,,
 3001 0872 1B88     		ldrh	r3, [r3]	@ tmp777, local
 3002 0874 DAB2     		uxtb	r2, r3	@ D.6042, tmp776
 3003 0876 B44B     		ldr	r3, .L243+12	@ tmp778,
 3004 0878 1A71     		strb	r2, [r3, #4]	@ tmp779, GroupedStruct_local.max_dimmer_value_dmx
 899:.\src/grouped.c **** 
 900:.\src/grouped.c **** 				grouped_menu_state = GROUPED_MENU_MAX_DIMMING_SELECTED_1;
 3005              		.loc 1 900 0
 3006 087a B14B     		ldr	r3, .L243+4	@ tmp780,
 3007 087c 1422     		mov	r2, #20	@ tmp781,
 3008 087e 1A70     		strb	r2, [r3]	@ tmp782, grouped_menu_state
 901:.\src/grouped.c **** 				LCD_1ER_RENGLON;
 3009              		.loc 1 901 0
 3010 0880 0020     		mov	r0, #0	@,
 3011 0882 FFF7FEFF 		bl	Lcd_SetDDRAM	@
 902:.\src/grouped.c **** 				LCDTransmitStr((const char *) "wait to free    ");
 3012              		.loc 1 902 0
 3013 0886 B14B     		ldr	r3, .L243+16	@ tmp783,
 3014 0888 181C     		mov	r0, r3	@, tmp783
 3015 088a FFF7FEFF 		bl	LCDTransmitStr	@
 3016              	.LBE3:
 903:.\src/grouped.c **** 			}
 904:.\src/grouped.c **** 			else if (resp_down == RESP_WORKING)
 905:.\src/grouped.c **** 				resp = RESP_WORKING;
 906:.\src/grouped.c **** 
 907:.\src/grouped.c **** 			break;
 3017              		.loc 1 907 0
 3018 088e 79E1     		b	.L233	@
 3019              	.L204:
 904:.\src/grouped.c **** 			else if (resp_down == RESP_WORKING)
 3020              		.loc 1 904 0
 3021 0890 6B46     		mov	r3, sp	@ tmp784,
 3022 0892 0E33     		add	r3, r3, #14	@ tmp784,
 3023 0894 1B78     		ldrb	r3, [r3]	@ tmp785, resp_down
 3024 0896 042B     		cmp	r3, #4	@ tmp785,
 3025 0898 00D0     		beq	.LCB2475	@
 3026 089a 73E1     		b	.L233	@long jump	@
 3027              	.LCB2475:
 905:.\src/grouped.c **** 				resp = RESP_WORKING;
 3028              		.loc 1 905 0
 3029 089c 6B46     		mov	r3, sp	@ tmp786,
 3030 089e 0F33     		add	r3, r3, #15	@ tmp786,
 3031 08a0 0422     		mov	r2, #4	@ tmp787,
 3032 08a2 1A70     		strb	r2, [r3]	@ tmp788, resp
 3033              		.loc 1 907 0
 3034 08a4 6EE1     		b	.L233	@
 3035              	.L132:
 908:.\src/grouped.c **** 
 909:.\src/grouped.c **** 		case GROUPED_MENU_MAX_DIMMING_SELECTED_1:
 910:.\src/grouped.c **** 			resp = RESP_WORKING;
 3036              		.loc 1 910 0
 3037 08a6 6B46     		mov	r3, sp	@ tmp789,
ARM GAS  C:\Users\Mariano\AppData\Local\Temp\ccqsEEdp.s 			page 73


 3038 08a8 0F33     		add	r3, r3, #15	@ tmp789,
 3039 08aa 0422     		mov	r2, #4	@ tmp790,
 3040 08ac 1A70     		strb	r2, [r3]	@ tmp791, resp
 911:.\src/grouped.c **** 			if (CheckS2() == S_NO)
 3041              		.loc 1 911 0
 3042 08ae FFF7FEFF 		bl	CheckS2	@
 3043 08b2 031C     		mov	r3, r0	@ tmp792,
 3044 08b4 002B     		cmp	r3, #0	@ D.6046,
 3045 08b6 00D0     		beq	.LCB2491	@
 3046 08b8 66E1     		b	.L234	@long jump	@
 3047              	.LCB2491:
 912:.\src/grouped.c **** 			{
 913:.\src/grouped.c **** 				//hago el update si corresponde
 914:.\src/grouped.c **** 				if (grouped_ii > GroupedStruct_local.max_dimmer_value_dmx)
 3048              		.loc 1 914 0
 3049 08ba A34B     		ldr	r3, .L243+12	@ tmp794,
 3050 08bc 1B79     		ldrb	r3, [r3, #4]	@ D.6049,
 3051 08be 1A1C     		mov	r2, r3	@ D.6050, D.6049
 3052 08c0 A34B     		ldr	r3, .L243+20	@ tmp795,
 3053 08c2 1B88     		ldrh	r3, [r3]	@ grouped_ii.19, grouped_ii
 3054 08c4 9A42     		cmp	r2, r3	@ D.6050, grouped_ii.19
 3055 08c6 1BD2     		bcs	.L207	@,
 915:.\src/grouped.c **** 				{
 916:.\src/grouped.c **** 					grouped_ii = GroupedStruct_local.max_dimmer_value_dmx;
 3056              		.loc 1 916 0
 3057 08c8 9F4B     		ldr	r3, .L243+12	@ tmp796,
 3058 08ca 1B79     		ldrb	r3, [r3, #4]	@ D.6054,
 3059 08cc 1A1C     		mov	r2, r3	@ grouped_ii.20, D.6054
 3060 08ce A04B     		ldr	r3, .L243+20	@ tmp797,
 3061 08d0 1A80     		strh	r2, [r3]	@ tmp798, grouped_ii
 917:.\src/grouped.c **** 					//TODO: esto corresponde hacerlo aca????
 918:.\src/grouped.c **** 					//TODO: no se puede hacer dentro de la funcion en algun UPDATE
 919:.\src/grouped.c **** 					memset((unsigned char *)data1, (unsigned char) grouped_ii, SIZEOF_DATA1);
 3062              		.loc 1 919 0
 3063 08d2 9F4B     		ldr	r3, .L243+20	@ tmp799,
 3064 08d4 1B88     		ldrh	r3, [r3]	@ grouped_ii.21, grouped_ii
 3065 08d6 DBB2     		uxtb	r3, r3	@ D.6057, grouped_ii.21
 3066 08d8 1A1C     		mov	r2, r3	@ D.6058, D.6057
 3067 08da 9E49     		ldr	r1, .L243+24	@ tmp800,
 3068 08dc 8023     		mov	r3, #128	@ tmp956,
 3069 08de 9B00     		lsl	r3, r3, #2	@ tmp801, tmp956,
 3070 08e0 081C     		mov	r0, r1	@, tmp800
 3071 08e2 111C     		mov	r1, r2	@, D.6058
 3072 08e4 1A1C     		mov	r2, r3	@, tmp801
 3073 08e6 FFF7FEFF 		bl	memset	@
 920:.\src/grouped.c **** 					SendDMXPacket(PCKT_INIT);
 3074              		.loc 1 920 0
 3075 08ea 0020     		mov	r0, #0	@,
 3076 08ec FFF7FEFF 		bl	SendDMXPacket	@
 921:.\src/grouped.c **** 					Update_TIM3_CH1 (grouped_ii);
 3077              		.loc 1 921 0
 3078 08f0 974B     		ldr	r3, .L243+20	@ tmp802,
 3079 08f2 1B88     		ldrh	r3, [r3]	@ grouped_ii.22, grouped_ii
 3080 08f4 181C     		mov	r0, r3	@, grouped_ii.22
 3081 08f6 FFF7FEFF 		bl	Update_TIM3_CH1	@
 922:.\src/grouped.c **** 					grouped_dimming_last_slope = DIM_DOWN;
 3082              		.loc 1 922 0
ARM GAS  C:\Users\Mariano\AppData\Local\Temp\ccqsEEdp.s 			page 74


 3083 08fa 974B     		ldr	r3, .L243+28	@ tmp803,
 3084 08fc 0122     		mov	r2, #1	@ tmp804,
 3085 08fe 1A70     		strb	r2, [r3]	@ tmp805, grouped_dimming_last_slope
 3086              	.L207:
 923:.\src/grouped.c **** 				}
 924:.\src/grouped.c **** 				grouped_menu_state = GROUPED_MENU_MAX_DIMMING;
 3087              		.loc 1 924 0
 3088 0900 8F4B     		ldr	r3, .L243+4	@ tmp806,
 3089 0902 0322     		mov	r2, #3	@ tmp807,
 3090 0904 1A70     		strb	r2, [r3]	@ tmp808, grouped_menu_state
 925:.\src/grouped.c **** 				resp = RESP_SELECTED;
 3091              		.loc 1 925 0
 3092 0906 6B46     		mov	r3, sp	@ tmp809,
 3093 0908 0F33     		add	r3, r3, #15	@ tmp809,
 3094 090a 0122     		mov	r2, #1	@ tmp810,
 3095 090c 1A70     		strb	r2, [r3]	@ tmp811, resp
 926:.\src/grouped.c **** 			}
 927:.\src/grouped.c **** 			break;
 3096              		.loc 1 927 0
 3097 090e 3BE1     		b	.L234	@
 3098              	.L133:
 928:.\src/grouped.c **** 
 929:.\src/grouped.c **** 		case GROUPED_MENU_MIN_DIMMING_SELECTED:
 930:.\src/grouped.c **** 			resp_down = FuncChangePercent (&GroupedStruct_local.min_dimmer_value_percent);
 3099              		.loc 1 930 0
 3100 0910 6C46     		mov	r4, sp	@ tmp812,
 3101 0912 0E34     		add	r4, r4, #14	@ tmp812,
 3102 0914 914B     		ldr	r3, .L243+32	@ tmp813,
 3103 0916 181C     		mov	r0, r3	@, tmp813
 3104 0918 0021     		mov	r1, #0	@,
 3105 091a 0022     		mov	r2, #0	@,
 3106 091c 6423     		mov	r3, #100	@,
 3107 091e FFF7FEFF 		bl	FuncChange	@
 3108 0922 031C     		mov	r3, r0	@ tmp814,
 3109 0924 2370     		strb	r3, [r4]	@ tmp816, resp_down
 931:.\src/grouped.c **** 
 932:.\src/grouped.c **** 			if (resp_down == RESP_FINISH)
 3110              		.loc 1 932 0
 3111 0926 6B46     		mov	r3, sp	@ tmp817,
 3112 0928 0E33     		add	r3, r3, #14	@ tmp817,
 3113 092a 1B78     		ldrb	r3, [r3]	@ tmp818, resp_down
 3114 092c 0A2B     		cmp	r3, #10	@ tmp818,
 3115 092e 23D1     		bne	.L208	@,
 3116              	.LBB4:
 933:.\src/grouped.c **** 			{
 934:.\src/grouped.c **** 				unsigned short local;
 935:.\src/grouped.c **** 				local = GroupedStruct_local.min_dimmer_value_percent * 255;
 3117              		.loc 1 935 0
 3118 0930 854B     		ldr	r3, .L243+12	@ tmp819,
 3119 0932 5B79     		ldrb	r3, [r3, #5]	@ D.6062,
 3120 0934 6A46     		mov	r2, sp	@ tmp820,
 3121 0936 0A32     		add	r2, r2, #10	@ tmp820,
 3122 0938 191C     		add	r1, r3, #0	@ tmp822, tmp821
 3123 093a 0902     		lsl	r1, r1, #8	@ tmp823, tmp822,
 3124 093c CB1A     		sub	r3, r1, r3	@ tmp825, tmp824, tmp821
 3125 093e 1380     		strh	r3, [r2]	@ tmp826, local
 936:.\src/grouped.c **** 				local = local / 100;
ARM GAS  C:\Users\Mariano\AppData\Local\Temp\ccqsEEdp.s 			page 75


 3126              		.loc 1 936 0
 3127 0940 6C46     		mov	r4, sp	@ tmp827,
 3128 0942 0A34     		add	r4, r4, #10	@ tmp827,
 3129 0944 6B46     		mov	r3, sp	@ tmp828,
 3130 0946 0A33     		add	r3, r3, #10	@ tmp828,
 3131 0948 1B88     		ldrh	r3, [r3]	@ tmp830, local
 3132 094a 181C     		mov	r0, r3	@, tmp830
 3133 094c 6421     		mov	r1, #100	@,
 3134 094e FFF7FEFF 		bl	__aeabi_uidiv	@
 3135 0952 031C     		mov	r3, r0	@ tmp833,
 3136 0954 2380     		strh	r3, [r4]	@ tmp834, local
 937:.\src/grouped.c **** 				GroupedStruct_local.min_dimmer_value_dmx = local;
 3137              		.loc 1 937 0
 3138 0956 6B46     		mov	r3, sp	@ tmp835,
 3139 0958 0A33     		add	r3, r3, #10	@ tmp835,
 3140 095a 1B88     		ldrh	r3, [r3]	@ tmp837, local
 3141 095c DAB2     		uxtb	r2, r3	@ D.6064, tmp836
 3142 095e 7A4B     		ldr	r3, .L243+12	@ tmp838,
 3143 0960 9A71     		strb	r2, [r3, #6]	@ tmp839, GroupedStruct_local.min_dimmer_value_dmx
 938:.\src/grouped.c **** 
 939:.\src/grouped.c **** 				grouped_menu_state = GROUPED_MENU_MIN_DIMMING_SELECTED_1;
 3144              		.loc 1 939 0
 3145 0962 774B     		ldr	r3, .L243+4	@ tmp840,
 3146 0964 1622     		mov	r2, #22	@ tmp841,
 3147 0966 1A70     		strb	r2, [r3]	@ tmp842, grouped_menu_state
 940:.\src/grouped.c **** 				LCD_1ER_RENGLON;
 3148              		.loc 1 940 0
 3149 0968 0020     		mov	r0, #0	@,
 3150 096a FFF7FEFF 		bl	Lcd_SetDDRAM	@
 941:.\src/grouped.c **** 				LCDTransmitStr((const char *) "wait to free    ");
 3151              		.loc 1 941 0
 3152 096e 774B     		ldr	r3, .L243+16	@ tmp843,
 3153 0970 181C     		mov	r0, r3	@, tmp843
 3154 0972 FFF7FEFF 		bl	LCDTransmitStr	@
 3155              	.LBE4:
 942:.\src/grouped.c **** 			}
 943:.\src/grouped.c **** 			else if (resp_down == RESP_WORKING)
 944:.\src/grouped.c **** 				resp = RESP_WORKING;
 945:.\src/grouped.c **** 
 946:.\src/grouped.c **** 			break;
 3156              		.loc 1 946 0
 3157 0976 09E1     		b	.L235	@
 3158              	.L208:
 943:.\src/grouped.c **** 			else if (resp_down == RESP_WORKING)
 3159              		.loc 1 943 0
 3160 0978 6B46     		mov	r3, sp	@ tmp844,
 3161 097a 0E33     		add	r3, r3, #14	@ tmp844,
 3162 097c 1B78     		ldrb	r3, [r3]	@ tmp845, resp_down
 3163 097e 042B     		cmp	r3, #4	@ tmp845,
 3164 0980 00D0     		beq	.LCB2594	@
 3165 0982 03E1     		b	.L235	@long jump	@
 3166              	.LCB2594:
 944:.\src/grouped.c **** 				resp = RESP_WORKING;
 3167              		.loc 1 944 0
 3168 0984 6B46     		mov	r3, sp	@ tmp846,
 3169 0986 0F33     		add	r3, r3, #15	@ tmp846,
 3170 0988 0422     		mov	r2, #4	@ tmp847,
ARM GAS  C:\Users\Mariano\AppData\Local\Temp\ccqsEEdp.s 			page 76


 3171 098a 1A70     		strb	r2, [r3]	@ tmp848, resp
 3172              		.loc 1 946 0
 3173 098c FEE0     		b	.L235	@
 3174              	.L134:
 947:.\src/grouped.c **** 
 948:.\src/grouped.c **** 		case GROUPED_MENU_MIN_DIMMING_SELECTED_1:
 949:.\src/grouped.c **** 			resp = RESP_WORKING;
 3175              		.loc 1 949 0
 3176 098e 6B46     		mov	r3, sp	@ tmp849,
 3177 0990 0F33     		add	r3, r3, #15	@ tmp849,
 3178 0992 0422     		mov	r2, #4	@ tmp850,
 3179 0994 1A70     		strb	r2, [r3]	@ tmp851, resp
 950:.\src/grouped.c **** 			if (CheckS2() == S_NO)
 3180              		.loc 1 950 0
 3181 0996 FFF7FEFF 		bl	CheckS2	@
 3182 099a 031C     		mov	r3, r0	@ tmp852,
 3183 099c 002B     		cmp	r3, #0	@ D.6068,
 3184 099e 00D0     		beq	.LCB2610	@
 3185 09a0 F6E0     		b	.L236	@long jump	@
 3186              	.LCB2610:
 951:.\src/grouped.c **** 			{
 952:.\src/grouped.c **** 				//hago el update si corresponde
 953:.\src/grouped.c **** 				if (grouped_ii < GroupedStruct_local.min_dimmer_value_dmx)
 3187              		.loc 1 953 0
 3188 09a2 694B     		ldr	r3, .L243+12	@ tmp854,
 3189 09a4 9B79     		ldrb	r3, [r3, #6]	@ D.6071,
 3190 09a6 1A1C     		mov	r2, r3	@ D.6072, D.6071
 3191 09a8 694B     		ldr	r3, .L243+20	@ tmp855,
 3192 09aa 1B88     		ldrh	r3, [r3]	@ grouped_ii.23, grouped_ii
 3193 09ac 9A42     		cmp	r2, r3	@ D.6072, grouped_ii.23
 3194 09ae 1BD9     		bls	.L211	@,
 954:.\src/grouped.c **** 				{
 955:.\src/grouped.c **** 					grouped_ii = GroupedStruct_local.min_dimmer_value_dmx;
 3195              		.loc 1 955 0
 3196 09b0 654B     		ldr	r3, .L243+12	@ tmp856,
 3197 09b2 9B79     		ldrb	r3, [r3, #6]	@ D.6076,
 3198 09b4 1A1C     		mov	r2, r3	@ grouped_ii.24, D.6076
 3199 09b6 664B     		ldr	r3, .L243+20	@ tmp857,
 3200 09b8 1A80     		strh	r2, [r3]	@ tmp858, grouped_ii
 956:.\src/grouped.c **** 					//TODO: esto corresponde hacerlo aca????
 957:.\src/grouped.c **** 					//TODO: no se puede hacer dentro de la funcion en algun UPDATE
 958:.\src/grouped.c **** 					memset((unsigned char *)data1, (unsigned char) grouped_ii, SIZEOF_DATA1);
 3201              		.loc 1 958 0
 3202 09ba 654B     		ldr	r3, .L243+20	@ tmp859,
 3203 09bc 1B88     		ldrh	r3, [r3]	@ grouped_ii.25, grouped_ii
 3204 09be DBB2     		uxtb	r3, r3	@ D.6079, grouped_ii.25
 3205 09c0 1A1C     		mov	r2, r3	@ D.6080, D.6079
 3206 09c2 6449     		ldr	r1, .L243+24	@ tmp860,
 3207 09c4 8023     		mov	r3, #128	@ tmp955,
 3208 09c6 9B00     		lsl	r3, r3, #2	@ tmp861, tmp955,
 3209 09c8 081C     		mov	r0, r1	@, tmp860
 3210 09ca 111C     		mov	r1, r2	@, D.6080
 3211 09cc 1A1C     		mov	r2, r3	@, tmp861
 3212 09ce FFF7FEFF 		bl	memset	@
 959:.\src/grouped.c **** 					SendDMXPacket(PCKT_INIT);
 3213              		.loc 1 959 0
 3214 09d2 0020     		mov	r0, #0	@,
ARM GAS  C:\Users\Mariano\AppData\Local\Temp\ccqsEEdp.s 			page 77


 3215 09d4 FFF7FEFF 		bl	SendDMXPacket	@
 960:.\src/grouped.c **** 					Update_TIM3_CH1 (grouped_ii);
 3216              		.loc 1 960 0
 3217 09d8 5D4B     		ldr	r3, .L243+20	@ tmp862,
 3218 09da 1B88     		ldrh	r3, [r3]	@ grouped_ii.26, grouped_ii
 3219 09dc 181C     		mov	r0, r3	@, grouped_ii.26
 3220 09de FFF7FEFF 		bl	Update_TIM3_CH1	@
 961:.\src/grouped.c **** 					grouped_dimming_last_slope = DIM_UP;
 3221              		.loc 1 961 0
 3222 09e2 5D4B     		ldr	r3, .L243+28	@ tmp863,
 3223 09e4 0022     		mov	r2, #0	@ tmp864,
 3224 09e6 1A70     		strb	r2, [r3]	@ tmp865, grouped_dimming_last_slope
 3225              	.L211:
 962:.\src/grouped.c **** 				}
 963:.\src/grouped.c **** 
 964:.\src/grouped.c **** 				grouped_menu_state = GROUPED_MENU_MIN_DIMMING;
 3226              		.loc 1 964 0
 3227 09e8 554B     		ldr	r3, .L243+4	@ tmp866,
 3228 09ea 0422     		mov	r2, #4	@ tmp867,
 3229 09ec 1A70     		strb	r2, [r3]	@ tmp868, grouped_menu_state
 965:.\src/grouped.c **** 				resp = RESP_SELECTED;
 3230              		.loc 1 965 0
 3231 09ee 6B46     		mov	r3, sp	@ tmp869,
 3232 09f0 0F33     		add	r3, r3, #15	@ tmp869,
 3233 09f2 0122     		mov	r2, #1	@ tmp870,
 3234 09f4 1A70     		strb	r2, [r3]	@ tmp871, resp
 966:.\src/grouped.c **** 			}
 967:.\src/grouped.c **** 			break;
 3235              		.loc 1 967 0
 3236 09f6 CBE0     		b	.L236	@
 3237              	.L135:
 968:.\src/grouped.c **** 
 969:.\src/grouped.c **** 		case GROUPED_MENU_RAMP_ON_START_SELECTED:
 970:.\src/grouped.c **** 			//ajusto el timer
 971:.\src/grouped.c **** 			dummy = GroupedStruct_local.power_up_timer_value / 1000;
 3238              		.loc 1 971 0
 3239 09f8 534B     		ldr	r3, .L243+12	@ tmp872,
 3240 09fa 1B89     		ldrh	r3, [r3, #8]	@ D.6082,
 3241 09fc 181C     		mov	r0, r3	@, D.6082
 3242 09fe FA23     		mov	r3, #250	@ tmp954,
 3243 0a00 9900     		lsl	r1, r3, #2	@, tmp954,
 3244 0a02 FFF7FEFF 		bl	__aeabi_uidiv	@
 3245 0a06 031C     		mov	r3, r0	@ tmp876,
 3246 0a08 9BB2     		uxth	r3, r3	@ D.6083, tmp876
 3247 0a0a DAB2     		uxtb	r2, r3	@ dummy.27, D.6083
 3248 0a0c 6B46     		mov	r3, sp	@ tmp877,
 3249 0a0e 0933     		add	r3, r3, #9	@ tmp877,
 3250 0a10 1A70     		strb	r2, [r3]	@ tmp878, dummy
 972:.\src/grouped.c **** 			resp_down = FuncChangeSecs (&dummy);
 3251              		.loc 1 972 0
 3252 0a12 6C46     		mov	r4, sp	@ tmp879,
 3253 0a14 0E34     		add	r4, r4, #14	@ tmp879,
 3254 0a16 6B46     		mov	r3, sp	@ tmp880,
 3255 0a18 0933     		add	r3, r3, #9	@ tmp880,
 3256 0a1a 181C     		mov	r0, r3	@, tmp880
 3257 0a1c 0121     		mov	r1, #1	@,
 3258 0a1e 0022     		mov	r2, #0	@,
ARM GAS  C:\Users\Mariano\AppData\Local\Temp\ccqsEEdp.s 			page 78


 3259 0a20 0A23     		mov	r3, #10	@,
 3260 0a22 FFF7FEFF 		bl	FuncChange	@
 3261 0a26 031C     		mov	r3, r0	@ tmp881,
 3262 0a28 2370     		strb	r3, [r4]	@ tmp883, resp_down
 973:.\src/grouped.c **** 
 974:.\src/grouped.c **** 			if (resp_down == RESP_FINISH)
 3263              		.loc 1 974 0
 3264 0a2a 6B46     		mov	r3, sp	@ tmp884,
 3265 0a2c 0E33     		add	r3, r3, #14	@ tmp884,
 3266 0a2e 1B78     		ldrb	r3, [r3]	@ tmp885, resp_down
 3267 0a30 0A2B     		cmp	r3, #10	@ tmp885,
 3268 0a32 12D1     		bne	.L212	@,
 975:.\src/grouped.c **** 			{
 976:.\src/grouped.c **** 				GroupedStruct_local.power_up_timer_value = dummy * 1000;
 3269              		.loc 1 976 0
 3270 0a34 6B46     		mov	r3, sp	@ tmp886,
 3271 0a36 0933     		add	r3, r3, #9	@ tmp886,
 3272 0a38 1B78     		ldrb	r3, [r3]	@ dummy.28, dummy
 3273 0a3a FA22     		mov	r2, #250	@ tmp953,
 3274 0a3c 9200     		lsl	r2, r2, #2	@ tmp888, tmp953,
 3275 0a3e 5343     		mul	r3, r2	@ tmp887, tmp888
 3276 0a40 9AB2     		uxth	r2, r3	@ D.6089, tmp887
 3277 0a42 414B     		ldr	r3, .L243+12	@ tmp889,
 3278 0a44 1A81     		strh	r2, [r3, #8]	@ tmp890, GroupedStruct_local.power_up_timer_value
 977:.\src/grouped.c **** 				grouped_menu_state = GROUPED_MENU_RAMP_ON_START_SELECTED_1;
 3279              		.loc 1 977 0
 3280 0a46 3E4B     		ldr	r3, .L243+4	@ tmp891,
 3281 0a48 1822     		mov	r2, #24	@ tmp892,
 3282 0a4a 1A70     		strb	r2, [r3]	@ tmp893, grouped_menu_state
 978:.\src/grouped.c **** 				LCD_1ER_RENGLON;
 3283              		.loc 1 978 0
 3284 0a4c 0020     		mov	r0, #0	@,
 3285 0a4e FFF7FEFF 		bl	Lcd_SetDDRAM	@
 979:.\src/grouped.c **** 				LCDTransmitStr((const char *) "wait to free    ");
 3286              		.loc 1 979 0
 3287 0a52 3E4B     		ldr	r3, .L243+16	@ tmp894,
 3288 0a54 181C     		mov	r0, r3	@, tmp894
 3289 0a56 FFF7FEFF 		bl	LCDTransmitStr	@
 3290              	.L212:
 980:.\src/grouped.c **** 			}
 981:.\src/grouped.c **** 
 982:.\src/grouped.c **** 			resp = RESP_WORKING;
 3291              		.loc 1 982 0
 3292 0a5a 6B46     		mov	r3, sp	@ tmp895,
 3293 0a5c 0F33     		add	r3, r3, #15	@ tmp895,
 3294 0a5e 0422     		mov	r2, #4	@ tmp896,
 3295 0a60 1A70     		strb	r2, [r3]	@ tmp897, resp
 983:.\src/grouped.c **** 			break;
 3296              		.loc 1 983 0
 3297 0a62 9AE0     		b	.L148	@
 3298              	.L136:
 984:.\src/grouped.c **** 
 985:.\src/grouped.c **** 		case GROUPED_MENU_RAMP_ON_START_SELECTED_1:
 986:.\src/grouped.c **** 			resp = RESP_WORKING;
 3299              		.loc 1 986 0
 3300 0a64 6B46     		mov	r3, sp	@ tmp898,
 3301 0a66 0F33     		add	r3, r3, #15	@ tmp898,
ARM GAS  C:\Users\Mariano\AppData\Local\Temp\ccqsEEdp.s 			page 79


 3302 0a68 0422     		mov	r2, #4	@ tmp899,
 3303 0a6a 1A70     		strb	r2, [r3]	@ tmp900, resp
 987:.\src/grouped.c **** 			if (CheckS2() == S_NO)
 3304              		.loc 1 987 0
 3305 0a6c FFF7FEFF 		bl	CheckS2	@
 3306 0a70 031C     		mov	r3, r0	@ tmp901,
 3307 0a72 002B     		cmp	r3, #0	@ D.6090,
 3308 0a74 00D0     		beq	.LCB2718	@
 3309 0a76 8DE0     		b	.L237	@long jump	@
 3310              	.LCB2718:
 988:.\src/grouped.c **** 			{
 989:.\src/grouped.c **** 				grouped_menu_state = GROUPED_MENU_RAMP_ON_START;
 3311              		.loc 1 989 0
 3312 0a78 314B     		ldr	r3, .L243+4	@ tmp903,
 3313 0a7a 0522     		mov	r2, #5	@ tmp904,
 3314 0a7c 1A70     		strb	r2, [r3]	@ tmp905, grouped_menu_state
 990:.\src/grouped.c **** 				resp = RESP_SELECTED;
 3315              		.loc 1 990 0
 3316 0a7e 6B46     		mov	r3, sp	@ tmp906,
 3317 0a80 0F33     		add	r3, r3, #15	@ tmp906,
 3318 0a82 0122     		mov	r2, #1	@ tmp907,
 3319 0a84 1A70     		strb	r2, [r3]	@ tmp908, resp
 991:.\src/grouped.c **** 			}
 992:.\src/grouped.c **** 			break;
 3320              		.loc 1 992 0
 3321 0a86 85E0     		b	.L237	@
 3322              	.L137:
 993:.\src/grouped.c **** 
 994:.\src/grouped.c **** 		case GROUPED_MENU_RAMP_ON_DIMMING_SELECTED:
 995:.\src/grouped.c **** 			//ajusto el timer
 996:.\src/grouped.c **** 			dummy = GroupedStruct_local.dimming_up_timer_value / 1000;
 3323              		.loc 1 996 0
 3324 0a88 2F4B     		ldr	r3, .L243+12	@ tmp909,
 3325 0a8a 5B89     		ldrh	r3, [r3, #10]	@ D.6093,
 3326 0a8c 181C     		mov	r0, r3	@, D.6093
 3327 0a8e FA23     		mov	r3, #250	@ tmp952,
 3328 0a90 9900     		lsl	r1, r3, #2	@, tmp952,
 3329 0a92 FFF7FEFF 		bl	__aeabi_uidiv	@
 3330 0a96 031C     		mov	r3, r0	@ tmp913,
 3331 0a98 9BB2     		uxth	r3, r3	@ D.6094, tmp913
 3332 0a9a DAB2     		uxtb	r2, r3	@ dummy.29, D.6094
 3333 0a9c 6B46     		mov	r3, sp	@ tmp914,
 3334 0a9e 0933     		add	r3, r3, #9	@ tmp914,
 3335 0aa0 1A70     		strb	r2, [r3]	@ tmp915, dummy
 997:.\src/grouped.c **** 			resp_down = FuncChangeSecs (&dummy);
 3336              		.loc 1 997 0
 3337 0aa2 6C46     		mov	r4, sp	@ tmp916,
 3338 0aa4 0E34     		add	r4, r4, #14	@ tmp916,
 3339 0aa6 6B46     		mov	r3, sp	@ tmp917,
 3340 0aa8 0933     		add	r3, r3, #9	@ tmp917,
 3341 0aaa 181C     		mov	r0, r3	@, tmp917
 3342 0aac 0121     		mov	r1, #1	@,
 3343 0aae 0022     		mov	r2, #0	@,
 3344 0ab0 0A23     		mov	r3, #10	@,
 3345 0ab2 FFF7FEFF 		bl	FuncChange	@
 3346 0ab6 031C     		mov	r3, r0	@ tmp918,
 3347 0ab8 2370     		strb	r3, [r4]	@ tmp920, resp_down
ARM GAS  C:\Users\Mariano\AppData\Local\Temp\ccqsEEdp.s 			page 80


 998:.\src/grouped.c **** 
 999:.\src/grouped.c **** 			if (resp_down == RESP_FINISH)
 3348              		.loc 1 999 0
 3349 0aba 6B46     		mov	r3, sp	@ tmp921,
 3350 0abc 0E33     		add	r3, r3, #14	@ tmp921,
 3351 0abe 1B78     		ldrb	r3, [r3]	@ tmp922, resp_down
 3352 0ac0 0A2B     		cmp	r3, #10	@ tmp922,
 3353 0ac2 12D1     		bne	.L214	@,
1000:.\src/grouped.c **** 			{
1001:.\src/grouped.c **** 				GroupedStruct_local.dimming_up_timer_value = dummy * 1000;
 3354              		.loc 1 1001 0
 3355 0ac4 6B46     		mov	r3, sp	@ tmp923,
 3356 0ac6 0933     		add	r3, r3, #9	@ tmp923,
 3357 0ac8 1B78     		ldrb	r3, [r3]	@ dummy.30, dummy
 3358 0aca FA22     		mov	r2, #250	@ tmp951,
 3359 0acc 9200     		lsl	r2, r2, #2	@ tmp925, tmp951,
 3360 0ace 5343     		mul	r3, r2	@ tmp924, tmp925
 3361 0ad0 9AB2     		uxth	r2, r3	@ D.6100, tmp924
 3362 0ad2 1D4B     		ldr	r3, .L243+12	@ tmp926,
 3363 0ad4 5A81     		strh	r2, [r3, #10]	@ tmp927, GroupedStruct_local.dimming_up_timer_value
1002:.\src/grouped.c **** 				grouped_menu_state = GROUPED_MENU_RAMP_ON_DIMMING_SELECTED_1;
 3364              		.loc 1 1002 0
 3365 0ad6 1A4B     		ldr	r3, .L243+4	@ tmp928,
 3366 0ad8 1A22     		mov	r2, #26	@ tmp929,
 3367 0ada 1A70     		strb	r2, [r3]	@ tmp930, grouped_menu_state
1003:.\src/grouped.c **** 				LCD_1ER_RENGLON;
 3368              		.loc 1 1003 0
 3369 0adc 0020     		mov	r0, #0	@,
 3370 0ade FFF7FEFF 		bl	Lcd_SetDDRAM	@
1004:.\src/grouped.c **** 				LCDTransmitStr((const char *) "wait to free    ");
 3371              		.loc 1 1004 0
 3372 0ae2 1A4B     		ldr	r3, .L243+16	@ tmp931,
 3373 0ae4 181C     		mov	r0, r3	@, tmp931
 3374 0ae6 FFF7FEFF 		bl	LCDTransmitStr	@
 3375              	.L214:
1005:.\src/grouped.c **** 			}
1006:.\src/grouped.c **** 
1007:.\src/grouped.c **** 			resp = RESP_WORKING;
 3376              		.loc 1 1007 0
 3377 0aea 6B46     		mov	r3, sp	@ tmp932,
 3378 0aec 0F33     		add	r3, r3, #15	@ tmp932,
 3379 0aee 0422     		mov	r2, #4	@ tmp933,
 3380 0af0 1A70     		strb	r2, [r3]	@ tmp934, resp
1008:.\src/grouped.c **** 			break;
 3381              		.loc 1 1008 0
 3382 0af2 52E0     		b	.L148	@
 3383              	.L138:
1009:.\src/grouped.c **** 
1010:.\src/grouped.c **** 		case GROUPED_MENU_RAMP_ON_DIMMING_SELECTED_1:
1011:.\src/grouped.c **** 			resp = RESP_WORKING;
 3384              		.loc 1 1011 0
 3385 0af4 6B46     		mov	r3, sp	@ tmp935,
 3386 0af6 0F33     		add	r3, r3, #15	@ tmp935,
 3387 0af8 0422     		mov	r2, #4	@ tmp936,
 3388 0afa 1A70     		strb	r2, [r3]	@ tmp937, resp
1012:.\src/grouped.c **** 			if (CheckS2() == S_NO)
 3389              		.loc 1 1012 0
ARM GAS  C:\Users\Mariano\AppData\Local\Temp\ccqsEEdp.s 			page 81


 3390 0afc FFF7FEFF 		bl	CheckS2	@
 3391 0b00 031C     		mov	r3, r0	@ tmp938,
 3392 0b02 002B     		cmp	r3, #0	@ D.6101,
 3393 0b04 48D1     		bne	.L238	@,
1013:.\src/grouped.c **** 			{
1014:.\src/grouped.c **** 				grouped_menu_state = GROUPED_MENU_RAMP_ON_DIMMING;
 3394              		.loc 1 1014 0
 3395 0b06 0E4B     		ldr	r3, .L243+4	@ tmp940,
 3396 0b08 0622     		mov	r2, #6	@ tmp941,
 3397 0b0a 1A70     		strb	r2, [r3]	@ tmp942, grouped_menu_state
1015:.\src/grouped.c **** 				resp = RESP_SELECTED;
 3398              		.loc 1 1015 0
 3399 0b0c 6B46     		mov	r3, sp	@ tmp943,
 3400 0b0e 0F33     		add	r3, r3, #15	@ tmp943,
 3401 0b10 0122     		mov	r2, #1	@ tmp944,
 3402 0b12 1A70     		strb	r2, [r3]	@ tmp945, resp
1016:.\src/grouped.c **** 			}
1017:.\src/grouped.c **** 			break;
 3403              		.loc 1 1017 0
 3404 0b14 40E0     		b	.L238	@
 3405              	.L112:
1018:.\src/grouped.c **** 
1019:.\src/grouped.c **** 		default:
1020:.\src/grouped.c **** 			grouped_menu_state = GROUPED_MENU_INIT;
 3406              		.loc 1 1020 0
 3407 0b16 0A4B     		ldr	r3, .L243+4	@ tmp946,
 3408 0b18 0022     		mov	r2, #0	@ tmp947,
 3409 0b1a 1A70     		strb	r2, [r3]	@ tmp948, grouped_menu_state
1021:.\src/grouped.c **** 			break;
 3410              		.loc 1 1021 0
 3411 0b1c 3DE0     		b	.L148	@
 3412              	.L217:
 540:.\src/grouped.c **** 			break;
 3413              		.loc 1 540 0
 3414 0b1e C046     		mov	r8, r8
 3415 0b20 3BE0     		b	.L148	@
 3416              	.L218:
 554:.\src/grouped.c **** 			break;
 3417              		.loc 1 554 0
 3418 0b22 C046     		mov	r8, r8
 3419 0b24 39E0     		b	.L148	@
 3420              	.L219:
 568:.\src/grouped.c **** 			break;
 3421              		.loc 1 568 0
 3422 0b26 C046     		mov	r8, r8
 3423 0b28 37E0     		b	.L148	@
 3424              	.L220:
 582:.\src/grouped.c **** 			break;
 3425              		.loc 1 582 0
 3426 0b2a C046     		mov	r8, r8
 3427 0b2c 35E0     		b	.L148	@
 3428              	.L221:
 597:.\src/grouped.c **** 			break;
 3429              		.loc 1 597 0
 3430 0b2e C046     		mov	r8, r8
 3431 0b30 33E0     		b	.L148	@
 3432              	.L222:
ARM GAS  C:\Users\Mariano\AppData\Local\Temp\ccqsEEdp.s 			page 82


 611:.\src/grouped.c **** 			break;
 3433              		.loc 1 611 0
 3434 0b32 C046     		mov	r8, r8
 3435 0b34 31E0     		b	.L148	@
 3436              	.L223:
 625:.\src/grouped.c **** 			break;
 3437              		.loc 1 625 0
 3438 0b36 C046     		mov	r8, r8
 3439 0b38 2FE0     		b	.L148	@
 3440              	.L244:
 3441 0b3a C046     		.align	2
 3442              	.L243:
 3443 0b3c 02000000 		.word	GroupedStruct_local+2
 3444 0b40 00000000 		.word	grouped_menu_state
 3445 0b44 03000000 		.word	GroupedStruct_local+3
 3446 0b48 00000000 		.word	GroupedStruct_local
 3447 0b4c A0000000 		.word	.LC39
 3448 0b50 00000000 		.word	grouped_ii
 3449 0b54 00000000 		.word	data1
 3450 0b58 00000000 		.word	grouped_dimming_last_slope
 3451 0b5c 05000000 		.word	GroupedStruct_local+5
 3452              	.L224:
 639:.\src/grouped.c **** 			break;
 3453              		.loc 1 639 0
 3454 0b60 C046     		mov	r8, r8
 3455 0b62 1AE0     		b	.L148	@
 3456              	.L225:
 653:.\src/grouped.c **** 			break;
 3457              		.loc 1 653 0
 3458 0b64 C046     		mov	r8, r8
 3459 0b66 18E0     		b	.L148	@
 3460              	.L226:
 695:.\src/grouped.c **** 			break;
 3461              		.loc 1 695 0
 3462 0b68 C046     		mov	r8, r8
 3463 0b6a 16E0     		b	.L148	@
 3464              	.L227:
 743:.\src/grouped.c **** 			break;
 3465              		.loc 1 743 0
 3466 0b6c C046     		mov	r8, r8
 3467 0b6e 14E0     		b	.L148	@
 3468              	.L228:
 763:.\src/grouped.c **** 			break;
 3469              		.loc 1 763 0
 3470 0b70 C046     		mov	r8, r8
 3471 0b72 12E0     		b	.L148	@
 3472              	.L229:
 805:.\src/grouped.c **** 			break;
 3473              		.loc 1 805 0
 3474 0b74 C046     		mov	r8, r8
 3475 0b76 10E0     		b	.L148	@
 3476              	.L230:
 854:.\src/grouped.c **** 			break;
 3477              		.loc 1 854 0
 3478 0b78 C046     		mov	r8, r8
 3479 0b7a 0EE0     		b	.L148	@
 3480              	.L231:
ARM GAS  C:\Users\Mariano\AppData\Local\Temp\ccqsEEdp.s 			page 83


 872:.\src/grouped.c **** 			break;
 3481              		.loc 1 872 0
 3482 0b7c C046     		mov	r8, r8
 3483 0b7e 0CE0     		b	.L148	@
 3484              	.L232:
 888:.\src/grouped.c **** 			break;
 3485              		.loc 1 888 0
 3486 0b80 C046     		mov	r8, r8
 3487 0b82 0AE0     		b	.L148	@
 3488              	.L233:
 907:.\src/grouped.c **** 			break;
 3489              		.loc 1 907 0
 3490 0b84 C046     		mov	r8, r8
 3491 0b86 08E0     		b	.L148	@
 3492              	.L234:
 927:.\src/grouped.c **** 			break;
 3493              		.loc 1 927 0
 3494 0b88 C046     		mov	r8, r8
 3495 0b8a 06E0     		b	.L148	@
 3496              	.L235:
 946:.\src/grouped.c **** 			break;
 3497              		.loc 1 946 0
 3498 0b8c C046     		mov	r8, r8
 3499 0b8e 04E0     		b	.L148	@
 3500              	.L236:
 967:.\src/grouped.c **** 			break;
 3501              		.loc 1 967 0
 3502 0b90 C046     		mov	r8, r8
 3503 0b92 02E0     		b	.L148	@
 3504              	.L237:
 992:.\src/grouped.c **** 			break;
 3505              		.loc 1 992 0
 3506 0b94 C046     		mov	r8, r8
 3507 0b96 00E0     		b	.L148	@
 3508              	.L238:
1017:.\src/grouped.c **** 			break;
 3509              		.loc 1 1017 0
 3510 0b98 C046     		mov	r8, r8
 3511              	.L148:
1022:.\src/grouped.c **** 	}
1023:.\src/grouped.c **** 	return resp;
 3512              		.loc 1 1023 0
 3513 0b9a 6B46     		mov	r3, sp	@ tmp949,
 3514 0b9c 0F33     		add	r3, r3, #15	@ tmp949,
 3515 0b9e 1B78     		ldrb	r3, [r3]	@ D.6104, resp
1024:.\src/grouped.c **** }
 3516              		.loc 1 1024 0
 3517 0ba0 181C     		mov	r0, r3	@, <retval>
 3518 0ba2 04B0     		add	sp, sp, #16	@,,
 3519              		@ sp needed for prologue	@
 3520 0ba4 10BD     		pop	{r4, pc}
 3521              		.cfi_endproc
 3522              	.LFE21:
 3523              		.size	MenuGrouped, .-MenuGrouped
 3524 0ba6 C046     		.section	.text.FuncGroupedReset,"ax",%progbits
 3525              		.align	2
 3526              		.global	FuncGroupedReset
ARM GAS  C:\Users\Mariano\AppData\Local\Temp\ccqsEEdp.s 			page 84


 3527              		.code	16
 3528              		.thumb_func
 3529              		.type	FuncGroupedReset, %function
 3530              	FuncGroupedReset:
 3531              	.LFB22:
1025:.\src/grouped.c **** 
1026:.\src/grouped.c **** 
1027:.\src/grouped.c **** void FuncGroupedReset (void)
1028:.\src/grouped.c **** {
 3532              		.loc 1 1028 0
 3533              		.cfi_startproc
1029:.\src/grouped.c **** 	grouped_state = GROUPED_INIT;
 3534              		.loc 1 1029 0
 3535 0000 014B     		ldr	r3, .L246	@ tmp134,
 3536 0002 0022     		mov	r2, #0	@ tmp135,
 3537 0004 1A70     		strb	r2, [r3]	@ tmp136, grouped_state
1030:.\src/grouped.c **** }
 3538              		.loc 1 1030 0
 3539              		@ sp needed for prologue	@
 3540 0006 7047     		bx	lr
 3541              	.L247:
 3542              		.align	2
 3543              	.L246:
 3544 0008 00000000 		.word	grouped_state
 3545              		.cfi_endproc
 3546              	.LFE22:
 3547              		.size	FuncGroupedReset, .-FuncGroupedReset
 3548              		.section	.text.MenuGroupedReset,"ax",%progbits
 3549              		.align	2
 3550              		.global	MenuGroupedReset
 3551              		.code	16
 3552              		.thumb_func
 3553              		.type	MenuGroupedReset, %function
 3554              	MenuGroupedReset:
 3555              	.LFB23:
1031:.\src/grouped.c **** 
1032:.\src/grouped.c **** void MenuGroupedReset(void)
1033:.\src/grouped.c **** {
 3556              		.loc 1 1033 0
 3557              		.cfi_startproc
1034:.\src/grouped.c **** 	grouped_menu_state = GROUPED_MENU_INIT;
 3558              		.loc 1 1034 0
 3559 0000 014B     		ldr	r3, .L249	@ tmp134,
 3560 0002 0022     		mov	r2, #0	@ tmp135,
 3561 0004 1A70     		strb	r2, [r3]	@ tmp136, grouped_menu_state
1035:.\src/grouped.c **** }
 3562              		.loc 1 1035 0
 3563              		@ sp needed for prologue	@
 3564 0006 7047     		bx	lr
 3565              	.L250:
 3566              		.align	2
 3567              	.L249:
 3568 0008 00000000 		.word	grouped_menu_state
 3569              		.cfi_endproc
 3570              	.LFE23:
 3571              		.size	MenuGroupedReset, .-MenuGroupedReset
 3572              		.text
ARM GAS  C:\Users\Mariano\AppData\Local\Temp\ccqsEEdp.s 			page 85


 3573              	.Letext0:
 3574              		.file 2 ".\\src\\grouped.h"
 3575              		.file 3 "c:\\program files (x86)\\gnu tools arm embedded\\4.7 2013q2\\bin\\../lib/gcc/arm-none-eab
 3576              		.file 4 ".\\cmsis_boot/stm32f0xx.h"
 3577              		.section	.debug_info,"",%progbits
 3578              	.Ldebug_info0:
 3579 0000 13050000 		.4byte	0x513
 3580 0004 0200     		.2byte	0x2
 3581 0006 00000000 		.4byte	.Ldebug_abbrev0
 3582 000a 04       		.byte	0x4
 3583 000b 01       		.uleb128 0x1
 3584 000c A8000000 		.4byte	.LASF67
 3585 0010 01       		.byte	0x1
 3586 0011 6F020000 		.4byte	.LASF68
 3587 0015 16020000 		.4byte	.LASF69
 3588 0019 00000000 		.4byte	.Ldebug_ranges0+0
 3589 001d 00000000 		.4byte	0
 3590 0021 00000000 		.4byte	0
 3591 0025 00000000 		.4byte	.Ldebug_line0
 3592 0029 02       		.uleb128 0x2
 3593 002a 67020000 		.4byte	.LASF70
 3594 002e 12       		.byte	0x12
 3595 002f 02       		.byte	0x2
 3596 0030 0C       		.byte	0xc
 3597 0031 EC000000 		.4byte	0xec
 3598 0035 03       		.uleb128 0x3
 3599 0036 04030000 		.4byte	.LASF0
 3600 003a 02       		.byte	0x2
 3601 003b 0F       		.byte	0xf
 3602 003c EC000000 		.4byte	0xec
 3603 0040 02       		.byte	0x2
 3604 0041 23       		.byte	0x23
 3605 0042 00       		.uleb128 0
 3606 0043 03       		.uleb128 0x3
 3607 0044 1D040000 		.4byte	.LASF1
 3608 0048 02       		.byte	0x2
 3609 0049 10       		.byte	0x10
 3610 004a EC000000 		.4byte	0xec
 3611 004e 02       		.byte	0x2
 3612 004f 23       		.byte	0x23
 3613 0050 01       		.uleb128 0x1
 3614 0051 03       		.uleb128 0x3
 3615 0052 F1000000 		.4byte	.LASF2
 3616 0056 02       		.byte	0x2
 3617 0057 11       		.byte	0x11
 3618 0058 EC000000 		.4byte	0xec
 3619 005c 02       		.byte	0x2
 3620 005d 23       		.byte	0x23
 3621 005e 02       		.uleb128 0x2
 3622 005f 03       		.uleb128 0x3
 3623 0060 0F010000 		.4byte	.LASF3
 3624 0064 02       		.byte	0x2
 3625 0065 12       		.byte	0x12
 3626 0066 EC000000 		.4byte	0xec
 3627 006a 02       		.byte	0x2
 3628 006b 23       		.byte	0x23
 3629 006c 03       		.uleb128 0x3
ARM GAS  C:\Users\Mariano\AppData\Local\Temp\ccqsEEdp.s 			page 86


 3630 006d 03       		.uleb128 0x3
 3631 006e 72030000 		.4byte	.LASF4
 3632 0072 02       		.byte	0x2
 3633 0073 13       		.byte	0x13
 3634 0074 EC000000 		.4byte	0xec
 3635 0078 02       		.byte	0x2
 3636 0079 23       		.byte	0x23
 3637 007a 04       		.uleb128 0x4
 3638 007b 03       		.uleb128 0x3
 3639 007c D8010000 		.4byte	.LASF5
 3640 0080 02       		.byte	0x2
 3641 0081 14       		.byte	0x14
 3642 0082 EC000000 		.4byte	0xec
 3643 0086 02       		.byte	0x2
 3644 0087 23       		.byte	0x23
 3645 0088 05       		.uleb128 0x5
 3646 0089 03       		.uleb128 0x3
 3647 008a 28040000 		.4byte	.LASF6
 3648 008e 02       		.byte	0x2
 3649 008f 15       		.byte	0x15
 3650 0090 EC000000 		.4byte	0xec
 3651 0094 02       		.byte	0x2
 3652 0095 23       		.byte	0x23
 3653 0096 06       		.uleb128 0x6
 3654 0097 03       		.uleb128 0x3
 3655 0098 8E000000 		.4byte	.LASF7
 3656 009c 02       		.byte	0x2
 3657 009d 16       		.byte	0x16
 3658 009e F3000000 		.4byte	0xf3
 3659 00a2 02       		.byte	0x2
 3660 00a3 23       		.byte	0x23
 3661 00a4 08       		.uleb128 0x8
 3662 00a5 03       		.uleb128 0x3
 3663 00a6 B4030000 		.4byte	.LASF8
 3664 00aa 02       		.byte	0x2
 3665 00ab 17       		.byte	0x17
 3666 00ac F3000000 		.4byte	0xf3
 3667 00b0 02       		.byte	0x2
 3668 00b1 23       		.byte	0x23
 3669 00b2 0A       		.uleb128 0xa
 3670 00b3 03       		.uleb128 0x3
 3671 00b4 AE020000 		.4byte	.LASF9
 3672 00b8 02       		.byte	0x2
 3673 00b9 1A       		.byte	0x1a
 3674 00ba EC000000 		.4byte	0xec
 3675 00be 02       		.byte	0x2
 3676 00bf 23       		.byte	0x23
 3677 00c0 0C       		.uleb128 0xc
 3678 00c1 03       		.uleb128 0x3
 3679 00c2 7F020000 		.4byte	.LASF10
 3680 00c6 02       		.byte	0x2
 3681 00c7 1B       		.byte	0x1b
 3682 00c8 F3000000 		.4byte	0xf3
 3683 00cc 02       		.byte	0x2
 3684 00cd 23       		.byte	0x23
 3685 00ce 0E       		.uleb128 0xe
 3686 00cf 03       		.uleb128 0x3
ARM GAS  C:\Users\Mariano\AppData\Local\Temp\ccqsEEdp.s 			page 87


 3687 00d0 F8030000 		.4byte	.LASF11
 3688 00d4 02       		.byte	0x2
 3689 00d5 1C       		.byte	0x1c
 3690 00d6 EC000000 		.4byte	0xec
 3691 00da 02       		.byte	0x2
 3692 00db 23       		.byte	0x23
 3693 00dc 10       		.uleb128 0x10
 3694 00dd 03       		.uleb128 0x3
 3695 00de FF030000 		.4byte	.LASF12
 3696 00e2 02       		.byte	0x2
 3697 00e3 1D       		.byte	0x1d
 3698 00e4 EC000000 		.4byte	0xec
 3699 00e8 02       		.byte	0x2
 3700 00e9 23       		.byte	0x23
 3701 00ea 11       		.uleb128 0x11
 3702 00eb 00       		.byte	0
 3703 00ec 04       		.uleb128 0x4
 3704 00ed 01       		.byte	0x1
 3705 00ee 08       		.byte	0x8
 3706 00ef A0020000 		.4byte	.LASF13
 3707 00f3 04       		.uleb128 0x4
 3708 00f4 02       		.byte	0x2
 3709 00f5 07       		.byte	0x7
 3710 00f6 1D030000 		.4byte	.LASF14
 3711 00fa 05       		.uleb128 0x5
 3712 00fb F1010000 		.4byte	.LASF17
 3713 00ff 02       		.byte	0x2
 3714 0100 1F       		.byte	0x1f
 3715 0101 29000000 		.4byte	0x29
 3716 0105 04       		.uleb128 0x4
 3717 0106 01       		.byte	0x1
 3718 0107 06       		.byte	0x6
 3719 0108 42010000 		.4byte	.LASF15
 3720 010c 04       		.uleb128 0x4
 3721 010d 02       		.byte	0x2
 3722 010e 05       		.byte	0x5
 3723 010f 7B000000 		.4byte	.LASF16
 3724 0113 05       		.uleb128 0x5
 3725 0114 FB020000 		.4byte	.LASF18
 3726 0118 03       		.byte	0x3
 3727 0119 36       		.byte	0x36
 3728 011a F3000000 		.4byte	0xf3
 3729 011e 04       		.uleb128 0x4
 3730 011f 04       		.byte	0x4
 3731 0120 05       		.byte	0x5
 3732 0121 CF010000 		.4byte	.LASF19
 3733 0125 05       		.uleb128 0x5
 3734 0126 DF020000 		.4byte	.LASF20
 3735 012a 03       		.byte	0x3
 3736 012b 50       		.byte	0x50
 3737 012c 30010000 		.4byte	0x130
 3738 0130 04       		.uleb128 0x4
 3739 0131 04       		.byte	0x4
 3740 0132 07       		.byte	0x7
 3741 0133 E6030000 		.4byte	.LASF21
 3742 0137 04       		.uleb128 0x4
 3743 0138 08       		.byte	0x8
ARM GAS  C:\Users\Mariano\AppData\Local\Temp\ccqsEEdp.s 			page 88


 3744 0139 05       		.byte	0x5
 3745 013a 8E010000 		.4byte	.LASF22
 3746 013e 04       		.uleb128 0x4
 3747 013f 08       		.byte	0x8
 3748 0140 07       		.byte	0x7
 3749 0141 9C010000 		.4byte	.LASF23
 3750 0145 06       		.uleb128 0x6
 3751 0146 04       		.byte	0x4
 3752 0147 05       		.byte	0x5
 3753 0148 696E7400 		.ascii	"int\000"
 3754 014c 04       		.uleb128 0x4
 3755 014d 04       		.byte	0x4
 3756 014e 07       		.byte	0x7
 3757 014f EE020000 		.4byte	.LASF24
 3758 0153 04       		.uleb128 0x4
 3759 0154 04       		.byte	0x4
 3760 0155 07       		.byte	0x7
 3761 0156 85000000 		.4byte	.LASF25
 3762 015a 07       		.uleb128 0x7
 3763 015b 25010000 		.4byte	0x125
 3764 015f 08       		.uleb128 0x8
 3765 0160 25010000 		.4byte	0x125
 3766 0164 6F010000 		.4byte	0x16f
 3767 0168 09       		.uleb128 0x9
 3768 0169 53010000 		.4byte	0x153
 3769 016d 01       		.byte	0x1
 3770 016e 00       		.byte	0
 3771 016f 07       		.uleb128 0x7
 3772 0170 13010000 		.4byte	0x113
 3773 0174 0A       		.uleb128 0xa
 3774 0175 2C       		.byte	0x2c
 3775 0176 04       		.byte	0x4
 3776 0177 6902     		.2byte	0x269
 3777 0179 50020000 		.4byte	0x250
 3778 017d 0B       		.uleb128 0xb
 3779 017e 6C030000 		.4byte	.LASF26
 3780 0182 04       		.byte	0x4
 3781 0183 6B02     		.2byte	0x26b
 3782 0185 5A010000 		.4byte	0x15a
 3783 0189 02       		.byte	0x2
 3784 018a 23       		.byte	0x23
 3785 018b 00       		.uleb128 0
 3786 018c 0B       		.uleb128 0xb
 3787 018d 28010000 		.4byte	.LASF27
 3788 0191 04       		.byte	0x4
 3789 0192 6C02     		.2byte	0x26c
 3790 0194 6F010000 		.4byte	0x16f
 3791 0198 02       		.byte	0x2
 3792 0199 23       		.byte	0x23
 3793 019a 04       		.uleb128 0x4
 3794 019b 0B       		.uleb128 0xb
 3795 019c 8C030000 		.4byte	.LASF28
 3796 01a0 04       		.byte	0x4
 3797 01a1 6D02     		.2byte	0x26d
 3798 01a3 13010000 		.4byte	0x113
 3799 01a7 02       		.byte	0x2
 3800 01a8 23       		.byte	0x23
ARM GAS  C:\Users\Mariano\AppData\Local\Temp\ccqsEEdp.s 			page 89


 3801 01a9 06       		.uleb128 0x6
 3802 01aa 0B       		.uleb128 0xb
 3803 01ab AC030000 		.4byte	.LASF29
 3804 01af 04       		.byte	0x4
 3805 01b0 6E02     		.2byte	0x26e
 3806 01b2 5A010000 		.4byte	0x15a
 3807 01b6 02       		.byte	0x2
 3808 01b7 23       		.byte	0x23
 3809 01b8 08       		.uleb128 0x8
 3810 01b9 0B       		.uleb128 0xb
 3811 01ba 17030000 		.4byte	.LASF30
 3812 01be 04       		.byte	0x4
 3813 01bf 6F02     		.2byte	0x26f
 3814 01c1 5A010000 		.4byte	0x15a
 3815 01c5 02       		.byte	0x2
 3816 01c6 23       		.byte	0x23
 3817 01c7 0C       		.uleb128 0xc
 3818 01c8 0C       		.uleb128 0xc
 3819 01c9 49445200 		.ascii	"IDR\000"
 3820 01cd 04       		.byte	0x4
 3821 01ce 7002     		.2byte	0x270
 3822 01d0 6F010000 		.4byte	0x16f
 3823 01d4 02       		.byte	0x2
 3824 01d5 23       		.byte	0x23
 3825 01d6 10       		.uleb128 0x10
 3826 01d7 0B       		.uleb128 0xb
 3827 01d8 96030000 		.4byte	.LASF31
 3828 01dc 04       		.byte	0x4
 3829 01dd 7102     		.2byte	0x271
 3830 01df 13010000 		.4byte	0x113
 3831 01e3 02       		.byte	0x2
 3832 01e4 23       		.byte	0x23
 3833 01e5 12       		.uleb128 0x12
 3834 01e6 0C       		.uleb128 0xc
 3835 01e7 4F445200 		.ascii	"ODR\000"
 3836 01eb 04       		.byte	0x4
 3837 01ec 7202     		.2byte	0x272
 3838 01ee 6F010000 		.4byte	0x16f
 3839 01f2 02       		.byte	0x2
 3840 01f3 23       		.byte	0x23
 3841 01f4 14       		.uleb128 0x14
 3842 01f5 0B       		.uleb128 0xb
 3843 01f6 FB000000 		.4byte	.LASF32
 3844 01fa 04       		.byte	0x4
 3845 01fb 7302     		.2byte	0x273
 3846 01fd 13010000 		.4byte	0x113
 3847 0201 02       		.byte	0x2
 3848 0202 23       		.byte	0x23
 3849 0203 16       		.uleb128 0x16
 3850 0204 0B       		.uleb128 0xb
 3851 0205 5C020000 		.4byte	.LASF33
 3852 0209 04       		.byte	0x4
 3853 020a 7402     		.2byte	0x274
 3854 020c 5A010000 		.4byte	0x15a
 3855 0210 02       		.byte	0x2
 3856 0211 23       		.byte	0x23
 3857 0212 18       		.uleb128 0x18
ARM GAS  C:\Users\Mariano\AppData\Local\Temp\ccqsEEdp.s 			page 90


 3858 0213 0B       		.uleb128 0xb
 3859 0214 56040000 		.4byte	.LASF34
 3860 0218 04       		.byte	0x4
 3861 0219 7502     		.2byte	0x275
 3862 021b 5A010000 		.4byte	0x15a
 3863 021f 02       		.byte	0x2
 3864 0220 23       		.byte	0x23
 3865 0221 1C       		.uleb128 0x1c
 3866 0222 0C       		.uleb128 0xc
 3867 0223 41465200 		.ascii	"AFR\000"
 3868 0227 04       		.byte	0x4
 3869 0228 7602     		.2byte	0x276
 3870 022a 50020000 		.4byte	0x250
 3871 022e 02       		.byte	0x2
 3872 022f 23       		.byte	0x23
 3873 0230 20       		.uleb128 0x20
 3874 0231 0C       		.uleb128 0xc
 3875 0232 42525200 		.ascii	"BRR\000"
 3876 0236 04       		.byte	0x4
 3877 0237 7702     		.2byte	0x277
 3878 0239 6F010000 		.4byte	0x16f
 3879 023d 02       		.byte	0x2
 3880 023e 23       		.byte	0x23
 3881 023f 28       		.uleb128 0x28
 3882 0240 0B       		.uleb128 0xb
 3883 0241 05010000 		.4byte	.LASF35
 3884 0245 04       		.byte	0x4
 3885 0246 7802     		.2byte	0x278
 3886 0248 13010000 		.4byte	0x113
 3887 024c 02       		.byte	0x2
 3888 024d 23       		.byte	0x23
 3889 024e 2A       		.uleb128 0x2a
 3890 024f 00       		.byte	0
 3891 0250 07       		.uleb128 0x7
 3892 0251 5F010000 		.4byte	0x15f
 3893 0255 0D       		.uleb128 0xd
 3894 0256 5B040000 		.4byte	.LASF36
 3895 025a 04       		.byte	0x4
 3896 025b 7902     		.2byte	0x279
 3897 025d 74010000 		.4byte	0x174
 3898 0261 04       		.uleb128 0x4
 3899 0262 01       		.byte	0x1
 3900 0263 08       		.byte	0x8
 3901 0264 47030000 		.4byte	.LASF37
 3902 0268 0E       		.uleb128 0xe
 3903 0269 04       		.byte	0x4
 3904 026a 6E020000 		.4byte	0x26e
 3905 026e 0F       		.uleb128 0xf
 3906 026f 61020000 		.4byte	0x261
 3907 0273 08       		.uleb128 0x8
 3908 0274 EC000000 		.4byte	0xec
 3909 0278 83020000 		.4byte	0x283
 3910 027c 09       		.uleb128 0x9
 3911 027d 53010000 		.4byte	0x153
 3912 0281 02       		.byte	0x2
 3913 0282 00       		.byte	0
 3914 0283 10       		.uleb128 0x10
ARM GAS  C:\Users\Mariano\AppData\Local\Temp\ccqsEEdp.s 			page 91


 3915 0284 01       		.byte	0x1
 3916 0285 A0030000 		.4byte	.LASF41
 3917 0289 01       		.byte	0x1
 3918 028a 42       		.byte	0x42
 3919 028b 01       		.byte	0x1
 3920 028c EC000000 		.4byte	0xec
 3921 0290 00000000 		.4byte	.LFB20
 3922 0294 28090000 		.4byte	.LFE20
 3923 0298 00000000 		.4byte	.LLST0
 3924 029c 01       		.byte	0x1
 3925 029d F2020000 		.4byte	0x2f2
 3926 02a1 11       		.uleb128 0x11
 3927 02a2 A3000000 		.4byte	.LASF38
 3928 02a6 01       		.byte	0x1
 3929 02a7 44       		.byte	0x44
 3930 02a8 EC000000 		.4byte	0xec
 3931 02ac 02       		.byte	0x2
 3932 02ad 91       		.byte	0x91
 3933 02ae 77       		.sleb128 -9
 3934 02af 11       		.uleb128 0x11
 3935 02b0 4C030000 		.4byte	.LASF39
 3936 02b4 01       		.byte	0x1
 3937 02b5 45       		.byte	0x45
 3938 02b6 EC000000 		.4byte	0xec
 3939 02ba 02       		.byte	0x2
 3940 02bb 91       		.byte	0x91
 3941 02bc 73       		.sleb128 -13
 3942 02bd 12       		.uleb128 0x12
 3943 02be AC050000 		.4byte	.LBB2
 3944 02c2 7C060000 		.4byte	.LBE2
 3945 02c6 13       		.uleb128 0x13
 3946 02c7 6900     		.ascii	"i\000"
 3947 02c9 01       		.byte	0x1
 3948 02ca 6901     		.2byte	0x169
 3949 02cc EC000000 		.4byte	0xec
 3950 02d0 02       		.byte	0x2
 3951 02d1 91       		.byte	0x91
 3952 02d2 76       		.sleb128 -10
 3953 02d3 13       		.uleb128 0x13
 3954 02d4 696900   		.ascii	"ii\000"
 3955 02d7 01       		.byte	0x1
 3956 02d8 6A01     		.2byte	0x16a
 3957 02da F3000000 		.4byte	0xf3
 3958 02de 02       		.byte	0x2
 3959 02df 91       		.byte	0x91
 3960 02e0 74       		.sleb128 -12
 3961 02e1 14       		.uleb128 0x14
 3962 02e2 17040000 		.4byte	.LASF40
 3963 02e6 01       		.byte	0x1
 3964 02e7 6B01     		.2byte	0x16b
 3965 02e9 F2020000 		.4byte	0x2f2
 3966 02ed 02       		.byte	0x2
 3967 02ee 91       		.byte	0x91
 3968 02ef 5C       		.sleb128 -36
 3969 02f0 00       		.byte	0
 3970 02f1 00       		.byte	0
 3971 02f2 08       		.uleb128 0x8
ARM GAS  C:\Users\Mariano\AppData\Local\Temp\ccqsEEdp.s 			page 92


 3972 02f3 61020000 		.4byte	0x261
 3973 02f7 02030000 		.4byte	0x302
 3974 02fb 09       		.uleb128 0x9
 3975 02fc 53010000 		.4byte	0x153
 3976 0300 13       		.byte	0x13
 3977 0301 00       		.byte	0
 3978 0302 15       		.uleb128 0x15
 3979 0303 01       		.byte	0x1
 3980 0304 D3020000 		.4byte	.LASF42
 3981 0308 01       		.byte	0x1
 3982 0309 0E02     		.2byte	0x20e
 3983 030b 01       		.byte	0x1
 3984 030c EC000000 		.4byte	0xec
 3985 0310 00000000 		.4byte	.LFB21
 3986 0314 A60B0000 		.4byte	.LFE21
 3987 0318 2C000000 		.4byte	.LLST1
 3988 031c 01       		.byte	0x1
 3989 031d 85030000 		.4byte	0x385
 3990 0321 14       		.uleb128 0x14
 3991 0322 A3000000 		.4byte	.LASF38
 3992 0326 01       		.byte	0x1
 3993 0327 1002     		.2byte	0x210
 3994 0329 EC000000 		.4byte	0xec
 3995 032d 02       		.byte	0x2
 3996 032e 91       		.byte	0x91
 3997 032f 77       		.sleb128 -9
 3998 0330 14       		.uleb128 0x14
 3999 0331 4C030000 		.4byte	.LASF39
 4000 0335 01       		.byte	0x1
 4001 0336 1102     		.2byte	0x211
 4002 0338 EC000000 		.4byte	0xec
 4003 033c 02       		.byte	0x2
 4004 033d 91       		.byte	0x91
 4005 033e 76       		.sleb128 -10
 4006 033f 14       		.uleb128 0x14
 4007 0340 61020000 		.4byte	.LASF43
 4008 0344 01       		.byte	0x1
 4009 0345 1202     		.2byte	0x212
 4010 0347 EC000000 		.4byte	0xec
 4011 034b 02       		.byte	0x2
 4012 034c 91       		.byte	0x91
 4013 034d 71       		.sleb128 -15
 4014 034e 16       		.uleb128 0x16
 4015 034f 50080000 		.4byte	.LBB3
 4016 0353 8E080000 		.4byte	.LBE3
 4017 0357 6B030000 		.4byte	0x36b
 4018 035b 14       		.uleb128 0x14
 4019 035c E8020000 		.4byte	.LASF44
 4020 0360 01       		.byte	0x1
 4021 0361 7F03     		.2byte	0x37f
 4022 0363 F3000000 		.4byte	0xf3
 4023 0367 02       		.byte	0x2
 4024 0368 91       		.byte	0x91
 4025 0369 74       		.sleb128 -12
 4026 036a 00       		.byte	0
 4027 036b 12       		.uleb128 0x12
 4028 036c 30090000 		.4byte	.LBB4
ARM GAS  C:\Users\Mariano\AppData\Local\Temp\ccqsEEdp.s 			page 93


 4029 0370 76090000 		.4byte	.LBE4
 4030 0374 14       		.uleb128 0x14
 4031 0375 E8020000 		.4byte	.LASF44
 4032 0379 01       		.byte	0x1
 4033 037a A603     		.2byte	0x3a6
 4034 037c F3000000 		.4byte	0xf3
 4035 0380 02       		.byte	0x2
 4036 0381 91       		.byte	0x91
 4037 0382 72       		.sleb128 -14
 4038 0383 00       		.byte	0
 4039 0384 00       		.byte	0
 4040 0385 17       		.uleb128 0x17
 4041 0386 01       		.byte	0x1
 4042 0387 00000000 		.4byte	.LASF45
 4043 038b 01       		.byte	0x1
 4044 038c 0304     		.2byte	0x403
 4045 038e 01       		.byte	0x1
 4046 038f 00000000 		.4byte	.LFB22
 4047 0393 0C000000 		.4byte	.LFE22
 4048 0397 02       		.byte	0x2
 4049 0398 7D       		.byte	0x7d
 4050 0399 00       		.sleb128 0
 4051 039a 01       		.byte	0x1
 4052 039b 17       		.uleb128 0x17
 4053 039c 01       		.byte	0x1
 4054 039d BE010000 		.4byte	.LASF46
 4055 03a1 01       		.byte	0x1
 4056 03a2 0804     		.2byte	0x408
 4057 03a4 01       		.byte	0x1
 4058 03a5 00000000 		.4byte	.LFB23
 4059 03a9 0C000000 		.4byte	.LFE23
 4060 03ad 02       		.byte	0x2
 4061 03ae 7D       		.byte	0x7d
 4062 03af 00       		.sleb128 0
 4063 03b0 01       		.byte	0x1
 4064 03b1 18       		.uleb128 0x18
 4065 03b2 77010000 		.4byte	.LASF47
 4066 03b6 01       		.byte	0x1
 4067 03b7 18       		.byte	0x18
 4068 03b8 FA000000 		.4byte	0xfa
 4069 03bc 01       		.byte	0x1
 4070 03bd 01       		.byte	0x1
 4071 03be 18       		.uleb128 0x18
 4072 03bf 41000000 		.4byte	.LASF48
 4073 03c3 01       		.byte	0x1
 4074 03c4 1A       		.byte	0x1a
 4075 03c5 CB030000 		.4byte	0x3cb
 4076 03c9 01       		.byte	0x1
 4077 03ca 01       		.byte	0x1
 4078 03cb 07       		.uleb128 0x7
 4079 03cc EC000000 		.4byte	0xec
 4080 03d0 18       		.uleb128 0x18
 4081 03d1 06040000 		.4byte	.LASF49
 4082 03d5 01       		.byte	0x1
 4083 03d6 1B       		.byte	0x1b
 4084 03d7 DD030000 		.4byte	0x3dd
 4085 03db 01       		.byte	0x1
ARM GAS  C:\Users\Mariano\AppData\Local\Temp\ccqsEEdp.s 			page 94


 4086 03dc 01       		.byte	0x1
 4087 03dd 07       		.uleb128 0x7
 4088 03de F3000000 		.4byte	0xf3
 4089 03e2 18       		.uleb128 0x18
 4090 03e3 5E000000 		.4byte	.LASF50
 4091 03e7 01       		.byte	0x1
 4092 03e8 1C       		.byte	0x1c
 4093 03e9 DD030000 		.4byte	0x3dd
 4094 03ed 01       		.byte	0x1
 4095 03ee 01       		.byte	0x1
 4096 03ef 08       		.uleb128 0x8
 4097 03f0 68020000 		.4byte	0x268
 4098 03f4 FA030000 		.4byte	0x3fa
 4099 03f8 19       		.uleb128 0x19
 4100 03f9 00       		.byte	0
 4101 03fa 18       		.uleb128 0x18
 4102 03fb 93020000 		.4byte	.LASF51
 4103 03ff 01       		.byte	0x1
 4104 0400 22       		.byte	0x22
 4105 0401 EF030000 		.4byte	0x3ef
 4106 0405 01       		.byte	0x1
 4107 0406 01       		.byte	0x1
 4108 0407 18       		.uleb128 0x18
 4109 0408 01020000 		.4byte	.LASF52
 4110 040c 01       		.byte	0x1
 4111 040d 24       		.byte	0x24
 4112 040e CB030000 		.4byte	0x3cb
 4113 0412 01       		.byte	0x1
 4114 0413 01       		.byte	0x1
 4115 0414 18       		.uleb128 0x18
 4116 0415 11000000 		.4byte	.LASF53
 4117 0419 01       		.byte	0x1
 4118 041a 25       		.byte	0x25
 4119 041b DD030000 		.4byte	0x3dd
 4120 041f 01       		.byte	0x1
 4121 0420 01       		.byte	0x1
 4122 0421 18       		.uleb128 0x18
 4123 0422 4E010000 		.4byte	.LASF54
 4124 0426 01       		.byte	0x1
 4125 0427 26       		.byte	0x26
 4126 0428 CB030000 		.4byte	0x3cb
 4127 042c 01       		.byte	0x1
 4128 042d 01       		.byte	0x1
 4129 042e 08       		.uleb128 0x8
 4130 042f EC000000 		.4byte	0xec
 4131 0433 39040000 		.4byte	0x439
 4132 0437 19       		.uleb128 0x19
 4133 0438 00       		.byte	0
 4134 0439 18       		.uleb128 0x18
 4135 043a 3D040000 		.4byte	.LASF55
 4136 043e 01       		.byte	0x1
 4137 043f 29       		.byte	0x29
 4138 0440 46040000 		.4byte	0x446
 4139 0444 01       		.byte	0x1
 4140 0445 01       		.byte	0x1
 4141 0446 07       		.uleb128 0x7
 4142 0447 2E040000 		.4byte	0x42e
ARM GAS  C:\Users\Mariano\AppData\Local\Temp\ccqsEEdp.s 			page 95


 4143 044b 18       		.uleb128 0x18
 4144 044c 87030000 		.4byte	.LASF56
 4145 0450 01       		.byte	0x1
 4146 0451 2A       		.byte	0x2a
 4147 0452 58040000 		.4byte	0x458
 4148 0456 01       		.byte	0x1
 4149 0457 01       		.byte	0x1
 4150 0458 07       		.uleb128 0x7
 4151 0459 2E040000 		.4byte	0x42e
 4152 045d 1A       		.uleb128 0x1a
 4153 045e 56030000 		.4byte	.LASF57
 4154 0462 01       		.byte	0x1
 4155 0463 2D       		.byte	0x2d
 4156 0464 EC000000 		.4byte	0xec
 4157 0468 01       		.byte	0x1
 4158 0469 05       		.byte	0x5
 4159 046a 03       		.byte	0x3
 4160 046b 00000000 		.4byte	grouped_state
 4161 046f 1A       		.uleb128 0x1a
 4162 0470 2F010000 		.4byte	.LASF58
 4163 0474 01       		.byte	0x1
 4164 0475 2E       		.byte	0x2e
 4165 0476 EC000000 		.4byte	0xec
 4166 047a 01       		.byte	0x1
 4167 047b 05       		.byte	0x5
 4168 047c 03       		.byte	0x3
 4169 047d 00000000 		.4byte	grouped_selections
 4170 0481 1A       		.uleb128 0x1a
 4171 0482 B3010000 		.4byte	.LASF59
 4172 0486 01       		.byte	0x1
 4173 0487 2F       		.byte	0x2f
 4174 0488 F3000000 		.4byte	0xf3
 4175 048c 01       		.byte	0x1
 4176 048d 05       		.byte	0x5
 4177 048e 03       		.byte	0x3
 4178 048f 00000000 		.4byte	grouped_ii
 4179 0493 1A       		.uleb128 0x1a
 4180 0494 CB030000 		.4byte	.LASF60
 4181 0498 01       		.byte	0x1
 4182 0499 31       		.byte	0x31
 4183 049a EC000000 		.4byte	0xec
 4184 049e 01       		.byte	0x1
 4185 049f 05       		.byte	0x5
 4186 04a0 03       		.byte	0x3
 4187 04a1 00000000 		.4byte	grouped_dimming_last_value
 4188 04a5 1A       		.uleb128 0x1a
 4189 04a6 26000000 		.4byte	.LASF61
 4190 04aa 01       		.byte	0x1
 4191 04ab 32       		.byte	0x32
 4192 04ac EC000000 		.4byte	0xec
 4193 04b0 01       		.byte	0x1
 4194 04b1 05       		.byte	0x5
 4195 04b2 03       		.byte	0x3
 4196 04b3 00000000 		.4byte	grouped_dimming_last_slope
 4197 04b7 1A       		.uleb128 0x1a
 4198 04b8 43040000 		.4byte	.LASF62
 4199 04bc 01       		.byte	0x1
ARM GAS  C:\Users\Mariano\AppData\Local\Temp\ccqsEEdp.s 			page 96


 4200 04bd 34       		.byte	0x34
 4201 04be EC000000 		.4byte	0xec
 4202 04c2 01       		.byte	0x1
 4203 04c3 05       		.byte	0x5
 4204 04c4 03       		.byte	0x3
 4205 04c5 00000000 		.4byte	grouped_menu_state
 4206 04c9 1A       		.uleb128 0x1a
 4207 04ca 64030000 		.4byte	.LASF63
 4208 04ce 01       		.byte	0x1
 4209 04cf 38       		.byte	0x38
 4210 04d0 DB040000 		.4byte	0x4db
 4211 04d4 01       		.byte	0x1
 4212 04d5 05       		.byte	0x5
 4213 04d6 03       		.byte	0x3
 4214 04d7 00000000 		.4byte	s_sel_g
 4215 04db 0F       		.uleb128 0xf
 4216 04dc 73020000 		.4byte	0x273
 4217 04e0 1A       		.uleb128 0x1a
 4218 04e1 63010000 		.4byte	.LASF64
 4219 04e5 01       		.byte	0x1
 4220 04e6 3A       		.byte	0x3a
 4221 04e7 FA000000 		.4byte	0xfa
 4222 04eb 01       		.byte	0x1
 4223 04ec 05       		.byte	0x5
 4224 04ed 03       		.byte	0x3
 4225 04ee 00000000 		.4byte	GroupedStruct_local
 4226 04f2 1A       		.uleb128 0x1a
 4227 04f3 30030000 		.4byte	.LASF65
 4228 04f7 01       		.byte	0x1
 4229 04f8 3D       		.byte	0x3d
 4230 04f9 EC000000 		.4byte	0xec
 4231 04fd 01       		.byte	0x1
 4232 04fe 05       		.byte	0x5
 4233 04ff 03       		.byte	0x3
 4234 0500 00000000 		.4byte	grouped_slave_dim_last
 4235 0504 1A       		.uleb128 0x1a
 4236 0505 BB020000 		.4byte	.LASF66
 4237 0509 01       		.byte	0x1
 4238 050a 3E       		.byte	0x3e
 4239 050b EC000000 		.4byte	0xec
 4240 050f 01       		.byte	0x1
 4241 0510 05       		.byte	0x5
 4242 0511 03       		.byte	0x3
 4243 0512 00000000 		.4byte	grouped_slave_dim2_last
 4244 0516 00       		.byte	0
 4245              		.section	.debug_abbrev,"",%progbits
 4246              	.Ldebug_abbrev0:
 4247 0000 01       		.uleb128 0x1
 4248 0001 11       		.uleb128 0x11
 4249 0002 01       		.byte	0x1
 4250 0003 25       		.uleb128 0x25
 4251 0004 0E       		.uleb128 0xe
 4252 0005 13       		.uleb128 0x13
 4253 0006 0B       		.uleb128 0xb
 4254 0007 03       		.uleb128 0x3
 4255 0008 0E       		.uleb128 0xe
 4256 0009 1B       		.uleb128 0x1b
ARM GAS  C:\Users\Mariano\AppData\Local\Temp\ccqsEEdp.s 			page 97


 4257 000a 0E       		.uleb128 0xe
 4258 000b 55       		.uleb128 0x55
 4259 000c 06       		.uleb128 0x6
 4260 000d 11       		.uleb128 0x11
 4261 000e 01       		.uleb128 0x1
 4262 000f 52       		.uleb128 0x52
 4263 0010 01       		.uleb128 0x1
 4264 0011 10       		.uleb128 0x10
 4265 0012 06       		.uleb128 0x6
 4266 0013 00       		.byte	0
 4267 0014 00       		.byte	0
 4268 0015 02       		.uleb128 0x2
 4269 0016 13       		.uleb128 0x13
 4270 0017 01       		.byte	0x1
 4271 0018 03       		.uleb128 0x3
 4272 0019 0E       		.uleb128 0xe
 4273 001a 0B       		.uleb128 0xb
 4274 001b 0B       		.uleb128 0xb
 4275 001c 3A       		.uleb128 0x3a
 4276 001d 0B       		.uleb128 0xb
 4277 001e 3B       		.uleb128 0x3b
 4278 001f 0B       		.uleb128 0xb
 4279 0020 01       		.uleb128 0x1
 4280 0021 13       		.uleb128 0x13
 4281 0022 00       		.byte	0
 4282 0023 00       		.byte	0
 4283 0024 03       		.uleb128 0x3
 4284 0025 0D       		.uleb128 0xd
 4285 0026 00       		.byte	0
 4286 0027 03       		.uleb128 0x3
 4287 0028 0E       		.uleb128 0xe
 4288 0029 3A       		.uleb128 0x3a
 4289 002a 0B       		.uleb128 0xb
 4290 002b 3B       		.uleb128 0x3b
 4291 002c 0B       		.uleb128 0xb
 4292 002d 49       		.uleb128 0x49
 4293 002e 13       		.uleb128 0x13
 4294 002f 38       		.uleb128 0x38
 4295 0030 0A       		.uleb128 0xa
 4296 0031 00       		.byte	0
 4297 0032 00       		.byte	0
 4298 0033 04       		.uleb128 0x4
 4299 0034 24       		.uleb128 0x24
 4300 0035 00       		.byte	0
 4301 0036 0B       		.uleb128 0xb
 4302 0037 0B       		.uleb128 0xb
 4303 0038 3E       		.uleb128 0x3e
 4304 0039 0B       		.uleb128 0xb
 4305 003a 03       		.uleb128 0x3
 4306 003b 0E       		.uleb128 0xe
 4307 003c 00       		.byte	0
 4308 003d 00       		.byte	0
 4309 003e 05       		.uleb128 0x5
 4310 003f 16       		.uleb128 0x16
 4311 0040 00       		.byte	0
 4312 0041 03       		.uleb128 0x3
 4313 0042 0E       		.uleb128 0xe
ARM GAS  C:\Users\Mariano\AppData\Local\Temp\ccqsEEdp.s 			page 98


 4314 0043 3A       		.uleb128 0x3a
 4315 0044 0B       		.uleb128 0xb
 4316 0045 3B       		.uleb128 0x3b
 4317 0046 0B       		.uleb128 0xb
 4318 0047 49       		.uleb128 0x49
 4319 0048 13       		.uleb128 0x13
 4320 0049 00       		.byte	0
 4321 004a 00       		.byte	0
 4322 004b 06       		.uleb128 0x6
 4323 004c 24       		.uleb128 0x24
 4324 004d 00       		.byte	0
 4325 004e 0B       		.uleb128 0xb
 4326 004f 0B       		.uleb128 0xb
 4327 0050 3E       		.uleb128 0x3e
 4328 0051 0B       		.uleb128 0xb
 4329 0052 03       		.uleb128 0x3
 4330 0053 08       		.uleb128 0x8
 4331 0054 00       		.byte	0
 4332 0055 00       		.byte	0
 4333 0056 07       		.uleb128 0x7
 4334 0057 35       		.uleb128 0x35
 4335 0058 00       		.byte	0
 4336 0059 49       		.uleb128 0x49
 4337 005a 13       		.uleb128 0x13
 4338 005b 00       		.byte	0
 4339 005c 00       		.byte	0
 4340 005d 08       		.uleb128 0x8
 4341 005e 01       		.uleb128 0x1
 4342 005f 01       		.byte	0x1
 4343 0060 49       		.uleb128 0x49
 4344 0061 13       		.uleb128 0x13
 4345 0062 01       		.uleb128 0x1
 4346 0063 13       		.uleb128 0x13
 4347 0064 00       		.byte	0
 4348 0065 00       		.byte	0
 4349 0066 09       		.uleb128 0x9
 4350 0067 21       		.uleb128 0x21
 4351 0068 00       		.byte	0
 4352 0069 49       		.uleb128 0x49
 4353 006a 13       		.uleb128 0x13
 4354 006b 2F       		.uleb128 0x2f
 4355 006c 0B       		.uleb128 0xb
 4356 006d 00       		.byte	0
 4357 006e 00       		.byte	0
 4358 006f 0A       		.uleb128 0xa
 4359 0070 13       		.uleb128 0x13
 4360 0071 01       		.byte	0x1
 4361 0072 0B       		.uleb128 0xb
 4362 0073 0B       		.uleb128 0xb
 4363 0074 3A       		.uleb128 0x3a
 4364 0075 0B       		.uleb128 0xb
 4365 0076 3B       		.uleb128 0x3b
 4366 0077 05       		.uleb128 0x5
 4367 0078 01       		.uleb128 0x1
 4368 0079 13       		.uleb128 0x13
 4369 007a 00       		.byte	0
 4370 007b 00       		.byte	0
ARM GAS  C:\Users\Mariano\AppData\Local\Temp\ccqsEEdp.s 			page 99


 4371 007c 0B       		.uleb128 0xb
 4372 007d 0D       		.uleb128 0xd
 4373 007e 00       		.byte	0
 4374 007f 03       		.uleb128 0x3
 4375 0080 0E       		.uleb128 0xe
 4376 0081 3A       		.uleb128 0x3a
 4377 0082 0B       		.uleb128 0xb
 4378 0083 3B       		.uleb128 0x3b
 4379 0084 05       		.uleb128 0x5
 4380 0085 49       		.uleb128 0x49
 4381 0086 13       		.uleb128 0x13
 4382 0087 38       		.uleb128 0x38
 4383 0088 0A       		.uleb128 0xa
 4384 0089 00       		.byte	0
 4385 008a 00       		.byte	0
 4386 008b 0C       		.uleb128 0xc
 4387 008c 0D       		.uleb128 0xd
 4388 008d 00       		.byte	0
 4389 008e 03       		.uleb128 0x3
 4390 008f 08       		.uleb128 0x8
 4391 0090 3A       		.uleb128 0x3a
 4392 0091 0B       		.uleb128 0xb
 4393 0092 3B       		.uleb128 0x3b
 4394 0093 05       		.uleb128 0x5
 4395 0094 49       		.uleb128 0x49
 4396 0095 13       		.uleb128 0x13
 4397 0096 38       		.uleb128 0x38
 4398 0097 0A       		.uleb128 0xa
 4399 0098 00       		.byte	0
 4400 0099 00       		.byte	0
 4401 009a 0D       		.uleb128 0xd
 4402 009b 16       		.uleb128 0x16
 4403 009c 00       		.byte	0
 4404 009d 03       		.uleb128 0x3
 4405 009e 0E       		.uleb128 0xe
 4406 009f 3A       		.uleb128 0x3a
 4407 00a0 0B       		.uleb128 0xb
 4408 00a1 3B       		.uleb128 0x3b
 4409 00a2 05       		.uleb128 0x5
 4410 00a3 49       		.uleb128 0x49
 4411 00a4 13       		.uleb128 0x13
 4412 00a5 00       		.byte	0
 4413 00a6 00       		.byte	0
 4414 00a7 0E       		.uleb128 0xe
 4415 00a8 0F       		.uleb128 0xf
 4416 00a9 00       		.byte	0
 4417 00aa 0B       		.uleb128 0xb
 4418 00ab 0B       		.uleb128 0xb
 4419 00ac 49       		.uleb128 0x49
 4420 00ad 13       		.uleb128 0x13
 4421 00ae 00       		.byte	0
 4422 00af 00       		.byte	0
 4423 00b0 0F       		.uleb128 0xf
 4424 00b1 26       		.uleb128 0x26
 4425 00b2 00       		.byte	0
 4426 00b3 49       		.uleb128 0x49
 4427 00b4 13       		.uleb128 0x13
ARM GAS  C:\Users\Mariano\AppData\Local\Temp\ccqsEEdp.s 			page 100


 4428 00b5 00       		.byte	0
 4429 00b6 00       		.byte	0
 4430 00b7 10       		.uleb128 0x10
 4431 00b8 2E       		.uleb128 0x2e
 4432 00b9 01       		.byte	0x1
 4433 00ba 3F       		.uleb128 0x3f
 4434 00bb 0C       		.uleb128 0xc
 4435 00bc 03       		.uleb128 0x3
 4436 00bd 0E       		.uleb128 0xe
 4437 00be 3A       		.uleb128 0x3a
 4438 00bf 0B       		.uleb128 0xb
 4439 00c0 3B       		.uleb128 0x3b
 4440 00c1 0B       		.uleb128 0xb
 4441 00c2 27       		.uleb128 0x27
 4442 00c3 0C       		.uleb128 0xc
 4443 00c4 49       		.uleb128 0x49
 4444 00c5 13       		.uleb128 0x13
 4445 00c6 11       		.uleb128 0x11
 4446 00c7 01       		.uleb128 0x1
 4447 00c8 12       		.uleb128 0x12
 4448 00c9 01       		.uleb128 0x1
 4449 00ca 40       		.uleb128 0x40
 4450 00cb 06       		.uleb128 0x6
 4451 00cc 9642     		.uleb128 0x2116
 4452 00ce 0C       		.uleb128 0xc
 4453 00cf 01       		.uleb128 0x1
 4454 00d0 13       		.uleb128 0x13
 4455 00d1 00       		.byte	0
 4456 00d2 00       		.byte	0
 4457 00d3 11       		.uleb128 0x11
 4458 00d4 34       		.uleb128 0x34
 4459 00d5 00       		.byte	0
 4460 00d6 03       		.uleb128 0x3
 4461 00d7 0E       		.uleb128 0xe
 4462 00d8 3A       		.uleb128 0x3a
 4463 00d9 0B       		.uleb128 0xb
 4464 00da 3B       		.uleb128 0x3b
 4465 00db 0B       		.uleb128 0xb
 4466 00dc 49       		.uleb128 0x49
 4467 00dd 13       		.uleb128 0x13
 4468 00de 02       		.uleb128 0x2
 4469 00df 0A       		.uleb128 0xa
 4470 00e0 00       		.byte	0
 4471 00e1 00       		.byte	0
 4472 00e2 12       		.uleb128 0x12
 4473 00e3 0B       		.uleb128 0xb
 4474 00e4 01       		.byte	0x1
 4475 00e5 11       		.uleb128 0x11
 4476 00e6 01       		.uleb128 0x1
 4477 00e7 12       		.uleb128 0x12
 4478 00e8 01       		.uleb128 0x1
 4479 00e9 00       		.byte	0
 4480 00ea 00       		.byte	0
 4481 00eb 13       		.uleb128 0x13
 4482 00ec 34       		.uleb128 0x34
 4483 00ed 00       		.byte	0
 4484 00ee 03       		.uleb128 0x3
ARM GAS  C:\Users\Mariano\AppData\Local\Temp\ccqsEEdp.s 			page 101


 4485 00ef 08       		.uleb128 0x8
 4486 00f0 3A       		.uleb128 0x3a
 4487 00f1 0B       		.uleb128 0xb
 4488 00f2 3B       		.uleb128 0x3b
 4489 00f3 05       		.uleb128 0x5
 4490 00f4 49       		.uleb128 0x49
 4491 00f5 13       		.uleb128 0x13
 4492 00f6 02       		.uleb128 0x2
 4493 00f7 0A       		.uleb128 0xa
 4494 00f8 00       		.byte	0
 4495 00f9 00       		.byte	0
 4496 00fa 14       		.uleb128 0x14
 4497 00fb 34       		.uleb128 0x34
 4498 00fc 00       		.byte	0
 4499 00fd 03       		.uleb128 0x3
 4500 00fe 0E       		.uleb128 0xe
 4501 00ff 3A       		.uleb128 0x3a
 4502 0100 0B       		.uleb128 0xb
 4503 0101 3B       		.uleb128 0x3b
 4504 0102 05       		.uleb128 0x5
 4505 0103 49       		.uleb128 0x49
 4506 0104 13       		.uleb128 0x13
 4507 0105 02       		.uleb128 0x2
 4508 0106 0A       		.uleb128 0xa
 4509 0107 00       		.byte	0
 4510 0108 00       		.byte	0
 4511 0109 15       		.uleb128 0x15
 4512 010a 2E       		.uleb128 0x2e
 4513 010b 01       		.byte	0x1
 4514 010c 3F       		.uleb128 0x3f
 4515 010d 0C       		.uleb128 0xc
 4516 010e 03       		.uleb128 0x3
 4517 010f 0E       		.uleb128 0xe
 4518 0110 3A       		.uleb128 0x3a
 4519 0111 0B       		.uleb128 0xb
 4520 0112 3B       		.uleb128 0x3b
 4521 0113 05       		.uleb128 0x5
 4522 0114 27       		.uleb128 0x27
 4523 0115 0C       		.uleb128 0xc
 4524 0116 49       		.uleb128 0x49
 4525 0117 13       		.uleb128 0x13
 4526 0118 11       		.uleb128 0x11
 4527 0119 01       		.uleb128 0x1
 4528 011a 12       		.uleb128 0x12
 4529 011b 01       		.uleb128 0x1
 4530 011c 40       		.uleb128 0x40
 4531 011d 06       		.uleb128 0x6
 4532 011e 9642     		.uleb128 0x2116
 4533 0120 0C       		.uleb128 0xc
 4534 0121 01       		.uleb128 0x1
 4535 0122 13       		.uleb128 0x13
 4536 0123 00       		.byte	0
 4537 0124 00       		.byte	0
 4538 0125 16       		.uleb128 0x16
 4539 0126 0B       		.uleb128 0xb
 4540 0127 01       		.byte	0x1
 4541 0128 11       		.uleb128 0x11
ARM GAS  C:\Users\Mariano\AppData\Local\Temp\ccqsEEdp.s 			page 102


 4542 0129 01       		.uleb128 0x1
 4543 012a 12       		.uleb128 0x12
 4544 012b 01       		.uleb128 0x1
 4545 012c 01       		.uleb128 0x1
 4546 012d 13       		.uleb128 0x13
 4547 012e 00       		.byte	0
 4548 012f 00       		.byte	0
 4549 0130 17       		.uleb128 0x17
 4550 0131 2E       		.uleb128 0x2e
 4551 0132 00       		.byte	0
 4552 0133 3F       		.uleb128 0x3f
 4553 0134 0C       		.uleb128 0xc
 4554 0135 03       		.uleb128 0x3
 4555 0136 0E       		.uleb128 0xe
 4556 0137 3A       		.uleb128 0x3a
 4557 0138 0B       		.uleb128 0xb
 4558 0139 3B       		.uleb128 0x3b
 4559 013a 05       		.uleb128 0x5
 4560 013b 27       		.uleb128 0x27
 4561 013c 0C       		.uleb128 0xc
 4562 013d 11       		.uleb128 0x11
 4563 013e 01       		.uleb128 0x1
 4564 013f 12       		.uleb128 0x12
 4565 0140 01       		.uleb128 0x1
 4566 0141 40       		.uleb128 0x40
 4567 0142 0A       		.uleb128 0xa
 4568 0143 9742     		.uleb128 0x2117
 4569 0145 0C       		.uleb128 0xc
 4570 0146 00       		.byte	0
 4571 0147 00       		.byte	0
 4572 0148 18       		.uleb128 0x18
 4573 0149 34       		.uleb128 0x34
 4574 014a 00       		.byte	0
 4575 014b 03       		.uleb128 0x3
 4576 014c 0E       		.uleb128 0xe
 4577 014d 3A       		.uleb128 0x3a
 4578 014e 0B       		.uleb128 0xb
 4579 014f 3B       		.uleb128 0x3b
 4580 0150 0B       		.uleb128 0xb
 4581 0151 49       		.uleb128 0x49
 4582 0152 13       		.uleb128 0x13
 4583 0153 3F       		.uleb128 0x3f
 4584 0154 0C       		.uleb128 0xc
 4585 0155 3C       		.uleb128 0x3c
 4586 0156 0C       		.uleb128 0xc
 4587 0157 00       		.byte	0
 4588 0158 00       		.byte	0
 4589 0159 19       		.uleb128 0x19
 4590 015a 21       		.uleb128 0x21
 4591 015b 00       		.byte	0
 4592 015c 00       		.byte	0
 4593 015d 00       		.byte	0
 4594 015e 1A       		.uleb128 0x1a
 4595 015f 34       		.uleb128 0x34
 4596 0160 00       		.byte	0
 4597 0161 03       		.uleb128 0x3
 4598 0162 0E       		.uleb128 0xe
ARM GAS  C:\Users\Mariano\AppData\Local\Temp\ccqsEEdp.s 			page 103


 4599 0163 3A       		.uleb128 0x3a
 4600 0164 0B       		.uleb128 0xb
 4601 0165 3B       		.uleb128 0x3b
 4602 0166 0B       		.uleb128 0xb
 4603 0167 49       		.uleb128 0x49
 4604 0168 13       		.uleb128 0x13
 4605 0169 3F       		.uleb128 0x3f
 4606 016a 0C       		.uleb128 0xc
 4607 016b 02       		.uleb128 0x2
 4608 016c 0A       		.uleb128 0xa
 4609 016d 00       		.byte	0
 4610 016e 00       		.byte	0
 4611 016f 00       		.byte	0
 4612              		.section	.debug_loc,"",%progbits
 4613              	.Ldebug_loc0:
 4614              	.LLST0:
 4615 0000 00000000 		.4byte	.LFB20
 4616 0004 02000000 		.4byte	.LCFI0
 4617 0008 0200     		.2byte	0x2
 4618 000a 7D       		.byte	0x7d
 4619 000b 00       		.sleb128 0
 4620 000c 02000000 		.4byte	.LCFI0
 4621 0010 04000000 		.4byte	.LCFI1
 4622 0014 0200     		.2byte	0x2
 4623 0016 7D       		.byte	0x7d
 4624 0017 08       		.sleb128 8
 4625 0018 04000000 		.4byte	.LCFI1
 4626 001c 28090000 		.4byte	.LFE20
 4627 0020 0200     		.2byte	0x2
 4628 0022 7D       		.byte	0x7d
 4629 0023 28       		.sleb128 40
 4630 0024 00000000 		.4byte	0
 4631 0028 00000000 		.4byte	0
 4632              	.LLST1:
 4633 002c 00000000 		.4byte	.LFB21
 4634 0030 02000000 		.4byte	.LCFI2
 4635 0034 0200     		.2byte	0x2
 4636 0036 7D       		.byte	0x7d
 4637 0037 00       		.sleb128 0
 4638 0038 02000000 		.4byte	.LCFI2
 4639 003c 04000000 		.4byte	.LCFI3
 4640 0040 0200     		.2byte	0x2
 4641 0042 7D       		.byte	0x7d
 4642 0043 08       		.sleb128 8
 4643 0044 04000000 		.4byte	.LCFI3
 4644 0048 A60B0000 		.4byte	.LFE21
 4645 004c 0200     		.2byte	0x2
 4646 004e 7D       		.byte	0x7d
 4647 004f 18       		.sleb128 24
 4648 0050 00000000 		.4byte	0
 4649 0054 00000000 		.4byte	0
 4650              		.section	.debug_aranges,"",%progbits
 4651 0000 34000000 		.4byte	0x34
 4652 0004 0200     		.2byte	0x2
 4653 0006 00000000 		.4byte	.Ldebug_info0
 4654 000a 04       		.byte	0x4
 4655 000b 00       		.byte	0
ARM GAS  C:\Users\Mariano\AppData\Local\Temp\ccqsEEdp.s 			page 104


 4656 000c 0000     		.2byte	0
 4657 000e 0000     		.2byte	0
 4658 0010 00000000 		.4byte	.LFB20
 4659 0014 28090000 		.4byte	.LFE20-.LFB20
 4660 0018 00000000 		.4byte	.LFB21
 4661 001c A60B0000 		.4byte	.LFE21-.LFB21
 4662 0020 00000000 		.4byte	.LFB22
 4663 0024 0C000000 		.4byte	.LFE22-.LFB22
 4664 0028 00000000 		.4byte	.LFB23
 4665 002c 0C000000 		.4byte	.LFE23-.LFB23
 4666 0030 00000000 		.4byte	0
 4667 0034 00000000 		.4byte	0
 4668              		.section	.debug_ranges,"",%progbits
 4669              	.Ldebug_ranges0:
 4670 0000 00000000 		.4byte	.LFB20
 4671 0004 28090000 		.4byte	.LFE20
 4672 0008 00000000 		.4byte	.LFB21
 4673 000c A60B0000 		.4byte	.LFE21
 4674 0010 00000000 		.4byte	.LFB22
 4675 0014 0C000000 		.4byte	.LFE22
 4676 0018 00000000 		.4byte	.LFB23
 4677 001c 0C000000 		.4byte	.LFE23
 4678 0020 00000000 		.4byte	0
 4679 0024 00000000 		.4byte	0
 4680              		.section	.debug_line,"",%progbits
 4681              	.Ldebug_line0:
 4682 0000 EF030000 		.section	.debug_str,"MS",%progbits,1
 4682      0200D900 
 4682      00000201 
 4682      FB0E0D00 
 4682      01010101 
 4683              	.LASF45:
 4684 0000 46756E63 		.ascii	"FuncGroupedReset\000"
 4684      47726F75 
 4684      70656452 
 4684      65736574 
 4684      00
 4685              	.LASF53:
 4686 0011 444D585F 		.ascii	"DMX_channel_selected\000"
 4686      6368616E 
 4686      6E656C5F 
 4686      73656C65 
 4686      63746564 
 4687              	.LASF61:
 4688 0026 67726F75 		.ascii	"grouped_dimming_last_slope\000"
 4688      7065645F 
 4688      64696D6D 
 4688      696E675F 
 4688      6C617374 
 4689              	.LASF48:
 4690 0041 67726F75 		.ascii	"grouped_master_timeout_timer\000"
 4690      7065645F 
 4690      6D617374 
 4690      65725F74 
 4690      696D656F 
 4691              	.LASF50:
 4692 005e 7374616E 		.ascii	"standalone_enable_menu_timer\000"
ARM GAS  C:\Users\Mariano\AppData\Local\Temp\ccqsEEdp.s 			page 105


 4692      64616C6F 
 4692      6E655F65 
 4692      6E61626C 
 4692      655F6D65 
 4693              	.LASF16:
 4694 007b 73686F72 		.ascii	"short int\000"
 4694      7420696E 
 4694      7400
 4695              	.LASF25:
 4696 0085 73697A65 		.ascii	"sizetype\000"
 4696      74797065 
 4696      00
 4697              	.LASF7:
 4698 008e 706F7765 		.ascii	"power_up_timer_value\000"
 4698      725F7570 
 4698      5F74696D 
 4698      65725F76 
 4698      616C7565 
 4699              	.LASF38:
 4700 00a3 72657370 		.ascii	"resp\000"
 4700      00
 4701              	.LASF67:
 4702 00a8 474E5520 		.ascii	"GNU C 4.7.4 20130613 (release) [ARM/embedded-4_7-br"
 4702      4320342E 
 4702      372E3420 
 4702      32303133 
 4702      30363133 
 4703 00db 616E6368 		.ascii	"anch revision 200083]\000"
 4703      20726576 
 4703      6973696F 
 4703      6E203230 
 4703      30303833 
 4704              	.LASF2:
 4705 00f1 6C64725F 		.ascii	"ldr_value\000"
 4705      76616C75 
 4705      6500
 4706              	.LASF32:
 4707 00fb 52455345 		.ascii	"RESERVED2\000"
 4707      52564544 
 4707      3200
 4708              	.LASF35:
 4709 0105 52455345 		.ascii	"RESERVED3\000"
 4709      52564544 
 4709      3300
 4710              	.LASF3:
 4711 010f 6D61785F 		.ascii	"max_dimmer_value_percent\000"
 4711      64696D6D 
 4711      65725F76 
 4711      616C7565 
 4711      5F706572 
 4712              	.LASF27:
 4713 0128 4F545950 		.ascii	"OTYPER\000"
 4713      455200
 4714              	.LASF58:
 4715 012f 67726F75 		.ascii	"grouped_selections\000"
 4715      7065645F 
 4715      73656C65 
ARM GAS  C:\Users\Mariano\AppData\Local\Temp\ccqsEEdp.s 			page 106


 4715      6374696F 
 4715      6E7300
 4716              	.LASF15:
 4717 0142 7369676E 		.ascii	"signed char\000"
 4717      65642063 
 4717      68617200 
 4718              	.LASF54:
 4719 014e 444D585F 		.ascii	"DMX_channel_quantity\000"
 4719      6368616E 
 4719      6E656C5F 
 4719      7175616E 
 4719      74697479 
 4720              	.LASF64:
 4721 0163 47726F75 		.ascii	"GroupedStruct_local\000"
 4721      70656453 
 4721      74727563 
 4721      745F6C6F 
 4721      63616C00 
 4722              	.LASF47:
 4723 0177 47726F75 		.ascii	"GroupedStruct_constant\000"
 4723      70656453 
 4723      74727563 
 4723      745F636F 
 4723      6E737461 
 4724              	.LASF22:
 4725 018e 6C6F6E67 		.ascii	"long long int\000"
 4725      206C6F6E 
 4725      6720696E 
 4725      7400
 4726              	.LASF23:
 4727 019c 6C6F6E67 		.ascii	"long long unsigned int\000"
 4727      206C6F6E 
 4727      6720756E 
 4727      7369676E 
 4727      65642069 
 4728              	.LASF59:
 4729 01b3 67726F75 		.ascii	"grouped_ii\000"
 4729      7065645F 
 4729      696900
 4730              	.LASF46:
 4731 01be 4D656E75 		.ascii	"MenuGroupedReset\000"
 4731      47726F75 
 4731      70656452 
 4731      65736574 
 4731      00
 4732              	.LASF19:
 4733 01cf 6C6F6E67 		.ascii	"long int\000"
 4733      20696E74 
 4733      00
 4734              	.LASF5:
 4735 01d8 6D696E5F 		.ascii	"min_dimmer_value_percent\000"
 4735      64696D6D 
 4735      65725F76 
 4735      616C7565 
 4735      5F706572 
 4736              	.LASF17:
 4737 01f1 47726F75 		.ascii	"Grouped_Typedef\000"
ARM GAS  C:\Users\Mariano\AppData\Local\Temp\ccqsEEdp.s 			page 107


 4737      7065645F 
 4737      54797065 
 4737      64656600 
 4738              	.LASF52:
 4739 0201 5061636B 		.ascii	"Packet_Detected_Flag\000"
 4739      65745F44 
 4739      65746563 
 4739      7465645F 
 4739      466C6167 
 4740              	.LASF69:
 4741 0216 433A5C55 		.ascii	"C:\\Users\\Mariano\\Documents\\Proyectos\\eclipse_s"
 4741      73657273 
 4741      5C4D6172 
 4741      69616E6F 
 4741      5C446F63 
 4742 0244 746D3332 		.ascii	"tm32\\Planolux_DMX512_P1\000"
 4742      5C506C61 
 4742      6E6F6C75 
 4742      785F444D 
 4742      58353132 
 4743              	.LASF33:
 4744 025c 42535252 		.ascii	"BSRR\000"
 4744      00
 4745              	.LASF43:
 4746 0261 64756D6D 		.ascii	"dummy\000"
 4746      7900
 4747              	.LASF70:
 4748 0267 47726F75 		.ascii	"Grouped\000"
 4748      70656400 
 4749              	.LASF68:
 4750 026f 2E5C7372 		.ascii	".\\src\\grouped.c\000"
 4750      635C6772 
 4750      6F757065 
 4750      642E6300 
 4751              	.LASF10:
 4752 027f 67726F75 		.ascii	"grouped_dmx_channel\000"
 4752      7065645F 
 4752      646D785F 
 4752      6368616E 
 4752      6E656C00 
 4753              	.LASF51:
 4754 0293 735F626C 		.ascii	"s_blank_line\000"
 4754      616E6B5F 
 4754      6C696E65 
 4754      00
 4755              	.LASF13:
 4756 02a0 756E7369 		.ascii	"unsigned char\000"
 4756      676E6564 
 4756      20636861 
 4756      7200
 4757              	.LASF9:
 4758 02ae 67726F75 		.ascii	"grouped_mode\000"
 4758      7065645F 
 4758      6D6F6465 
 4758      00
 4759              	.LASF66:
 4760 02bb 67726F75 		.ascii	"grouped_slave_dim2_last\000"
ARM GAS  C:\Users\Mariano\AppData\Local\Temp\ccqsEEdp.s 			page 108


 4760      7065645F 
 4760      736C6176 
 4760      655F6469 
 4760      6D325F6C 
 4761              	.LASF42:
 4762 02d3 4D656E75 		.ascii	"MenuGrouped\000"
 4762      47726F75 
 4762      70656400 
 4763              	.LASF20:
 4764 02df 75696E74 		.ascii	"uint32_t\000"
 4764      33325F74 
 4764      00
 4765              	.LASF44:
 4766 02e8 6C6F6361 		.ascii	"local\000"
 4766      6C00
 4767              	.LASF24:
 4768 02ee 756E7369 		.ascii	"unsigned int\000"
 4768      676E6564 
 4768      20696E74 
 4768      00
 4769              	.LASF18:
 4770 02fb 75696E74 		.ascii	"uint16_t\000"
 4770      31365F74 
 4770      00
 4771              	.LASF0:
 4772 0304 6D6F7665 		.ascii	"move_sensor_enable\000"
 4772      5F73656E 
 4772      736F725F 
 4772      656E6162 
 4772      6C6500
 4773              	.LASF30:
 4774 0317 50555044 		.ascii	"PUPDR\000"
 4774      5200
 4775              	.LASF14:
 4776 031d 73686F72 		.ascii	"short unsigned int\000"
 4776      7420756E 
 4776      7369676E 
 4776      65642069 
 4776      6E7400
 4777              	.LASF65:
 4778 0330 67726F75 		.ascii	"grouped_slave_dim_last\000"
 4778      7065645F 
 4778      736C6176 
 4778      655F6469 
 4778      6D5F6C61 
 4779              	.LASF37:
 4780 0347 63686172 		.ascii	"char\000"
 4780      00
 4781              	.LASF39:
 4782 034c 72657370 		.ascii	"resp_down\000"
 4782      5F646F77 
 4782      6E00
 4783              	.LASF57:
 4784 0356 67726F75 		.ascii	"grouped_state\000"
 4784      7065645F 
 4784      73746174 
 4784      6500
ARM GAS  C:\Users\Mariano\AppData\Local\Temp\ccqsEEdp.s 			page 109


 4785              	.LASF63:
 4786 0364 735F7365 		.ascii	"s_sel_g\000"
 4786      6C5F6700 
 4787              	.LASF26:
 4788 036c 4D4F4445 		.ascii	"MODER\000"
 4788      5200
 4789              	.LASF4:
 4790 0372 6D61785F 		.ascii	"max_dimmer_value_dmx\000"
 4790      64696D6D 
 4790      65725F76 
 4790      616C7565 
 4790      5F646D78 
 4791              	.LASF56:
 4792 0387 64617461 		.ascii	"data\000"
 4792      00
 4793              	.LASF28:
 4794 038c 52455345 		.ascii	"RESERVED0\000"
 4794      52564544 
 4794      3000
 4795              	.LASF31:
 4796 0396 52455345 		.ascii	"RESERVED1\000"
 4796      52564544 
 4796      3100
 4797              	.LASF41:
 4798 03a0 46756E63 		.ascii	"FuncGrouped\000"
 4798      47726F75 
 4798      70656400 
 4799              	.LASF29:
 4800 03ac 4F535045 		.ascii	"OSPEEDR\000"
 4800      45445200 
 4801              	.LASF8:
 4802 03b4 64696D6D 		.ascii	"dimming_up_timer_value\000"
 4802      696E675F 
 4802      75705F74 
 4802      696D6572 
 4802      5F76616C 
 4803              	.LASF60:
 4804 03cb 67726F75 		.ascii	"grouped_dimming_last_value\000"
 4804      7065645F 
 4804      64696D6D 
 4804      696E675F 
 4804      6C617374 
 4805              	.LASF21:
 4806 03e6 6C6F6E67 		.ascii	"long unsigned int\000"
 4806      20756E73 
 4806      69676E65 
 4806      6420696E 
 4806      7400
 4807              	.LASF11:
 4808 03f8 64756D6D 		.ascii	"dummy1\000"
 4808      793100
 4809              	.LASF12:
 4810 03ff 64756D6D 		.ascii	"dummy2\000"
 4810      793200
 4811              	.LASF49:
 4812 0406 7374616E 		.ascii	"standalone_timer\000"
 4812      64616C6F 
ARM GAS  C:\Users\Mariano\AppData\Local\Temp\ccqsEEdp.s 			page 110


 4812      6E655F74 
 4812      696D6572 
 4812      00
 4813              	.LASF40:
 4814 0417 735F6C63 		.ascii	"s_lcd\000"
 4814      6400
 4815              	.LASF1:
 4816 041d 6C64725F 		.ascii	"ldr_enable\000"
 4816      656E6162 
 4816      6C6500
 4817              	.LASF6:
 4818 0428 6D696E5F 		.ascii	"min_dimmer_value_dmx\000"
 4818      64696D6D 
 4818      65725F76 
 4818      616C7565 
 4818      5F646D78 
 4819              	.LASF55:
 4820 043d 64617461 		.ascii	"data1\000"
 4820      3100
 4821              	.LASF62:
 4822 0443 67726F75 		.ascii	"grouped_menu_state\000"
 4822      7065645F 
 4822      6D656E75 
 4822      5F737461 
 4822      746500
 4823              	.LASF34:
 4824 0456 4C434B52 		.ascii	"LCKR\000"
 4824      00
 4825              	.LASF36:
 4826 045b 4750494F 		.ascii	"GPIO_TypeDef\000"
 4826      5F547970 
 4826      65446566 
 4826      00
 4827              		.ident	"GCC: (GNU Tools for ARM Embedded Processors) 4.7.4 20130613 (release) [ARM/embedded-4_7-br
ARM GAS  C:\Users\Mariano\AppData\Local\Temp\ccqsEEdp.s 			page 111


DEFINED SYMBOLS
                            *ABS*:00000000 grouped.c
C:\Users\Mariano\AppData\Local\Temp\ccqsEEdp.s:53     .bss.grouped_state:00000000 grouped_state
C:\Users\Mariano\AppData\Local\Temp\ccqsEEdp.s:54     .bss.grouped_state:00000000 $d
C:\Users\Mariano\AppData\Local\Temp\ccqsEEdp.s:59     .bss.grouped_selections:00000000 grouped_selections
C:\Users\Mariano\AppData\Local\Temp\ccqsEEdp.s:60     .bss.grouped_selections:00000000 $d
C:\Users\Mariano\AppData\Local\Temp\ccqsEEdp.s:66     .bss.grouped_ii:00000000 grouped_ii
C:\Users\Mariano\AppData\Local\Temp\ccqsEEdp.s:63     .bss.grouped_ii:00000000 $d
C:\Users\Mariano\AppData\Local\Temp\ccqsEEdp.s:72     .bss.grouped_dimming_last_value:00000000 grouped_dimming_last_value
C:\Users\Mariano\AppData\Local\Temp\ccqsEEdp.s:73     .bss.grouped_dimming_last_value:00000000 $d
C:\Users\Mariano\AppData\Local\Temp\ccqsEEdp.s:78     .bss.grouped_dimming_last_slope:00000000 grouped_dimming_last_slope
C:\Users\Mariano\AppData\Local\Temp\ccqsEEdp.s:79     .bss.grouped_dimming_last_slope:00000000 $d
C:\Users\Mariano\AppData\Local\Temp\ccqsEEdp.s:84     .bss.grouped_menu_state:00000000 grouped_menu_state
C:\Users\Mariano\AppData\Local\Temp\ccqsEEdp.s:85     .bss.grouped_menu_state:00000000 $d
C:\Users\Mariano\AppData\Local\Temp\ccqsEEdp.s:91     .rodata.s_sel_g:00000000 s_sel_g
C:\Users\Mariano\AppData\Local\Temp\ccqsEEdp.s:88     .rodata.s_sel_g:00000000 $d
                            *COM*:00000012 GroupedStruct_local
C:\Users\Mariano\AppData\Local\Temp\ccqsEEdp.s:100    .bss.grouped_slave_dim_last:00000000 grouped_slave_dim_last
C:\Users\Mariano\AppData\Local\Temp\ccqsEEdp.s:101    .bss.grouped_slave_dim_last:00000000 $d
C:\Users\Mariano\AppData\Local\Temp\ccqsEEdp.s:106    .bss.grouped_slave_dim2_last:00000000 grouped_slave_dim2_last
C:\Users\Mariano\AppData\Local\Temp\ccqsEEdp.s:107    .bss.grouped_slave_dim2_last:00000000 $d
C:\Users\Mariano\AppData\Local\Temp\ccqsEEdp.s:109    .rodata:00000000 $d
C:\Users\Mariano\AppData\Local\Temp\ccqsEEdp.s:147    .text.FuncGrouped:00000000 $t
C:\Users\Mariano\AppData\Local\Temp\ccqsEEdp.s:152    .text.FuncGrouped:00000000 FuncGrouped
C:\Users\Mariano\AppData\Local\Temp\ccqsEEdp.s:188    .rodata.FuncGrouped:00000000 $d
C:\Users\Mariano\AppData\Local\Temp\ccqsEEdp.s:3554   .text.MenuGroupedReset:00000000 MenuGroupedReset
C:\Users\Mariano\AppData\Local\Temp\ccqsEEdp.s:696    .text.FuncGrouped:0000032c $d
C:\Users\Mariano\AppData\Local\Temp\ccqsEEdp.s:715    .text.FuncGrouped:00000370 $t
C:\Users\Mariano\AppData\Local\Temp\ccqsEEdp.s:1239   .text.FuncGrouped:000006ac $d
C:\Users\Mariano\AppData\Local\Temp\ccqsEEdp.s:1260   .text.FuncGrouped:000006f8 $t
C:\Users\Mariano\AppData\Local\Temp\ccqsEEdp.s:1653   .text.MenuGrouped:00000000 MenuGrouped
C:\Users\Mariano\AppData\Local\Temp\ccqsEEdp.s:1598   .text.FuncGrouped:000008f8 $d
C:\Users\Mariano\AppData\Local\Temp\ccqsEEdp.s:1648   .text.MenuGrouped:00000000 $t
C:\Users\Mariano\AppData\Local\Temp\ccqsEEdp.s:1693   .rodata.MenuGrouped:00000000 $d
C:\Users\Mariano\AppData\Local\Temp\ccqsEEdp.s:2281   .text.MenuGrouped:000003b4 $d
C:\Users\Mariano\AppData\Local\Temp\ccqsEEdp.s:2300   .text.MenuGrouped:000003f8 $t
C:\Users\Mariano\AppData\Local\Temp\ccqsEEdp.s:2874   .text.MenuGrouped:00000798 $d
C:\Users\Mariano\AppData\Local\Temp\ccqsEEdp.s:2883   .text.MenuGrouped:000007b4 $t
C:\Users\Mariano\AppData\Local\Temp\ccqsEEdp.s:3443   .text.MenuGrouped:00000b3c $d
C:\Users\Mariano\AppData\Local\Temp\ccqsEEdp.s:3454   .text.MenuGrouped:00000b60 $t
C:\Users\Mariano\AppData\Local\Temp\ccqsEEdp.s:3525   .text.FuncGroupedReset:00000000 $t
C:\Users\Mariano\AppData\Local\Temp\ccqsEEdp.s:3530   .text.FuncGroupedReset:00000000 FuncGroupedReset
C:\Users\Mariano\AppData\Local\Temp\ccqsEEdp.s:3544   .text.FuncGroupedReset:00000008 $d
C:\Users\Mariano\AppData\Local\Temp\ccqsEEdp.s:3549   .text.MenuGroupedReset:00000000 $t
C:\Users\Mariano\AppData\Local\Temp\ccqsEEdp.s:3568   .text.MenuGroupedReset:00000008 $d
                     .debug_frame:00000010 $d

UNDEFINED SYMBOLS
__aeabi_uidiv
memcpy
EXTIOn
EXTIOff
CheckACSw
Lcd_SetDDRAM
LCDTransmitStr
Update_TIM3_CH1
memset
ARM GAS  C:\Users\Mariano\AppData\Local\Temp\ccqsEEdp.s 			page 112


SendDMXPacket
standalone_timer
standalone_enable_menu_timer
GroupedStruct_constant
data1
grouped_master_timeout_timer
DMX_Ena
sprintf
LCDStartTransmit
DMX_channel_quantity
DMX_channel_selected
Packet_Detected_Flag
data
FuncShowBlink
CheckS1
CheckS2
FuncOptionsReset
FuncShowSelectv2Reset
FuncChangeReset
s_blank_line
FuncShowSelectv2
FuncOptions
FuncChange
