ARM GAS  C:\Users\Mariano\AppData\Local\Temp\ccX2jy0d.s 			page 1


   1              		.cpu cortex-m0
   2              		.fpu softvfp
   3              		.eabi_attribute 20, 1	@ Tag_ABI_FP_denormal
   4              		.eabi_attribute 21, 1	@ Tag_ABI_FP_exceptions
   5              		.eabi_attribute 23, 3	@ Tag_ABI_FP_number_model
   6              		.eabi_attribute 24, 1	@ Tag_ABI_align8_needed
   7              		.eabi_attribute 25, 1	@ Tag_ABI_align8_preserved
   8              		.eabi_attribute 26, 1	@ Tag_ABI_enum_size
   9              		.eabi_attribute 30, 6	@ Tag_ABI_optimization_goals
  10              		.eabi_attribute 34, 0	@ Tag_CPU_unaligned_access
  11              		.eabi_attribute 18, 4	@ Tag_ABI_PCS_wchar_t
  12              		.file	"main_menu.c"
  13              	@ GNU C (GNU Tools for ARM Embedded Processors) version 4.7.4 20130613 (release) [ARM/embedded-4_7-
  14              	@	compiled by GNU C version 4.2.1-sjlj (mingw32-2), GMP version 4.3.2, MPFR version 2.4.2, MPC vers
  15              	@ GGC heuristics: --param ggc-min-expand=100 --param ggc-min-heapsize=131072
  16              	@ options passed:  -I . -I .\src -I .\cmsis_boot -I .\cmsis_core
  17              	@ -I ..\STM32F0xx_StdPeriph_Lib_V1.3.1\Libraries\STM32F0xx_StdPeriph_Driver\inc
  18              	@ -I .\inc -I .\cmsis_boot -imultilib armv6-m
  19              	@ -iprefix c:\program files (x86)\gnu tools arm embedded\4.7 2013q2\bin\../lib/gcc/arm-none-eabi/4.
  20              	@ -isysroot c:\program files (x86)\gnu tools arm embedded\4.7 2013q2\bin\../arm-none-eabi
  21              	@ -MD .\src\main_menu.d -MF .dep\main_menu.o.d -MP -MQ .\src\main_menu.o
  22              	@ -D__USES_INITFINI__ -D RUN_FROM_FLASH=1 .\src\main_menu.c -mcpu=cortex-m0
  23              	@ -mthumb -auxbase-strip .\src\main_menu.o -g -gdwarf-2 -O0 -Wall
  24              	@ -fomit-frame-pointer -fdata-sections -ffunction-sections -fverbose-asm
  25              	@ options enabled:  -fauto-inc-dec -fbranch-count-reg -fcommon
  26              	@ -fdata-sections -fdebug-types-section -fdelete-null-pointer-checks
  27              	@ -fdwarf2-cfi-asm -fearly-inlining -feliminate-unused-debug-types
  28              	@ -ffunction-cse -ffunction-sections -fgcse-lm -fgnu-runtime -fident
  29              	@ -finline-atomics -fira-hoist-pressure -fira-share-save-slots
  30              	@ -fira-share-spill-slots -fivopts -fkeep-static-consts
  31              	@ -fleading-underscore -fmath-errno -fmerge-debug-strings
  32              	@ -fmove-loop-invariants -fomit-frame-pointer -fpeephole
  33              	@ -fprefetch-loop-arrays -freg-struct-return
  34              	@ -fsched-critical-path-heuristic -fsched-dep-count-heuristic
  35              	@ -fsched-group-heuristic -fsched-interblock -fsched-last-insn-heuristic
  36              	@ -fsched-rank-heuristic -fsched-spec -fsched-spec-insn-heuristic
  37              	@ -fsched-stalled-insns-dep -fshow-column -fsigned-zeros
  38              	@ -fsplit-ivs-in-unroller -fstrict-volatile-bitfields -ftrapping-math
  39              	@ -ftree-cselim -ftree-forwprop -ftree-loop-if-convert -ftree-loop-im
  40              	@ -ftree-loop-ivcanon -ftree-loop-optimize -ftree-parallelize-loops=
  41              	@ -ftree-phiprop -ftree-pta -ftree-reassoc -ftree-scev-cprop
  42              	@ -ftree-slp-vectorize -ftree-vect-loop-version -funit-at-a-time
  43              	@ -fverbose-asm -fzero-initialized-in-bss -mlittle-endian -msched-prolog
  44              	@ -mthumb -mvectorize-with-neon-quad
  45              	
  46              		.text
  47              	.Ltext0:
  48              		.cfi_sections	.debug_frame
  49              		.global	mainmenu_state
  50              		.section	.bss.mainmenu_state,"aw",%nobits
  51              		.type	mainmenu_state, %object
  52              		.size	mainmenu_state, 1
  53              	mainmenu_state:
  54 0000 00       		.space	1
  55              		.global	mainmenu_repeat
  56              		.section	.bss.mainmenu_repeat,"aw",%nobits
  57              		.type	mainmenu_repeat, %object
ARM GAS  C:\Users\Mariano\AppData\Local\Temp\ccX2jy0d.s 			page 2


  58              		.size	mainmenu_repeat, 1
  59              	mainmenu_repeat:
  60 0000 00       		.space	1
  61              		.global	show_select_state
  62              		.section	.bss.show_select_state,"aw",%nobits
  63              		.type	show_select_state, %object
  64              		.size	show_select_state, 1
  65              	show_select_state:
  66 0000 00       		.space	1
  67              		.global	options_state
  68              		.section	.bss.options_state,"aw",%nobits
  69              		.type	options_state, %object
  70              		.size	options_state, 1
  71              	options_state:
  72 0000 00       		.space	1
  73              		.global	options_curr_sel
  74              		.section	.bss.options_curr_sel,"aw",%nobits
  75              		.type	options_curr_sel, %object
  76              		.size	options_curr_sel, 1
  77              	options_curr_sel:
  78 0000 00       		.space	1
  79              		.global	scroll1_state
  80              		.section	.bss.scroll1_state,"aw",%nobits
  81              		.type	scroll1_state, %object
  82              		.size	scroll1_state, 1
  83              	scroll1_state:
  84 0000 00       		.space	1
  85              		.global	scroll1_last_window
  86              		.section	.bss.scroll1_last_window,"aw",%nobits
  87              		.type	scroll1_last_window, %object
  88              		.size	scroll1_last_window, 1
  89              	scroll1_last_window:
  90 0000 00       		.space	1
  91              		.global	scroll1_current_window
  92              		.section	.bss.scroll1_current_window,"aw",%nobits
  93              		.type	scroll1_current_window, %object
  94              		.size	scroll1_current_window, 1
  95              	scroll1_current_window:
  96 0000 00       		.space	1
  97              		.global	scroll2_state
  98              		.section	.bss.scroll2_state,"aw",%nobits
  99              		.type	scroll2_state, %object
 100              		.size	scroll2_state, 1
 101              	scroll2_state:
 102 0000 00       		.space	1
 103              		.global	scroll2_last_window
 104              		.section	.bss.scroll2_last_window,"aw",%nobits
 105              		.type	scroll2_last_window, %object
 106              		.size	scroll2_last_window, 1
 107              	scroll2_last_window:
 108 0000 00       		.space	1
 109              		.global	scroll2_current_window
 110              		.section	.bss.scroll2_current_window,"aw",%nobits
 111              		.type	scroll2_current_window, %object
 112              		.size	scroll2_current_window, 1
 113              	scroll2_current_window:
 114 0000 00       		.space	1
ARM GAS  C:\Users\Mariano\AppData\Local\Temp\ccX2jy0d.s 			page 3


 115              		.global	blinking_state
 116              		.section	.bss.blinking_state,"aw",%nobits
 117              		.type	blinking_state, %object
 118              		.size	blinking_state, 1
 119              	blinking_state:
 120 0000 00       		.space	1
 121              		.global	blinking_how_many
 122              		.section	.bss.blinking_how_many,"aw",%nobits
 123              		.type	blinking_how_many, %object
 124              		.size	blinking_how_many, 1
 125              	blinking_how_many:
 126 0000 00       		.space	1
 127              		.global	change_state
 128              		.section	.bss.change_state,"aw",%nobits
 129              		.type	change_state, %object
 130              		.size	change_state, 1
 131              	change_state:
 132 0000 00       		.space	1
 133              		.global	change_current_val
 134              		.section	.bss.change_current_val,"aw",%nobits
 135              		.type	change_current_val, %object
 136              		.size	change_current_val, 1
 137              	change_current_val:
 138 0000 00       		.space	1
 139              		.global	change_last_option
 140              		.section	.bss.change_last_option,"aw",%nobits
 141              		.type	change_last_option, %object
 142              		.size	change_last_option, 1
 143              	change_last_option:
 144 0000 00       		.space	1
 145              		.global	s_sel_up_down
 146              		.section	.rodata.s_sel_up_down,"a",%progbits
 147              		.align	2
 148              		.type	s_sel_up_down, %object
 149              		.size	s_sel_up_down, 3
 150              	s_sel_up_down:
 151 0000 02       		.byte	2
 152 0001 08       		.byte	8
 153 0002 0F       		.byte	15
 154 0003 00       		.section	.rodata
 155              		.align	2
 156              	.LC2:
 157 0000 20202020 		.ascii	"    Entering    \000"
 157      456E7465 
 157      72696E67 
 157      20202020 
 157      00
 158 0011 000000   		.align	2
 159              	.LC4:
 160 0014 2020204D 		.ascii	"   Main Menu    \000"
 160      61696E20 
 160      4D656E75 
 160      20202020 
 160      00
 161 0025 000000   		.align	2
 162              	.LC6:
 163 0028 5374616E 		.ascii	"Stand Alone     \000"
ARM GAS  C:\Users\Mariano\AppData\Local\Temp\ccX2jy0d.s 			page 4


 163      6420416C 
 163      6F6E6520 
 163      20202020 
 163      00
 164 0039 000000   		.align	2
 165              	.LC8:
 166 003c 47726F75 		.ascii	"Grouped         \000"
 166      70656420 
 166      20202020 
 166      20202020 
 166      00
 167 004d 000000   		.align	2
 168              	.LC10:
 169 0050 4E657477 		.ascii	"Network         \000"
 169      6F726B20 
 169      20202020 
 169      20202020 
 169      00
 170 0061 000000   		.align	2
 171              	.LC12:
 172 0064 53656C65 		.ascii	"Selected...     \000"
 172      63746564 
 172      2E2E2E20 
 172      20202020 
 172      00
 173 0075 000000   		.align	2
 174              	.LC14:
 175 0078 4E657477 		.ascii	"Networked       \000"
 175      6F726B65 
 175      64202020 
 175      20202020 
 175      00
 176              		.section	.text.FuncMainMenu,"ax",%progbits
 177              		.align	2
 178              		.global	FuncMainMenu
 179              		.code	16
 180              		.thumb_func
 181              		.type	FuncMainMenu, %function
 182              	FuncMainMenu:
 183              	.LFB0:
 184              		.file 1 ".\\src\\main_menu.c"
   1:.\src/main_menu.c **** /*
   2:.\src/main_menu.c ****  * main_menu.c
   3:.\src/main_menu.c ****  *
   4:.\src/main_menu.c ****  *  Created on: 11/02/2016
   5:.\src/main_menu.c ****  *      Author: Mariano
   6:.\src/main_menu.c ****  */
   7:.\src/main_menu.c **** 
   8:.\src/main_menu.c **** #include "main_menu.h"
   9:.\src/main_menu.c **** #include "hard.h"
  10:.\src/main_menu.c **** #include "lcd.h"
  11:.\src/main_menu.c **** #include "standalone.h"
  12:.\src/main_menu.c **** #include <stdio.h>
  13:.\src/main_menu.c **** #include <string.h>
  14:.\src/main_menu.c **** 
  15:.\src/main_menu.c **** /* Externals variables ---------------------------------------------------------*/
  16:.\src/main_menu.c **** //extern volatile unsigned short mainmenu_timer;
ARM GAS  C:\Users\Mariano\AppData\Local\Temp\ccX2jy0d.s 			page 5


  17:.\src/main_menu.c **** extern volatile unsigned short show_select_timer;
  18:.\src/main_menu.c **** 
  19:.\src/main_menu.c **** extern volatile unsigned short scroll1_timer;
  20:.\src/main_menu.c **** extern volatile unsigned short scroll2_timer;
  21:.\src/main_menu.c **** 
  22:.\src/main_menu.c **** /* Global variables ------------------------------------------------------------*/
  23:.\src/main_menu.c **** unsigned char mainmenu_state = 0;
  24:.\src/main_menu.c **** unsigned char mainmenu_repeat = 0;
  25:.\src/main_menu.c **** unsigned char show_select_state = 0;
  26:.\src/main_menu.c **** unsigned char options_state = 0;
  27:.\src/main_menu.c **** unsigned char options_curr_sel = 0;
  28:.\src/main_menu.c **** 
  29:.\src/main_menu.c **** unsigned char scroll1_state = 0;
  30:.\src/main_menu.c **** unsigned char scroll1_last_window = 0;
  31:.\src/main_menu.c **** unsigned char scroll1_current_window = 0;
  32:.\src/main_menu.c **** 
  33:.\src/main_menu.c **** unsigned char scroll2_state = 0;
  34:.\src/main_menu.c **** unsigned char scroll2_last_window = 0;
  35:.\src/main_menu.c **** unsigned char scroll2_current_window = 0;
  36:.\src/main_menu.c **** 
  37:.\src/main_menu.c **** unsigned char blinking_state = 0;
  38:.\src/main_menu.c **** unsigned char blinking_how_many = 0;
  39:.\src/main_menu.c **** 
  40:.\src/main_menu.c **** unsigned char change_state = 0;
  41:.\src/main_menu.c **** unsigned char change_current_val = 0;
  42:.\src/main_menu.c **** unsigned char change_last_option = 0;
  43:.\src/main_menu.c **** 
  44:.\src/main_menu.c **** extern const char * s_blank_line [];
  45:.\src/main_menu.c **** 
  46:.\src/main_menu.c **** const unsigned char s_sel_up_down [] = { 0x02, 0x08, 0x0f };
  47:.\src/main_menu.c **** //-------- Functions -------------
  48:.\src/main_menu.c **** 
  49:.\src/main_menu.c **** //funcion de seleccion del menu principal
  50:.\src/main_menu.c **** //devuelve nueva selección o estado anterior
  51:.\src/main_menu.c **** unsigned char FuncMainMenu (void)
  52:.\src/main_menu.c **** {
 185              		.loc 1 52 0
 186              		.cfi_startproc
 187 0000 10B5     		push	{r4, lr}	@
 188              	.LCFI0:
 189              		.cfi_def_cfa_offset 8
 190              		.cfi_offset 4, -8
 191              		.cfi_offset 14, -4
 192 0002 82B0     		sub	sp, sp, #8	@,,
 193              	.LCFI1:
 194              		.cfi_def_cfa_offset 16
  53:.\src/main_menu.c **** 	unsigned char resp = MAINMENU_CONTINUE;
 195              		.loc 1 53 0
 196 0004 6B46     		mov	r3, sp	@ tmp147,
 197 0006 0733     		add	r3, r3, #7	@ tmp147,
 198 0008 0E22     		mov	r2, #14	@ tmp148,
 199 000a 1A70     		strb	r2, [r3]	@ tmp149, resp
  54:.\src/main_menu.c **** 	unsigned char resp_down = 0;
 200              		.loc 1 54 0
 201 000c 6B46     		mov	r3, sp	@ tmp150,
 202 000e 0633     		add	r3, r3, #6	@ tmp150,
 203 0010 0022     		mov	r2, #0	@ tmp151,
ARM GAS  C:\Users\Mariano\AppData\Local\Temp\ccX2jy0d.s 			page 6


 204 0012 1A70     		strb	r2, [r3]	@ tmp152, resp_down
  55:.\src/main_menu.c **** 
  56:.\src/main_menu.c **** 	switch (mainmenu_state)
 205              		.loc 1 56 0
 206 0014 784B     		ldr	r3, .L40	@ tmp153,
 207 0016 1B78     		ldrb	r3, [r3]	@ mainmenu_state.102, mainmenu_state
 208 0018 232B     		cmp	r3, #35	@ D.5728,
 209 001a 00D9     		bls	.LCB23	@
 210 001c D3E0     		b	.L2	@long jump	@
 211              	.LCB23:
 212 001e 9A00     		lsl	r2, r3, #2	@ tmp154, D.5728,
 213 0020 764B     		ldr	r3, .L40+4	@ tmp156,
 214 0022 D318     		add	r3, r2, r3	@ tmp155, tmp154, tmp156
 215 0024 1B68     		ldr	r3, [r3]	@ tmp157,
 216 0026 9F46     		mov	pc, r3	@ tmp157
 217              		.section	.rodata.FuncMainMenu,"a",%progbits
 218              		.align	2
 219              	.L16:
 220 0000 28000000 		.word	.L3
 221 0004 CE010000 		.word	.L32
 222 0008 CE010000 		.word	.L32
 223 000c CE010000 		.word	.L32
 224 0010 54000000 		.word	.L7
 225 0014 C6010000 		.word	.L2
 226 0018 C6010000 		.word	.L2
 227 001c C6010000 		.word	.L2
 228 0020 98000000 		.word	.L8
 229 0024 C6010000 		.word	.L2
 230 0028 C6010000 		.word	.L2
 231 002c C6010000 		.word	.L2
 232 0030 DC000000 		.word	.L9
 233 0034 C6010000 		.word	.L2
 234 0038 C6010000 		.word	.L2
 235 003c C6010000 		.word	.L2
 236 0040 C6010000 		.word	.L2
 237 0044 C6010000 		.word	.L2
 238 0048 C6010000 		.word	.L2
 239 004c C6010000 		.word	.L2
 240 0050 C6010000 		.word	.L2
 241 0054 C6010000 		.word	.L2
 242 0058 C6010000 		.word	.L2
 243 005c C6010000 		.word	.L2
 244 0060 C6010000 		.word	.L2
 245 0064 C6010000 		.word	.L2
 246 0068 C6010000 		.word	.L2
 247 006c C6010000 		.word	.L2
 248 0070 C6010000 		.word	.L2
 249 0074 C6010000 		.word	.L2
 250 0078 1E010000 		.word	.L10
 251 007c 3C010000 		.word	.L11
 252 0080 56010000 		.word	.L12
 253 0084 74010000 		.word	.L13
 254 0088 8E010000 		.word	.L14
 255 008c AC010000 		.word	.L15
 256              		.section	.text.FuncMainMenu
 257              	.L3:
  57:.\src/main_menu.c **** 	{
ARM GAS  C:\Users\Mariano\AppData\Local\Temp\ccX2jy0d.s 			page 7


  58:.\src/main_menu.c **** 		case MAINMENU_INIT:
  59:.\src/main_menu.c **** 			resp_down = FuncShowBlink ((const char *) "    Entering    ", (const char *) "   Main Menu    ",
 258              		.loc 1 59 0
 259 0028 6C46     		mov	r4, sp	@ tmp158,
 260 002a 0634     		add	r4, r4, #6	@ tmp158,
 261 002c 744A     		ldr	r2, .L40+8	@ tmp159,
 262 002e 754B     		ldr	r3, .L40+12	@ tmp160,
 263 0030 101C     		mov	r0, r2	@, tmp159
 264 0032 191C     		mov	r1, r3	@, tmp160
 265 0034 0322     		mov	r2, #3	@,
 266 0036 0023     		mov	r3, #0	@,
 267 0038 FFF7FEFF 		bl	FuncShowBlink	@
 268 003c 031C     		mov	r3, r0	@ tmp161,
 269 003e 2370     		strb	r3, [r4]	@ tmp163, resp_down
  60:.\src/main_menu.c **** 
  61:.\src/main_menu.c **** 			if (resp_down == RESP_FINISH)
 270              		.loc 1 61 0
 271 0040 6B46     		mov	r3, sp	@ tmp164,
 272 0042 0633     		add	r3, r3, #6	@ tmp164,
 273 0044 1B78     		ldrb	r3, [r3]	@ tmp165, resp_down
 274 0046 0A2B     		cmp	r3, #10	@ tmp165,
 275 0048 00D0     		beq	.LCB50	@
 276 004a C2E0     		b	.L33	@long jump	@
 277              	.LCB50:
  62:.\src/main_menu.c **** 				mainmenu_state = MAINMENU_SHOW_STANDALONE;
 278              		.loc 1 62 0
 279 004c 6A4B     		ldr	r3, .L40	@ tmp166,
 280 004e 0422     		mov	r2, #4	@ tmp167,
 281 0050 1A70     		strb	r2, [r3]	@ tmp168, mainmenu_state
  63:.\src/main_menu.c **** 			break;
 282              		.loc 1 63 0
 283 0052 BEE0     		b	.L33	@
 284              	.L7:
  64:.\src/main_menu.c **** 
  65:.\src/main_menu.c **** 		case MAINMENU_INIT_1:
  66:.\src/main_menu.c **** 			/*
  67:.\src/main_menu.c **** 			LCD_1ER_RENGLON;
  68:.\src/main_menu.c **** 			LCDTransmitStr((const char *) "    Entering    ");
  69:.\src/main_menu.c **** 			LCD_2DO_RENGLON;
  70:.\src/main_menu.c **** 			LCDTransmitStr((const char *) "   Main Menu    ");
  71:.\src/main_menu.c **** 			mainmenu_timer = 500;
  72:.\src/main_menu.c **** 			mainmenu_state++;
  73:.\src/main_menu.c **** 			*/
  74:.\src/main_menu.c **** 			break;
  75:.\src/main_menu.c **** 
  76:.\src/main_menu.c **** 		case MAINMENU_INIT_2:
  77:.\src/main_menu.c **** 			/*
  78:.\src/main_menu.c **** 			if (!mainmenu_timer)
  79:.\src/main_menu.c **** 			{
  80:.\src/main_menu.c **** 				LCD_1ER_RENGLON;
  81:.\src/main_menu.c **** 				LCDTransmitStr(s_blank_line);
  82:.\src/main_menu.c **** 				LCD_2DO_RENGLON;
  83:.\src/main_menu.c **** 				LCDTransmitStr(s_blank_line);
  84:.\src/main_menu.c **** 				mainmenu_timer = 500;
  85:.\src/main_menu.c **** 				mainmenu_state++;
  86:.\src/main_menu.c **** 			}
  87:.\src/main_menu.c **** 			*/
ARM GAS  C:\Users\Mariano\AppData\Local\Temp\ccX2jy0d.s 			page 8


  88:.\src/main_menu.c **** 			break;
  89:.\src/main_menu.c **** 
  90:.\src/main_menu.c **** 		case MAINMENU_INIT_3:
  91:.\src/main_menu.c **** 			/*
  92:.\src/main_menu.c **** 			if (!mainmenu_timer)
  93:.\src/main_menu.c **** 			{
  94:.\src/main_menu.c **** 				if (mainmenu_repeat)
  95:.\src/main_menu.c **** 				{
  96:.\src/main_menu.c **** 					mainmenu_repeat--;
  97:.\src/main_menu.c **** 					mainmenu_state = MAINMENU_INIT_1;
  98:.\src/main_menu.c **** 				}
  99:.\src/main_menu.c **** 				else
 100:.\src/main_menu.c **** 					mainmenu_state = MAINMENU_SHOW_STANDALONE;
 101:.\src/main_menu.c **** 			}
 102:.\src/main_menu.c **** 			*/
 103:.\src/main_menu.c **** 			break;
 104:.\src/main_menu.c **** 
 105:.\src/main_menu.c **** 		case MAINMENU_SHOW_STANDALONE:
 106:.\src/main_menu.c **** 			resp_down = FuncShowSelectv2((const char *) "Stand Alone     ");
 285              		.loc 1 106 0
 286 0054 6C46     		mov	r4, sp	@ tmp169,
 287 0056 0634     		add	r4, r4, #6	@ tmp169,
 288 0058 6B4B     		ldr	r3, .L40+16	@ tmp170,
 289 005a 181C     		mov	r0, r3	@, tmp170
 290 005c FFF7FEFF 		bl	FuncShowSelectv2	@
 291 0060 031C     		mov	r3, r0	@ tmp171,
 292 0062 2370     		strb	r3, [r4]	@ tmp173, resp_down
 107:.\src/main_menu.c **** 
 108:.\src/main_menu.c **** 			if (resp_down == RESP_CHANGE)
 293              		.loc 1 108 0
 294 0064 6B46     		mov	r3, sp	@ tmp174,
 295 0066 0633     		add	r3, r3, #6	@ tmp174,
 296 0068 1B78     		ldrb	r3, [r3]	@ tmp175, resp_down
 297 006a 022B     		cmp	r3, #2	@ tmp175,
 298 006c 02D1     		bne	.L19	@,
 109:.\src/main_menu.c **** 				mainmenu_state = MAINMENU_SHOW_GROUPED;
 299              		.loc 1 109 0
 300 006e 624B     		ldr	r3, .L40	@ tmp176,
 301 0070 0822     		mov	r2, #8	@ tmp177,
 302 0072 1A70     		strb	r2, [r3]	@ tmp178, mainmenu_state
 303              	.L19:
 110:.\src/main_menu.c **** 
 111:.\src/main_menu.c **** 			if (resp_down == RESP_SELECTED)
 304              		.loc 1 111 0
 305 0074 6B46     		mov	r3, sp	@ tmp179,
 306 0076 0633     		add	r3, r3, #6	@ tmp179,
 307 0078 1B78     		ldrb	r3, [r3]	@ tmp180, resp_down
 308 007a 012B     		cmp	r3, #1	@ tmp180,
 309 007c 02D1     		bne	.L20	@,
 112:.\src/main_menu.c **** 				mainmenu_state = MAINMENU_SHOW_STANDALONE_SELECTED;
 310              		.loc 1 112 0
 311 007e 5E4B     		ldr	r3, .L40	@ tmp181,
 312 0080 1E22     		mov	r2, #30	@ tmp182,
 313 0082 1A70     		strb	r2, [r3]	@ tmp183, mainmenu_state
 314              	.L20:
 113:.\src/main_menu.c **** 
 114:.\src/main_menu.c **** 			if (resp_down == RESP_CHANGE_ALL_UP)
ARM GAS  C:\Users\Mariano\AppData\Local\Temp\ccX2jy0d.s 			page 9


 315              		.loc 1 114 0
 316 0084 6B46     		mov	r3, sp	@ tmp184,
 317 0086 0633     		add	r3, r3, #6	@ tmp184,
 318 0088 1B78     		ldrb	r3, [r3]	@ tmp185, resp_down
 319 008a 032B     		cmp	r3, #3	@ tmp185,
 320 008c 00D0     		beq	.LCB89	@
 321 008e A2E0     		b	.L34	@long jump	@
 322              	.LCB89:
 115:.\src/main_menu.c **** 				mainmenu_state = MAINMENU_INIT;
 323              		.loc 1 115 0
 324 0090 594B     		ldr	r3, .L40	@ tmp186,
 325 0092 0022     		mov	r2, #0	@ tmp187,
 326 0094 1A70     		strb	r2, [r3]	@ tmp188, mainmenu_state
 116:.\src/main_menu.c **** 
 117:.\src/main_menu.c **** 			break;
 327              		.loc 1 117 0
 328 0096 9EE0     		b	.L34	@
 329              	.L8:
 118:.\src/main_menu.c **** 
 119:.\src/main_menu.c **** 		case MAINMENU_SHOW_GROUPED:
 120:.\src/main_menu.c **** 			resp_down = FuncShowSelectv2((const char *) "Grouped         ");
 330              		.loc 1 120 0
 331 0098 6C46     		mov	r4, sp	@ tmp189,
 332 009a 0634     		add	r4, r4, #6	@ tmp189,
 333 009c 5B4B     		ldr	r3, .L40+20	@ tmp190,
 334 009e 181C     		mov	r0, r3	@, tmp190
 335 00a0 FFF7FEFF 		bl	FuncShowSelectv2	@
 336 00a4 031C     		mov	r3, r0	@ tmp191,
 337 00a6 2370     		strb	r3, [r4]	@ tmp193, resp_down
 121:.\src/main_menu.c **** 
 122:.\src/main_menu.c **** 			if (resp_down == RESP_CHANGE)
 338              		.loc 1 122 0
 339 00a8 6B46     		mov	r3, sp	@ tmp194,
 340 00aa 0633     		add	r3, r3, #6	@ tmp194,
 341 00ac 1B78     		ldrb	r3, [r3]	@ tmp195, resp_down
 342 00ae 022B     		cmp	r3, #2	@ tmp195,
 343 00b0 02D1     		bne	.L22	@,
 123:.\src/main_menu.c **** 				mainmenu_state = MAINMENU_SHOW_NETWORK;
 344              		.loc 1 123 0
 345 00b2 514B     		ldr	r3, .L40	@ tmp196,
 346 00b4 0C22     		mov	r2, #12	@ tmp197,
 347 00b6 1A70     		strb	r2, [r3]	@ tmp198, mainmenu_state
 348              	.L22:
 124:.\src/main_menu.c **** 
 125:.\src/main_menu.c **** 			if (resp_down == RESP_SELECTED)
 349              		.loc 1 125 0
 350 00b8 6B46     		mov	r3, sp	@ tmp199,
 351 00ba 0633     		add	r3, r3, #6	@ tmp199,
 352 00bc 1B78     		ldrb	r3, [r3]	@ tmp200, resp_down
 353 00be 012B     		cmp	r3, #1	@ tmp200,
 354 00c0 02D1     		bne	.L23	@,
 126:.\src/main_menu.c **** 				mainmenu_state = MAINMENU_SHOW_GROUPED_SELECTED;
 355              		.loc 1 126 0
 356 00c2 4D4B     		ldr	r3, .L40	@ tmp201,
 357 00c4 2022     		mov	r2, #32	@ tmp202,
 358 00c6 1A70     		strb	r2, [r3]	@ tmp203, mainmenu_state
 359              	.L23:
ARM GAS  C:\Users\Mariano\AppData\Local\Temp\ccX2jy0d.s 			page 10


 127:.\src/main_menu.c **** 
 128:.\src/main_menu.c **** 			if (resp_down == RESP_CHANGE_ALL_UP)
 360              		.loc 1 128 0
 361 00c8 6B46     		mov	r3, sp	@ tmp204,
 362 00ca 0633     		add	r3, r3, #6	@ tmp204,
 363 00cc 1B78     		ldrb	r3, [r3]	@ tmp205, resp_down
 364 00ce 032B     		cmp	r3, #3	@ tmp205,
 365 00d0 00D0     		beq	.LCB128	@
 366 00d2 82E0     		b	.L35	@long jump	@
 367              	.LCB128:
 129:.\src/main_menu.c **** 				mainmenu_state = MAINMENU_INIT;
 368              		.loc 1 129 0
 369 00d4 484B     		ldr	r3, .L40	@ tmp206,
 370 00d6 0022     		mov	r2, #0	@ tmp207,
 371 00d8 1A70     		strb	r2, [r3]	@ tmp208, mainmenu_state
 130:.\src/main_menu.c **** 
 131:.\src/main_menu.c **** 			break;
 372              		.loc 1 131 0
 373 00da 7EE0     		b	.L35	@
 374              	.L9:
 132:.\src/main_menu.c **** 
 133:.\src/main_menu.c **** 		case MAINMENU_SHOW_NETWORK:
 134:.\src/main_menu.c **** 			resp_down = FuncShowSelectv2((const char *) "Network         ");
 375              		.loc 1 134 0
 376 00dc 6C46     		mov	r4, sp	@ tmp209,
 377 00de 0634     		add	r4, r4, #6	@ tmp209,
 378 00e0 4B4B     		ldr	r3, .L40+24	@ tmp210,
 379 00e2 181C     		mov	r0, r3	@, tmp210
 380 00e4 FFF7FEFF 		bl	FuncShowSelectv2	@
 381 00e8 031C     		mov	r3, r0	@ tmp211,
 382 00ea 2370     		strb	r3, [r4]	@ tmp213, resp_down
 135:.\src/main_menu.c **** 
 136:.\src/main_menu.c **** 			if (resp_down == RESP_CHANGE)
 383              		.loc 1 136 0
 384 00ec 6B46     		mov	r3, sp	@ tmp214,
 385 00ee 0633     		add	r3, r3, #6	@ tmp214,
 386 00f0 1B78     		ldrb	r3, [r3]	@ tmp215, resp_down
 387 00f2 022B     		cmp	r3, #2	@ tmp215,
 388 00f4 02D1     		bne	.L25	@,
 137:.\src/main_menu.c **** 				mainmenu_state = MAINMENU_SHOW_STANDALONE;
 389              		.loc 1 137 0
 390 00f6 404B     		ldr	r3, .L40	@ tmp216,
 391 00f8 0422     		mov	r2, #4	@ tmp217,
 392 00fa 1A70     		strb	r2, [r3]	@ tmp218, mainmenu_state
 393              	.L25:
 138:.\src/main_menu.c **** 
 139:.\src/main_menu.c **** 			if (resp_down == RESP_SELECTED)
 394              		.loc 1 139 0
 395 00fc 6B46     		mov	r3, sp	@ tmp219,
 396 00fe 0633     		add	r3, r3, #6	@ tmp219,
 397 0100 1B78     		ldrb	r3, [r3]	@ tmp220, resp_down
 398 0102 012B     		cmp	r3, #1	@ tmp220,
 399 0104 02D1     		bne	.L26	@,
 140:.\src/main_menu.c **** 				mainmenu_state = MAINMENU_SHOW_NETWORK_SELECTED;
 400              		.loc 1 140 0
 401 0106 3C4B     		ldr	r3, .L40	@ tmp221,
 402 0108 2222     		mov	r2, #34	@ tmp222,
ARM GAS  C:\Users\Mariano\AppData\Local\Temp\ccX2jy0d.s 			page 11


 403 010a 1A70     		strb	r2, [r3]	@ tmp223, mainmenu_state
 404              	.L26:
 141:.\src/main_menu.c **** 
 142:.\src/main_menu.c **** 			if (resp_down == RESP_CHANGE_ALL_UP)
 405              		.loc 1 142 0
 406 010c 6B46     		mov	r3, sp	@ tmp224,
 407 010e 0633     		add	r3, r3, #6	@ tmp224,
 408 0110 1B78     		ldrb	r3, [r3]	@ tmp225, resp_down
 409 0112 032B     		cmp	r3, #3	@ tmp225,
 410 0114 63D1     		bne	.L36	@,
 143:.\src/main_menu.c **** 				mainmenu_state = MAINMENU_INIT;
 411              		.loc 1 143 0
 412 0116 384B     		ldr	r3, .L40	@ tmp226,
 413 0118 0022     		mov	r2, #0	@ tmp227,
 414 011a 1A70     		strb	r2, [r3]	@ tmp228, mainmenu_state
 144:.\src/main_menu.c **** 
 145:.\src/main_menu.c **** 			break;
 415              		.loc 1 145 0
 416 011c 5FE0     		b	.L36	@
 417              	.L10:
 146:.\src/main_menu.c **** 
 147:.\src/main_menu.c **** 
 148:.\src/main_menu.c **** 		case MAINMENU_SHOW_STANDALONE_SELECTED:
 149:.\src/main_menu.c **** 			FuncShowBlink ((const char *) "Stand Alone     ", (const char *) "Selected...     ", 0, BLINK_NO
 418              		.loc 1 149 0
 419 011e 3A4A     		ldr	r2, .L40+16	@ tmp229,
 420 0120 3C4B     		ldr	r3, .L40+28	@ tmp230,
 421 0122 101C     		mov	r0, r2	@, tmp229
 422 0124 191C     		mov	r1, r3	@, tmp230
 423 0126 0022     		mov	r2, #0	@,
 424 0128 0223     		mov	r3, #2	@,
 425 012a FFF7FEFF 		bl	FuncShowBlink	@
 150:.\src/main_menu.c **** 			/*
 151:.\src/main_menu.c **** 			LCD_1ER_RENGLON;
 152:.\src/main_menu.c **** 			LCDTransmitStr((const char *) "Stand Alone     ");
 153:.\src/main_menu.c **** 			LCD_2DO_RENGLON;
 154:.\src/main_menu.c **** 			LCDTransmitStr((const char *) "Selected...     ");
 155:.\src/main_menu.c **** 			*/
 156:.\src/main_menu.c **** 			mainmenu_state++;
 426              		.loc 1 156 0
 427 012e 324B     		ldr	r3, .L40	@ tmp231,
 428 0130 1B78     		ldrb	r3, [r3]	@ mainmenu_state.103, mainmenu_state
 429 0132 0133     		add	r3, r3, #1	@ tmp232,
 430 0134 DAB2     		uxtb	r2, r3	@ mainmenu_state.104, tmp232
 431 0136 304B     		ldr	r3, .L40	@ tmp233,
 432 0138 1A70     		strb	r2, [r3]	@ tmp234, mainmenu_state
 157:.\src/main_menu.c **** 			break;
 433              		.loc 1 157 0
 434 013a 57E0     		b	.L18	@
 435              	.L11:
 158:.\src/main_menu.c **** 
 159:.\src/main_menu.c **** 		case MAINMENU_SHOW_STANDALONE_SELECTED_1:
 160:.\src/main_menu.c **** 			if (CheckS2() == S_NO)
 436              		.loc 1 160 0
 437 013c FFF7FEFF 		bl	CheckS2	@
 438 0140 031C     		mov	r3, r0	@ tmp235,
 439 0142 002B     		cmp	r3, #0	@ D.5751,
ARM GAS  C:\Users\Mariano\AppData\Local\Temp\ccX2jy0d.s 			page 12


 440 0144 4DD1     		bne	.L37	@,
 161:.\src/main_menu.c **** 			{
 162:.\src/main_menu.c **** 				resp = MAINMENU_SHOW_STANDALONE_SELECTED;
 441              		.loc 1 162 0
 442 0146 6B46     		mov	r3, sp	@ tmp237,
 443 0148 0733     		add	r3, r3, #7	@ tmp237,
 444 014a 1E22     		mov	r2, #30	@ tmp238,
 445 014c 1A70     		strb	r2, [r3]	@ tmp239, resp
 163:.\src/main_menu.c **** 				mainmenu_state = MAINMENU_INIT;
 446              		.loc 1 163 0
 447 014e 2A4B     		ldr	r3, .L40	@ tmp240,
 448 0150 0022     		mov	r2, #0	@ tmp241,
 449 0152 1A70     		strb	r2, [r3]	@ tmp242, mainmenu_state
 164:.\src/main_menu.c **** 			}
 165:.\src/main_menu.c **** 			break;
 450              		.loc 1 165 0
 451 0154 45E0     		b	.L37	@
 452              	.L12:
 166:.\src/main_menu.c **** 
 167:.\src/main_menu.c **** 		case MAINMENU_SHOW_GROUPED_SELECTED:
 168:.\src/main_menu.c **** 			FuncShowBlink ((const char *) "Grouped         ", (const char *) "Selected...     ", 0, BLINK_NO
 453              		.loc 1 168 0
 454 0156 2D4A     		ldr	r2, .L40+20	@ tmp243,
 455 0158 2E4B     		ldr	r3, .L40+28	@ tmp244,
 456 015a 101C     		mov	r0, r2	@, tmp243
 457 015c 191C     		mov	r1, r3	@, tmp244
 458 015e 0022     		mov	r2, #0	@,
 459 0160 0223     		mov	r3, #2	@,
 460 0162 FFF7FEFF 		bl	FuncShowBlink	@
 169:.\src/main_menu.c **** 			/*
 170:.\src/main_menu.c **** 			LCD_1ER_RENGLON;
 171:.\src/main_menu.c **** 			LCDTransmitStr((const char *) "Grouped         ");
 172:.\src/main_menu.c **** 			LCD_2DO_RENGLON;
 173:.\src/main_menu.c **** 			LCDTransmitStr((const char *) "Selected...     ");
 174:.\src/main_menu.c **** 			*/
 175:.\src/main_menu.c **** 			mainmenu_state++;
 461              		.loc 1 175 0
 462 0166 244B     		ldr	r3, .L40	@ tmp245,
 463 0168 1B78     		ldrb	r3, [r3]	@ mainmenu_state.105, mainmenu_state
 464 016a 0133     		add	r3, r3, #1	@ tmp246,
 465 016c DAB2     		uxtb	r2, r3	@ mainmenu_state.106, tmp246
 466 016e 224B     		ldr	r3, .L40	@ tmp247,
 467 0170 1A70     		strb	r2, [r3]	@ tmp248, mainmenu_state
 176:.\src/main_menu.c **** 			break;
 468              		.loc 1 176 0
 469 0172 3BE0     		b	.L18	@
 470              	.L13:
 177:.\src/main_menu.c **** 
 178:.\src/main_menu.c **** 		case MAINMENU_SHOW_GROUPED_SELECTED_1:
 179:.\src/main_menu.c **** 			if (CheckS2() == S_NO)
 471              		.loc 1 179 0
 472 0174 FFF7FEFF 		bl	CheckS2	@
 473 0178 031C     		mov	r3, r0	@ tmp249,
 474 017a 002B     		cmp	r3, #0	@ D.5756,
 475 017c 33D1     		bne	.L38	@,
 180:.\src/main_menu.c **** 			{
 181:.\src/main_menu.c **** 				resp = MAINMENU_SHOW_GROUPED_SELECTED;
ARM GAS  C:\Users\Mariano\AppData\Local\Temp\ccX2jy0d.s 			page 13


 476              		.loc 1 181 0
 477 017e 6B46     		mov	r3, sp	@ tmp251,
 478 0180 0733     		add	r3, r3, #7	@ tmp251,
 479 0182 2022     		mov	r2, #32	@ tmp252,
 480 0184 1A70     		strb	r2, [r3]	@ tmp253, resp
 182:.\src/main_menu.c **** 				mainmenu_state = MAINMENU_INIT;
 481              		.loc 1 182 0
 482 0186 1C4B     		ldr	r3, .L40	@ tmp254,
 483 0188 0022     		mov	r2, #0	@ tmp255,
 484 018a 1A70     		strb	r2, [r3]	@ tmp256, mainmenu_state
 183:.\src/main_menu.c **** 			}
 184:.\src/main_menu.c **** 			break;
 485              		.loc 1 184 0
 486 018c 2BE0     		b	.L38	@
 487              	.L14:
 185:.\src/main_menu.c **** 
 186:.\src/main_menu.c **** 		case MAINMENU_SHOW_NETWORK_SELECTED:
 187:.\src/main_menu.c **** 			FuncShowBlink ((const char *) "Networked       ", (const char *) "Selected...     ", 0, BLINK_NO
 488              		.loc 1 187 0
 489 018e 224A     		ldr	r2, .L40+32	@ tmp257,
 490 0190 204B     		ldr	r3, .L40+28	@ tmp258,
 491 0192 101C     		mov	r0, r2	@, tmp257
 492 0194 191C     		mov	r1, r3	@, tmp258
 493 0196 0022     		mov	r2, #0	@,
 494 0198 0223     		mov	r3, #2	@,
 495 019a FFF7FEFF 		bl	FuncShowBlink	@
 188:.\src/main_menu.c **** 			/*
 189:.\src/main_menu.c **** 			LCD_1ER_RENGLON;
 190:.\src/main_menu.c **** 			LCDTransmitStr((const char *) "Networked       ");
 191:.\src/main_menu.c **** 			LCD_2DO_RENGLON;
 192:.\src/main_menu.c **** 			LCDTransmitStr((const char *) "Selected...     ");
 193:.\src/main_menu.c **** 			*/
 194:.\src/main_menu.c **** 			mainmenu_state++;
 496              		.loc 1 194 0
 497 019e 164B     		ldr	r3, .L40	@ tmp259,
 498 01a0 1B78     		ldrb	r3, [r3]	@ mainmenu_state.107, mainmenu_state
 499 01a2 0133     		add	r3, r3, #1	@ tmp260,
 500 01a4 DAB2     		uxtb	r2, r3	@ mainmenu_state.108, tmp260
 501 01a6 144B     		ldr	r3, .L40	@ tmp261,
 502 01a8 1A70     		strb	r2, [r3]	@ tmp262, mainmenu_state
 195:.\src/main_menu.c **** 			break;
 503              		.loc 1 195 0
 504 01aa 1FE0     		b	.L18	@
 505              	.L15:
 196:.\src/main_menu.c **** 
 197:.\src/main_menu.c **** 		case MAINMENU_SHOW_NETWORK_SELECTED_1:
 198:.\src/main_menu.c **** 			if (CheckS2() == S_NO)
 506              		.loc 1 198 0
 507 01ac FFF7FEFF 		bl	CheckS2	@
 508 01b0 031C     		mov	r3, r0	@ tmp263,
 509 01b2 002B     		cmp	r3, #0	@ D.5761,
 510 01b4 19D1     		bne	.L39	@,
 199:.\src/main_menu.c **** 			{
 200:.\src/main_menu.c **** 				resp = MAINMENU_SHOW_NETWORK_SELECTED;
 511              		.loc 1 200 0
 512 01b6 6B46     		mov	r3, sp	@ tmp265,
 513 01b8 0733     		add	r3, r3, #7	@ tmp265,
ARM GAS  C:\Users\Mariano\AppData\Local\Temp\ccX2jy0d.s 			page 14


 514 01ba 2222     		mov	r2, #34	@ tmp266,
 515 01bc 1A70     		strb	r2, [r3]	@ tmp267, resp
 201:.\src/main_menu.c **** 				mainmenu_state = MAINMENU_INIT;
 516              		.loc 1 201 0
 517 01be 0E4B     		ldr	r3, .L40	@ tmp268,
 518 01c0 0022     		mov	r2, #0	@ tmp269,
 519 01c2 1A70     		strb	r2, [r3]	@ tmp270, mainmenu_state
 202:.\src/main_menu.c **** 			}
 203:.\src/main_menu.c **** 			break;
 520              		.loc 1 203 0
 521 01c4 11E0     		b	.L39	@
 522              	.L2:
 204:.\src/main_menu.c **** 
 205:.\src/main_menu.c **** 		default:
 206:.\src/main_menu.c **** 			mainmenu_state = MAINMENU_INIT;
 523              		.loc 1 206 0
 524 01c6 0C4B     		ldr	r3, .L40	@ tmp271,
 525 01c8 0022     		mov	r2, #0	@ tmp272,
 526 01ca 1A70     		strb	r2, [r3]	@ tmp273, mainmenu_state
 207:.\src/main_menu.c **** 			break;
 527              		.loc 1 207 0
 528 01cc 0EE0     		b	.L18	@
 529              	.L32:
  74:.\src/main_menu.c **** 			break;
 530              		.loc 1 74 0
 531 01ce C046     		mov	r8, r8
 532 01d0 0CE0     		b	.L18	@
 533              	.L33:
  63:.\src/main_menu.c **** 			break;
 534              		.loc 1 63 0
 535 01d2 C046     		mov	r8, r8
 536 01d4 0AE0     		b	.L18	@
 537              	.L34:
 117:.\src/main_menu.c **** 			break;
 538              		.loc 1 117 0
 539 01d6 C046     		mov	r8, r8
 540 01d8 08E0     		b	.L18	@
 541              	.L35:
 131:.\src/main_menu.c **** 			break;
 542              		.loc 1 131 0
 543 01da C046     		mov	r8, r8
 544 01dc 06E0     		b	.L18	@
 545              	.L36:
 145:.\src/main_menu.c **** 			break;
 546              		.loc 1 145 0
 547 01de C046     		mov	r8, r8
 548 01e0 04E0     		b	.L18	@
 549              	.L37:
 165:.\src/main_menu.c **** 			break;
 550              		.loc 1 165 0
 551 01e2 C046     		mov	r8, r8
 552 01e4 02E0     		b	.L18	@
 553              	.L38:
 184:.\src/main_menu.c **** 			break;
 554              		.loc 1 184 0
 555 01e6 C046     		mov	r8, r8
 556 01e8 00E0     		b	.L18	@
ARM GAS  C:\Users\Mariano\AppData\Local\Temp\ccX2jy0d.s 			page 15


 557              	.L39:
 203:.\src/main_menu.c **** 			break;
 558              		.loc 1 203 0
 559 01ea C046     		mov	r8, r8
 560              	.L18:
 208:.\src/main_menu.c **** 	}
 209:.\src/main_menu.c **** 	return resp;
 561              		.loc 1 209 0
 562 01ec 6B46     		mov	r3, sp	@ tmp274,
 563 01ee 0733     		add	r3, r3, #7	@ tmp274,
 564 01f0 1B78     		ldrb	r3, [r3]	@ D.5764, resp
 210:.\src/main_menu.c **** }
 565              		.loc 1 210 0
 566 01f2 181C     		mov	r0, r3	@, <retval>
 567 01f4 02B0     		add	sp, sp, #8	@,,
 568              		@ sp needed for prologue	@
 569 01f6 10BD     		pop	{r4, pc}
 570              	.L41:
 571              		.align	2
 572              	.L40:
 573 01f8 00000000 		.word	mainmenu_state
 574 01fc 00000000 		.word	.L16
 575 0200 00000000 		.word	.LC2
 576 0204 14000000 		.word	.LC4
 577 0208 28000000 		.word	.LC6
 578 020c 3C000000 		.word	.LC8
 579 0210 50000000 		.word	.LC10
 580 0214 64000000 		.word	.LC12
 581 0218 78000000 		.word	.LC14
 582              		.cfi_endproc
 583              	.LFE0:
 584              		.size	FuncMainMenu, .-FuncMainMenu
 585              		.section	.text.FuncShowBlink,"ax",%progbits
 586              		.align	2
 587              		.global	FuncShowBlink
 588              		.code	16
 589              		.thumb_func
 590              		.type	FuncShowBlink, %function
 591              	FuncShowBlink:
 592              	.LFB1:
 211:.\src/main_menu.c **** 
 212:.\src/main_menu.c **** //funcion que muestra los string de renglon 1 y renglon 2
 213:.\src/main_menu.c **** //recibe puntero a primer renglon
 214:.\src/main_menu.c **** //puntero a segundo renglon
 215:.\src/main_menu.c **** //how many cantidad de pantallas en blinking
 216:.\src/main_menu.c **** //modo BLINK_DIRECT o BLINK_CROSS
 217:.\src/main_menu.c **** //si modo es BLINK_NO en how_many me pasan los segundos antes de terminar
 218:.\src/main_menu.c **** unsigned char FuncShowBlink (const char * p_text1, const char * p_text2, unsigned char how_many, un
 219:.\src/main_menu.c **** {
 593              		.loc 1 219 0
 594              		.cfi_startproc
 595 0000 00B5     		push	{lr}	@
 596              	.LCFI2:
 597              		.cfi_def_cfa_offset 4
 598              		.cfi_offset 14, -4
 599 0002 87B0     		sub	sp, sp, #28	@,,
 600              	.LCFI3:
ARM GAS  C:\Users\Mariano\AppData\Local\Temp\ccX2jy0d.s 			page 16


 601              		.cfi_def_cfa_offset 32
 602 0004 0390     		str	r0, [sp, #12]	@ p_text1, p_text1
 603 0006 0291     		str	r1, [sp, #8]	@ p_text2, p_text2
 604 0008 111C     		mov	r1, r2	@ tmp151, how_many
 605 000a 1A1C     		mov	r2, r3	@ tmp154, mode
 606 000c 6B46     		mov	r3, sp	@ tmp152,
 607 000e 0733     		add	r3, r3, #7	@ tmp152,
 608 0010 1970     		strb	r1, [r3]	@ tmp153, how_many
 609 0012 6B46     		mov	r3, sp	@ tmp155,
 610 0014 0633     		add	r3, r3, #6	@ tmp155,
 611 0016 1A70     		strb	r2, [r3]	@ tmp156, mode
 220:.\src/main_menu.c ****     unsigned char resp = RESP_CONTINUE;
 612              		.loc 1 220 0
 613 0018 6B46     		mov	r3, sp	@ tmp157,
 614 001a 1733     		add	r3, r3, #23	@ tmp157,
 615 001c 0022     		mov	r2, #0	@ tmp158,
 616 001e 1A70     		strb	r2, [r3]	@ tmp159, resp
 221:.\src/main_menu.c **** 
 222:.\src/main_menu.c ****     switch (blinking_state)
 617              		.loc 1 222 0
 618 0020 804B     		ldr	r3, .L69	@ tmp160,
 619 0022 1B78     		ldrb	r3, [r3]	@ blinking_state.89, blinking_state
 620 0024 062B     		cmp	r3, #6	@ D.5689,
 621 0026 00D9     		bls	.LCB371	@
 622 0028 E5E0     		b	.L43	@long jump	@
 623              	.LCB371:
 624 002a 9A00     		lsl	r2, r3, #2	@ tmp161, D.5689,
 625 002c 7E4B     		ldr	r3, .L69+4	@ tmp163,
 626 002e D318     		add	r3, r2, r3	@ tmp162, tmp161, tmp163
 627 0030 1B68     		ldr	r3, [r3]	@ tmp164,
 628 0032 9F46     		mov	pc, r3	@ tmp164
 629              		.section	.rodata.FuncShowBlink,"a",%progbits
 630              		.align	2
 631              	.L51:
 632 0000 34000000 		.word	.L44
 633 0004 70000000 		.word	.L45
 634 0008 CC000000 		.word	.L46
 635 000c 04010000 		.word	.L47
 636 0010 6E010000 		.word	.L48
 637 0014 A4010000 		.word	.L49
 638 0018 DC010000 		.word	.L50
 639              		.section	.text.FuncShowBlink
 640              	.L44:
 223:.\src/main_menu.c ****     {
 224:.\src/main_menu.c ****         case BLINKING_INIT:
 225:.\src/main_menu.c ****             if (mode == BLINK_DIRECT)
 641              		.loc 1 225 0
 642 0034 6B46     		mov	r3, sp	@ tmp165,
 643 0036 0633     		add	r3, r3, #6	@ tmp165,
 644 0038 1B78     		ldrb	r3, [r3]	@ tmp166, mode
 645 003a 002B     		cmp	r3, #0	@ tmp166,
 646 003c 03D1     		bne	.L52	@,
 226:.\src/main_menu.c ****                 blinking_state = BLINKING_MARK_D;
 647              		.loc 1 226 0
 648 003e 794B     		ldr	r3, .L69	@ tmp167,
 649 0040 0122     		mov	r2, #1	@ tmp168,
 650 0042 1A70     		strb	r2, [r3]	@ tmp169, blinking_state
ARM GAS  C:\Users\Mariano\AppData\Local\Temp\ccX2jy0d.s 			page 17


 651 0044 0BE0     		b	.L53	@
 652              	.L52:
 227:.\src/main_menu.c ****             else if (mode == BLINK_CROSS)
 653              		.loc 1 227 0
 654 0046 6B46     		mov	r3, sp	@ tmp170,
 655 0048 0633     		add	r3, r3, #6	@ tmp170,
 656 004a 1B78     		ldrb	r3, [r3]	@ tmp171, mode
 657 004c 012B     		cmp	r3, #1	@ tmp171,
 658 004e 03D1     		bne	.L54	@,
 228:.\src/main_menu.c ****                 blinking_state = BLINKING_MARK_C;
 659              		.loc 1 228 0
 660 0050 744B     		ldr	r3, .L69	@ tmp172,
 661 0052 0322     		mov	r2, #3	@ tmp173,
 662 0054 1A70     		strb	r2, [r3]	@ tmp174, blinking_state
 663 0056 02E0     		b	.L53	@
 664              	.L54:
 229:.\src/main_menu.c ****             else
 230:.\src/main_menu.c ****                 blinking_state = BLINKING_MARK_N;
 665              		.loc 1 230 0
 666 0058 724B     		ldr	r3, .L69	@ tmp175,
 667 005a 0522     		mov	r2, #5	@ tmp176,
 668 005c 1A70     		strb	r2, [r3]	@ tmp177, blinking_state
 669              	.L53:
 231:.\src/main_menu.c **** 
 232:.\src/main_menu.c **** //            if (!how_many)
 233:.\src/main_menu.c **** //                how_many = 1;
 234:.\src/main_menu.c **** 
 235:.\src/main_menu.c ****             blinking_how_many = how_many;
 670              		.loc 1 235 0
 671 005e 734B     		ldr	r3, .L69+8	@ tmp178,
 672 0060 6A46     		mov	r2, sp	@ tmp179,
 673 0062 0732     		add	r2, r2, #7	@ tmp179,
 674 0064 1278     		ldrb	r2, [r2]	@ tmp180, how_many
 675 0066 1A70     		strb	r2, [r3]	@ tmp180, blinking_how_many
 236:.\src/main_menu.c ****             show_select_timer = 0;
 676              		.loc 1 236 0
 677 0068 714B     		ldr	r3, .L69+12	@ tmp181,
 678 006a 0022     		mov	r2, #0	@ tmp182,
 679 006c 1A80     		strh	r2, [r3]	@ tmp183, show_select_timer
 237:.\src/main_menu.c ****             break;
 680              		.loc 1 237 0
 681 006e D3E0     		b	.L55	@
 682              	.L45:
 238:.\src/main_menu.c **** 
 239:.\src/main_menu.c ****         case BLINKING_MARK_D:
 240:.\src/main_menu.c ****             if (!show_select_timer)
 683              		.loc 1 240 0
 684 0070 6F4B     		ldr	r3, .L69+12	@ tmp184,
 685 0072 1B88     		ldrh	r3, [r3]	@ tmp185, show_select_timer
 686 0074 9BB2     		uxth	r3, r3	@ show_select_timer.90, tmp185
 687 0076 002B     		cmp	r3, #0	@ show_select_timer.90,
 688 0078 00D0     		beq	.LCB428	@
 689 007a C4E0     		b	.L64	@long jump	@
 690              	.LCB428:
 241:.\src/main_menu.c ****             {
 242:.\src/main_menu.c ****                 if (blinking_how_many)
 691              		.loc 1 242 0
ARM GAS  C:\Users\Mariano\AppData\Local\Temp\ccX2jy0d.s 			page 18


 692 007c 6B4B     		ldr	r3, .L69+8	@ tmp186,
 693 007e 1B78     		ldrb	r3, [r3]	@ blinking_how_many.91, blinking_how_many
 694 0080 002B     		cmp	r3, #0	@ blinking_how_many.91,
 695 0082 1BD0     		beq	.L57	@,
 243:.\src/main_menu.c ****                 {
 244:.\src/main_menu.c ****                 	blinking_how_many--;
 696              		.loc 1 244 0
 697 0084 694B     		ldr	r3, .L69+8	@ tmp187,
 698 0086 1B78     		ldrb	r3, [r3]	@ blinking_how_many.92, blinking_how_many
 699 0088 013B     		sub	r3, r3, #1	@ tmp188,
 700 008a DAB2     		uxtb	r2, r3	@ blinking_how_many.93, tmp188
 701 008c 674B     		ldr	r3, .L69+8	@ tmp189,
 702 008e 1A70     		strb	r2, [r3]	@ tmp190, blinking_how_many
 245:.\src/main_menu.c ****                     LCD_1ER_RENGLON;
 703              		.loc 1 245 0
 704 0090 0020     		mov	r0, #0	@,
 705 0092 FFF7FEFF 		bl	Lcd_SetDDRAM	@
 246:.\src/main_menu.c ****                     LCDTransmitStr(p_text1);
 706              		.loc 1 246 0
 707 0096 039B     		ldr	r3, [sp, #12]	@ tmp191, p_text1
 708 0098 181C     		mov	r0, r3	@, tmp191
 709 009a FFF7FEFF 		bl	LCDTransmitStr	@
 247:.\src/main_menu.c ****                     LCD_2DO_RENGLON;
 710              		.loc 1 247 0
 711 009e 4020     		mov	r0, #64	@,
 712 00a0 FFF7FEFF 		bl	Lcd_SetDDRAM	@
 248:.\src/main_menu.c ****                     LCDTransmitStr(p_text2);
 713              		.loc 1 248 0
 714 00a4 029B     		ldr	r3, [sp, #8]	@ tmp192, p_text2
 715 00a6 181C     		mov	r0, r3	@, tmp192
 716 00a8 FFF7FEFF 		bl	LCDTransmitStr	@
 249:.\src/main_menu.c ****                     show_select_timer = 1000;
 717              		.loc 1 249 0
 718 00ac 604B     		ldr	r3, .L69+12	@ tmp193,
 719 00ae FA22     		mov	r2, #250	@ tmp279,
 720 00b0 9200     		lsl	r2, r2, #2	@ tmp194, tmp279,
 721 00b2 1A80     		strh	r2, [r3]	@ tmp195, show_select_timer
 250:.\src/main_menu.c ****                     blinking_state = BLINKING_SPACE_D;
 722              		.loc 1 250 0
 723 00b4 5B4B     		ldr	r3, .L69	@ tmp196,
 724 00b6 0222     		mov	r2, #2	@ tmp197,
 725 00b8 1A70     		strb	r2, [r3]	@ tmp198, blinking_state
 251:.\src/main_menu.c ****                 }
 252:.\src/main_menu.c ****                 else
 253:.\src/main_menu.c ****                 {
 254:.\src/main_menu.c ****                 	blinking_state = BLINKING_INIT;
 255:.\src/main_menu.c ****                 	resp = RESP_FINISH;
 256:.\src/main_menu.c ****                 }
 257:.\src/main_menu.c ****             }
 258:.\src/main_menu.c ****             break;
 726              		.loc 1 258 0
 727 00ba A4E0     		b	.L64	@
 728              	.L57:
 254:.\src/main_menu.c ****                 	blinking_state = BLINKING_INIT;
 729              		.loc 1 254 0
 730 00bc 594B     		ldr	r3, .L69	@ tmp199,
 731 00be 0022     		mov	r2, #0	@ tmp200,
ARM GAS  C:\Users\Mariano\AppData\Local\Temp\ccX2jy0d.s 			page 19


 732 00c0 1A70     		strb	r2, [r3]	@ tmp201, blinking_state
 255:.\src/main_menu.c ****                 	resp = RESP_FINISH;
 733              		.loc 1 255 0
 734 00c2 6B46     		mov	r3, sp	@ tmp202,
 735 00c4 1733     		add	r3, r3, #23	@ tmp202,
 736 00c6 0A22     		mov	r2, #10	@ tmp203,
 737 00c8 1A70     		strb	r2, [r3]	@ tmp204, resp
 738              		.loc 1 258 0
 739 00ca 9CE0     		b	.L64	@
 740              	.L46:
 259:.\src/main_menu.c **** 
 260:.\src/main_menu.c ****         case BLINKING_SPACE_D:
 261:.\src/main_menu.c ****             if (!show_select_timer)
 741              		.loc 1 261 0
 742 00cc 584B     		ldr	r3, .L69+12	@ tmp205,
 743 00ce 1B88     		ldrh	r3, [r3]	@ tmp206, show_select_timer
 744 00d0 9BB2     		uxth	r3, r3	@ show_select_timer.94, tmp206
 745 00d2 002B     		cmp	r3, #0	@ show_select_timer.94,
 746 00d4 00D0     		beq	.LCB475	@
 747 00d6 98E0     		b	.L65	@long jump	@
 748              	.LCB475:
 262:.\src/main_menu.c ****             {
 263:.\src/main_menu.c ****                 LCD_1ER_RENGLON;
 749              		.loc 1 263 0
 750 00d8 0020     		mov	r0, #0	@,
 751 00da FFF7FEFF 		bl	Lcd_SetDDRAM	@
 264:.\src/main_menu.c ****                 LCDTransmitStr((const char *)s_blank_line);
 752              		.loc 1 264 0
 753 00de 554B     		ldr	r3, .L69+16	@ tmp207,
 754 00e0 181C     		mov	r0, r3	@, tmp207
 755 00e2 FFF7FEFF 		bl	LCDTransmitStr	@
 265:.\src/main_menu.c ****                 LCD_2DO_RENGLON;
 756              		.loc 1 265 0
 757 00e6 4020     		mov	r0, #64	@,
 758 00e8 FFF7FEFF 		bl	Lcd_SetDDRAM	@
 266:.\src/main_menu.c ****                 LCDTransmitStr((const char *)s_blank_line);
 759              		.loc 1 266 0
 760 00ec 514B     		ldr	r3, .L69+16	@ tmp208,
 761 00ee 181C     		mov	r0, r3	@, tmp208
 762 00f0 FFF7FEFF 		bl	LCDTransmitStr	@
 267:.\src/main_menu.c ****                 show_select_timer = 600;
 763              		.loc 1 267 0
 764 00f4 4E4B     		ldr	r3, .L69+12	@ tmp209,
 765 00f6 9622     		mov	r2, #150	@ tmp278,
 766 00f8 9200     		lsl	r2, r2, #2	@ tmp210, tmp278,
 767 00fa 1A80     		strh	r2, [r3]	@ tmp211, show_select_timer
 268:.\src/main_menu.c ****                 blinking_state = BLINKING_MARK_D;
 768              		.loc 1 268 0
 769 00fc 494B     		ldr	r3, .L69	@ tmp212,
 770 00fe 0122     		mov	r2, #1	@ tmp213,
 771 0100 1A70     		strb	r2, [r3]	@ tmp214, blinking_state
 269:.\src/main_menu.c ****             }
 270:.\src/main_menu.c ****             break;
 772              		.loc 1 270 0
 773 0102 82E0     		b	.L65	@
 774              	.L47:
 271:.\src/main_menu.c **** 
ARM GAS  C:\Users\Mariano\AppData\Local\Temp\ccX2jy0d.s 			page 20


 272:.\src/main_menu.c ****         case BLINKING_MARK_C:
 273:.\src/main_menu.c ****             if (!show_select_timer)
 775              		.loc 1 273 0
 776 0104 4A4B     		ldr	r3, .L69+12	@ tmp215,
 777 0106 1B88     		ldrh	r3, [r3]	@ tmp216, show_select_timer
 778 0108 9BB2     		uxth	r3, r3	@ show_select_timer.95, tmp216
 779 010a 002B     		cmp	r3, #0	@ show_select_timer.95,
 780 010c 00D0     		beq	.LCB501	@
 781 010e 7EE0     		b	.L66	@long jump	@
 782              	.LCB501:
 274:.\src/main_menu.c ****             {
 275:.\src/main_menu.c ****                 if (blinking_how_many)
 783              		.loc 1 275 0
 784 0110 464B     		ldr	r3, .L69+8	@ tmp217,
 785 0112 1B78     		ldrb	r3, [r3]	@ blinking_how_many.96, blinking_how_many
 786 0114 002B     		cmp	r3, #0	@ blinking_how_many.96,
 787 0116 1BD0     		beq	.L60	@,
 276:.\src/main_menu.c ****                 {
 277:.\src/main_menu.c ****                 	blinking_how_many--;
 788              		.loc 1 277 0
 789 0118 444B     		ldr	r3, .L69+8	@ tmp218,
 790 011a 1B78     		ldrb	r3, [r3]	@ blinking_how_many.97, blinking_how_many
 791 011c 013B     		sub	r3, r3, #1	@ tmp219,
 792 011e DAB2     		uxtb	r2, r3	@ blinking_how_many.98, tmp219
 793 0120 424B     		ldr	r3, .L69+8	@ tmp220,
 794 0122 1A70     		strb	r2, [r3]	@ tmp221, blinking_how_many
 278:.\src/main_menu.c ****                     LCD_1ER_RENGLON;
 795              		.loc 1 278 0
 796 0124 0020     		mov	r0, #0	@,
 797 0126 FFF7FEFF 		bl	Lcd_SetDDRAM	@
 279:.\src/main_menu.c ****                     LCDTransmitStr(p_text1);
 798              		.loc 1 279 0
 799 012a 039B     		ldr	r3, [sp, #12]	@ tmp222, p_text1
 800 012c 181C     		mov	r0, r3	@, tmp222
 801 012e FFF7FEFF 		bl	LCDTransmitStr	@
 280:.\src/main_menu.c ****                     LCD_2DO_RENGLON;
 802              		.loc 1 280 0
 803 0132 4020     		mov	r0, #64	@,
 804 0134 FFF7FEFF 		bl	Lcd_SetDDRAM	@
 281:.\src/main_menu.c ****                     LCDTransmitStr((const char *)s_blank_line);
 805              		.loc 1 281 0
 806 0138 3E4B     		ldr	r3, .L69+16	@ tmp223,
 807 013a 181C     		mov	r0, r3	@, tmp223
 808 013c FFF7FEFF 		bl	LCDTransmitStr	@
 282:.\src/main_menu.c ****                     show_select_timer = 1000;
 809              		.loc 1 282 0
 810 0140 3B4B     		ldr	r3, .L69+12	@ tmp224,
 811 0142 FA22     		mov	r2, #250	@ tmp277,
 812 0144 9200     		lsl	r2, r2, #2	@ tmp225, tmp277,
 813 0146 1A80     		strh	r2, [r3]	@ tmp226, show_select_timer
 283:.\src/main_menu.c ****                     blinking_state = BLINKING_SPACE_C;
 814              		.loc 1 283 0
 815 0148 364B     		ldr	r3, .L69	@ tmp227,
 816 014a 0422     		mov	r2, #4	@ tmp228,
 817 014c 1A70     		strb	r2, [r3]	@ tmp229, blinking_state
 284:.\src/main_menu.c ****                 }
 285:.\src/main_menu.c ****                 else
ARM GAS  C:\Users\Mariano\AppData\Local\Temp\ccX2jy0d.s 			page 21


 286:.\src/main_menu.c ****                 {
 287:.\src/main_menu.c ****                     LCD_1ER_RENGLON;
 288:.\src/main_menu.c ****                     LCDTransmitStr((const char *) s_blank_line);
 289:.\src/main_menu.c ****                     blinking_state = BLINKING_INIT;
 290:.\src/main_menu.c ****                     resp = RESP_FINISH;
 291:.\src/main_menu.c ****                 }
 292:.\src/main_menu.c ****             }
 293:.\src/main_menu.c ****             break;
 818              		.loc 1 293 0
 819 014e 5EE0     		b	.L66	@
 820              	.L60:
 287:.\src/main_menu.c ****                     LCD_1ER_RENGLON;
 821              		.loc 1 287 0
 822 0150 0020     		mov	r0, #0	@,
 823 0152 FFF7FEFF 		bl	Lcd_SetDDRAM	@
 288:.\src/main_menu.c ****                     LCDTransmitStr((const char *) s_blank_line);
 824              		.loc 1 288 0
 825 0156 374B     		ldr	r3, .L69+16	@ tmp230,
 826 0158 181C     		mov	r0, r3	@, tmp230
 827 015a FFF7FEFF 		bl	LCDTransmitStr	@
 289:.\src/main_menu.c ****                     blinking_state = BLINKING_INIT;
 828              		.loc 1 289 0
 829 015e 314B     		ldr	r3, .L69	@ tmp231,
 830 0160 0022     		mov	r2, #0	@ tmp232,
 831 0162 1A70     		strb	r2, [r3]	@ tmp233, blinking_state
 290:.\src/main_menu.c ****                     resp = RESP_FINISH;
 832              		.loc 1 290 0
 833 0164 6B46     		mov	r3, sp	@ tmp234,
 834 0166 1733     		add	r3, r3, #23	@ tmp234,
 835 0168 0A22     		mov	r2, #10	@ tmp235,
 836 016a 1A70     		strb	r2, [r3]	@ tmp236, resp
 837              		.loc 1 293 0
 838 016c 4FE0     		b	.L66	@
 839              	.L48:
 294:.\src/main_menu.c **** 
 295:.\src/main_menu.c ****         case BLINKING_SPACE_C:
 296:.\src/main_menu.c ****             if (!show_select_timer)
 840              		.loc 1 296 0
 841 016e 304B     		ldr	r3, .L69+12	@ tmp237,
 842 0170 1B88     		ldrh	r3, [r3]	@ tmp238, show_select_timer
 843 0172 9BB2     		uxth	r3, r3	@ show_select_timer.99, tmp238
 844 0174 002B     		cmp	r3, #0	@ show_select_timer.99,
 845 0176 4CD1     		bne	.L67	@,
 297:.\src/main_menu.c ****             {
 298:.\src/main_menu.c ****                 LCD_1ER_RENGLON;
 846              		.loc 1 298 0
 847 0178 0020     		mov	r0, #0	@,
 848 017a FFF7FEFF 		bl	Lcd_SetDDRAM	@
 299:.\src/main_menu.c ****                 LCDTransmitStr((const char *) s_blank_line);
 849              		.loc 1 299 0
 850 017e 2D4B     		ldr	r3, .L69+16	@ tmp239,
 851 0180 181C     		mov	r0, r3	@, tmp239
 852 0182 FFF7FEFF 		bl	LCDTransmitStr	@
 300:.\src/main_menu.c ****                 LCD_2DO_RENGLON;
 853              		.loc 1 300 0
 854 0186 4020     		mov	r0, #64	@,
 855 0188 FFF7FEFF 		bl	Lcd_SetDDRAM	@
ARM GAS  C:\Users\Mariano\AppData\Local\Temp\ccX2jy0d.s 			page 22


 301:.\src/main_menu.c ****                 LCDTransmitStr(p_text2);
 856              		.loc 1 301 0
 857 018c 029B     		ldr	r3, [sp, #8]	@ tmp240, p_text2
 858 018e 181C     		mov	r0, r3	@, tmp240
 859 0190 FFF7FEFF 		bl	LCDTransmitStr	@
 302:.\src/main_menu.c ****                 show_select_timer = 1000;
 860              		.loc 1 302 0
 861 0194 264B     		ldr	r3, .L69+12	@ tmp241,
 862 0196 FA22     		mov	r2, #250	@ tmp276,
 863 0198 9200     		lsl	r2, r2, #2	@ tmp242, tmp276,
 864 019a 1A80     		strh	r2, [r3]	@ tmp243, show_select_timer
 303:.\src/main_menu.c ****                 blinking_state = BLINKING_MARK_C;
 865              		.loc 1 303 0
 866 019c 214B     		ldr	r3, .L69	@ tmp244,
 867 019e 0322     		mov	r2, #3	@ tmp245,
 868 01a0 1A70     		strb	r2, [r3]	@ tmp246, blinking_state
 304:.\src/main_menu.c ****             }
 305:.\src/main_menu.c ****             break;
 869              		.loc 1 305 0
 870 01a2 36E0     		b	.L67	@
 871              	.L49:
 306:.\src/main_menu.c **** 
 307:.\src/main_menu.c ****         case BLINKING_MARK_N:
 308:.\src/main_menu.c ****             LCD_1ER_RENGLON;
 872              		.loc 1 308 0
 873 01a4 0020     		mov	r0, #0	@,
 874 01a6 FFF7FEFF 		bl	Lcd_SetDDRAM	@
 309:.\src/main_menu.c ****             LCDTransmitStr(p_text1);
 875              		.loc 1 309 0
 876 01aa 039B     		ldr	r3, [sp, #12]	@ tmp247, p_text1
 877 01ac 181C     		mov	r0, r3	@, tmp247
 878 01ae FFF7FEFF 		bl	LCDTransmitStr	@
 310:.\src/main_menu.c ****             LCD_2DO_RENGLON;
 879              		.loc 1 310 0
 880 01b2 4020     		mov	r0, #64	@,
 881 01b4 FFF7FEFF 		bl	Lcd_SetDDRAM	@
 311:.\src/main_menu.c ****             LCDTransmitStr(p_text2);
 882              		.loc 1 311 0
 883 01b8 029B     		ldr	r3, [sp, #8]	@ tmp248, p_text2
 884 01ba 181C     		mov	r0, r3	@, tmp248
 885 01bc FFF7FEFF 		bl	LCDTransmitStr	@
 312:.\src/main_menu.c ****             show_select_timer = 1000 * how_many;
 886              		.loc 1 312 0
 887 01c0 6B46     		mov	r3, sp	@ tmp249,
 888 01c2 0733     		add	r3, r3, #7	@ tmp249,
 889 01c4 1B78     		ldrb	r3, [r3]	@ tmp251, how_many
 890 01c6 9BB2     		uxth	r3, r3	@ D.5720, tmp250
 891 01c8 FA22     		mov	r2, #250	@ tmp275,
 892 01ca 9200     		lsl	r2, r2, #2	@ tmp253, tmp275,
 893 01cc 5343     		mul	r3, r2	@ tmp252, tmp253
 894 01ce 9AB2     		uxth	r2, r3	@ show_select_timer.100, tmp252
 895 01d0 174B     		ldr	r3, .L69+12	@ tmp254,
 896 01d2 1A80     		strh	r2, [r3]	@ tmp255, show_select_timer
 313:.\src/main_menu.c ****             blinking_state = BLINKING_SPACE_N;
 897              		.loc 1 313 0
 898 01d4 134B     		ldr	r3, .L69	@ tmp256,
 899 01d6 0622     		mov	r2, #6	@ tmp257,
ARM GAS  C:\Users\Mariano\AppData\Local\Temp\ccX2jy0d.s 			page 23


 900 01d8 1A70     		strb	r2, [r3]	@ tmp258, blinking_state
 314:.\src/main_menu.c ****             break;
 901              		.loc 1 314 0
 902 01da 1DE0     		b	.L55	@
 903              	.L50:
 315:.\src/main_menu.c **** 
 316:.\src/main_menu.c ****         case BLINKING_SPACE_N:
 317:.\src/main_menu.c ****             if (!show_select_timer)
 904              		.loc 1 317 0
 905 01dc 144B     		ldr	r3, .L69+12	@ tmp259,
 906 01de 1B88     		ldrh	r3, [r3]	@ tmp260, show_select_timer
 907 01e0 9BB2     		uxth	r3, r3	@ show_select_timer.101, tmp260
 908 01e2 002B     		cmp	r3, #0	@ show_select_timer.101,
 909 01e4 17D1     		bne	.L68	@,
 318:.\src/main_menu.c ****             {
 319:.\src/main_menu.c ****             	blinking_state = BLINKING_INIT;
 910              		.loc 1 319 0
 911 01e6 0F4B     		ldr	r3, .L69	@ tmp261,
 912 01e8 0022     		mov	r2, #0	@ tmp262,
 913 01ea 1A70     		strb	r2, [r3]	@ tmp263, blinking_state
 320:.\src/main_menu.c ****                 resp = RESP_FINISH;
 914              		.loc 1 320 0
 915 01ec 6B46     		mov	r3, sp	@ tmp264,
 916 01ee 1733     		add	r3, r3, #23	@ tmp264,
 917 01f0 0A22     		mov	r2, #10	@ tmp265,
 918 01f2 1A70     		strb	r2, [r3]	@ tmp266, resp
 321:.\src/main_menu.c ****             }
 322:.\src/main_menu.c ****             break;
 919              		.loc 1 322 0
 920 01f4 0FE0     		b	.L68	@
 921              	.L43:
 323:.\src/main_menu.c **** 
 324:.\src/main_menu.c ****         default:
 325:.\src/main_menu.c ****         	blinking_state = BLINKING_INIT;
 922              		.loc 1 325 0
 923 01f6 0B4B     		ldr	r3, .L69	@ tmp267,
 924 01f8 0022     		mov	r2, #0	@ tmp268,
 925 01fa 1A70     		strb	r2, [r3]	@ tmp269, blinking_state
 326:.\src/main_menu.c ****             resp = RESP_FINISH;
 926              		.loc 1 326 0
 927 01fc 6B46     		mov	r3, sp	@ tmp270,
 928 01fe 1733     		add	r3, r3, #23	@ tmp270,
 929 0200 0A22     		mov	r2, #10	@ tmp271,
 930 0202 1A70     		strb	r2, [r3]	@ tmp272, resp
 327:.\src/main_menu.c ****             break;
 931              		.loc 1 327 0
 932 0204 08E0     		b	.L55	@
 933              	.L64:
 258:.\src/main_menu.c ****             break;
 934              		.loc 1 258 0
 935 0206 C046     		mov	r8, r8
 936 0208 06E0     		b	.L55	@
 937              	.L65:
 270:.\src/main_menu.c ****             break;
 938              		.loc 1 270 0
 939 020a C046     		mov	r8, r8
 940 020c 04E0     		b	.L55	@
ARM GAS  C:\Users\Mariano\AppData\Local\Temp\ccX2jy0d.s 			page 24


 941              	.L66:
 293:.\src/main_menu.c ****             break;
 942              		.loc 1 293 0
 943 020e C046     		mov	r8, r8
 944 0210 02E0     		b	.L55	@
 945              	.L67:
 305:.\src/main_menu.c ****             break;
 946              		.loc 1 305 0
 947 0212 C046     		mov	r8, r8
 948 0214 00E0     		b	.L55	@
 949              	.L68:
 322:.\src/main_menu.c ****             break;
 950              		.loc 1 322 0
 951 0216 C046     		mov	r8, r8
 952              	.L55:
 328:.\src/main_menu.c ****     }
 329:.\src/main_menu.c ****     return resp;
 953              		.loc 1 329 0
 954 0218 6B46     		mov	r3, sp	@ tmp273,
 955 021a 1733     		add	r3, r3, #23	@ tmp273,
 956 021c 1B78     		ldrb	r3, [r3]	@ D.5725, resp
 330:.\src/main_menu.c **** }
 957              		.loc 1 330 0
 958 021e 181C     		mov	r0, r3	@, <retval>
 959 0220 07B0     		add	sp, sp, #28	@,,
 960              		@ sp needed for prologue	@
 961 0222 00BD     		pop	{pc}
 962              	.L70:
 963              		.align	2
 964              	.L69:
 965 0224 00000000 		.word	blinking_state
 966 0228 00000000 		.word	.L51
 967 022c 00000000 		.word	blinking_how_many
 968 0230 00000000 		.word	show_select_timer
 969 0234 00000000 		.word	s_blank_line
 970              		.cfi_endproc
 971              	.LFE1:
 972              		.size	FuncShowBlink, .-FuncShowBlink
 973              		.section	.rodata
 974 0089 000000   		.align	2
 975              	.LC26:
 976 008c 4368616E 		.ascii	"Changing...     \000"
 976      67696E67 
 976      2E2E2E20 
 976      20202020 
 976      00
 977              		.section	.text.FuncShowSelect,"ax",%progbits
 978              		.align	2
 979              		.global	FuncShowSelect
 980              		.code	16
 981              		.thumb_func
 982              		.type	FuncShowSelect, %function
 983              	FuncShowSelect:
 984              	.LFB2:
 331:.\src/main_menu.c **** 
 332:.\src/main_menu.c **** //funcion que muestra el string enviado en formato de menu
 333:.\src/main_menu.c **** unsigned char FuncShowSelect (const char * p_text)
ARM GAS  C:\Users\Mariano\AppData\Local\Temp\ccX2jy0d.s 			page 25


 334:.\src/main_menu.c **** {
 985              		.loc 1 334 0
 986              		.cfi_startproc
 987 0000 00B5     		push	{lr}	@
 988              	.LCFI4:
 989              		.cfi_def_cfa_offset 4
 990              		.cfi_offset 14, -4
 991 0002 85B0     		sub	sp, sp, #20	@,,
 992              	.LCFI5:
 993              		.cfi_def_cfa_offset 24
 994 0004 0190     		str	r0, [sp, #4]	@ p_text, p_text
 335:.\src/main_menu.c **** 	unsigned char resp = RESP_CONTINUE;
 995              		.loc 1 335 0
 996 0006 6B46     		mov	r3, sp	@ tmp157,
 997 0008 0F33     		add	r3, r3, #15	@ tmp157,
 998 000a 0022     		mov	r2, #0	@ tmp158,
 999 000c 1A70     		strb	r2, [r3]	@ tmp159, resp
 336:.\src/main_menu.c **** 
 337:.\src/main_menu.c **** 	switch (show_select_state)
 1000              		.loc 1 337 0
 1001 000e 624B     		ldr	r3, .L97	@ tmp160,
 1002 0010 1B78     		ldrb	r3, [r3]	@ show_select_state.76, show_select_state
 1003 0012 072B     		cmp	r3, #7	@ D.5648,
 1004 0014 00D9     		bls	.LCB693	@
 1005 0016 AEE0     		b	.L72	@long jump	@
 1006              	.LCB693:
 1007 0018 9A00     		lsl	r2, r3, #2	@ tmp161, D.5648,
 1008 001a 604B     		ldr	r3, .L97+4	@ tmp163,
 1009 001c D318     		add	r3, r2, r3	@ tmp162, tmp161, tmp163
 1010 001e 1B68     		ldr	r3, [r3]	@ tmp164,
 1011 0020 9F46     		mov	pc, r3	@ tmp164
 1012              		.section	.rodata.FuncShowSelect,"a",%progbits
 1013              		.align	2
 1014              	.L81:
 1015 0000 22000000 		.word	.L73
 1016 0004 30000000 		.word	.L74
 1017 0008 54000000 		.word	.L75
 1018 000c A4000000 		.word	.L76
 1019 0010 D6000000 		.word	.L77
 1020 0014 00010000 		.word	.L78
 1021 0018 1A010000 		.word	.L79
 1022 001c 44010000 		.word	.L80
 1023              		.section	.text.FuncShowSelect
 1024              	.L73:
 338:.\src/main_menu.c **** 	{
 339:.\src/main_menu.c **** 		case SHOW_SELECT_INIT:
 340:.\src/main_menu.c **** 			show_select_state++;
 1025              		.loc 1 340 0
 1026 0022 5D4B     		ldr	r3, .L97	@ tmp165,
 1027 0024 1B78     		ldrb	r3, [r3]	@ show_select_state.77, show_select_state
 1028 0026 0133     		add	r3, r3, #1	@ tmp166,
 1029 0028 DAB2     		uxtb	r2, r3	@ show_select_state.78, tmp166
 1030 002a 5B4B     		ldr	r3, .L97	@ tmp167,
 1031 002c 1A70     		strb	r2, [r3]	@ tmp168, show_select_state
 341:.\src/main_menu.c **** 			break;
 1032              		.loc 1 341 0
 1033 002e ADE0     		b	.L82	@
ARM GAS  C:\Users\Mariano\AppData\Local\Temp\ccX2jy0d.s 			page 26


 1034              	.L74:
 342:.\src/main_menu.c **** 
 343:.\src/main_menu.c **** 		case SHOW_SELECT_1:
 344:.\src/main_menu.c **** 			LCD_1ER_RENGLON;
 1035              		.loc 1 344 0
 1036 0030 0020     		mov	r0, #0	@,
 1037 0032 FFF7FEFF 		bl	Lcd_SetDDRAM	@
 345:.\src/main_menu.c **** 			LCDTransmitStr(p_text);
 1038              		.loc 1 345 0
 1039 0036 019B     		ldr	r3, [sp, #4]	@ tmp169, p_text
 1040 0038 181C     		mov	r0, r3	@, tmp169
 1041 003a FFF7FEFF 		bl	LCDTransmitStr	@
 346:.\src/main_menu.c **** 			show_select_timer = 1000;
 1042              		.loc 1 346 0
 1043 003e 584B     		ldr	r3, .L97+8	@ tmp170,
 1044 0040 FA22     		mov	r2, #250	@ tmp254,
 1045 0042 9200     		lsl	r2, r2, #2	@ tmp171, tmp254,
 1046 0044 1A80     		strh	r2, [r3]	@ tmp172, show_select_timer
 347:.\src/main_menu.c **** 			show_select_state++;
 1047              		.loc 1 347 0
 1048 0046 544B     		ldr	r3, .L97	@ tmp173,
 1049 0048 1B78     		ldrb	r3, [r3]	@ show_select_state.79, show_select_state
 1050 004a 0133     		add	r3, r3, #1	@ tmp174,
 1051 004c DAB2     		uxtb	r2, r3	@ show_select_state.80, tmp174
 1052 004e 524B     		ldr	r3, .L97	@ tmp175,
 1053 0050 1A70     		strb	r2, [r3]	@ tmp176, show_select_state
 348:.\src/main_menu.c **** 			break;
 1054              		.loc 1 348 0
 1055 0052 9BE0     		b	.L82	@
 1056              	.L75:
 349:.\src/main_menu.c **** 
 350:.\src/main_menu.c **** 		case SHOW_SELECT_2:
 351:.\src/main_menu.c **** 			if (!show_select_timer)
 1057              		.loc 1 351 0
 1058 0054 524B     		ldr	r3, .L97+8	@ tmp177,
 1059 0056 1B88     		ldrh	r3, [r3]	@ tmp178, show_select_timer
 1060 0058 9BB2     		uxth	r3, r3	@ show_select_timer.81, tmp178
 1061 005a 002B     		cmp	r3, #0	@ show_select_timer.81,
 1062 005c 10D1     		bne	.L83	@,
 352:.\src/main_menu.c **** 			{
 353:.\src/main_menu.c **** 				LCD_1ER_RENGLON;
 1063              		.loc 1 353 0
 1064 005e 0020     		mov	r0, #0	@,
 1065 0060 FFF7FEFF 		bl	Lcd_SetDDRAM	@
 354:.\src/main_menu.c **** 				LCDTransmitStr((const char *)s_blank_line);
 1066              		.loc 1 354 0
 1067 0064 4F4B     		ldr	r3, .L97+12	@ tmp179,
 1068 0066 181C     		mov	r0, r3	@, tmp179
 1069 0068 FFF7FEFF 		bl	LCDTransmitStr	@
 355:.\src/main_menu.c **** 				show_select_timer = 500;
 1070              		.loc 1 355 0
 1071 006c 4C4B     		ldr	r3, .L97+8	@ tmp180,
 1072 006e FA22     		mov	r2, #250	@ tmp253,
 1073 0070 5200     		lsl	r2, r2, #1	@ tmp181, tmp253,
 1074 0072 1A80     		strh	r2, [r3]	@ tmp182, show_select_timer
 356:.\src/main_menu.c **** 				show_select_state++;
 1075              		.loc 1 356 0
ARM GAS  C:\Users\Mariano\AppData\Local\Temp\ccX2jy0d.s 			page 27


 1076 0074 484B     		ldr	r3, .L97	@ tmp183,
 1077 0076 1B78     		ldrb	r3, [r3]	@ show_select_state.82, show_select_state
 1078 0078 0133     		add	r3, r3, #1	@ tmp184,
 1079 007a DAB2     		uxtb	r2, r3	@ show_select_state.83, tmp184
 1080 007c 464B     		ldr	r3, .L97	@ tmp185,
 1081 007e 1A70     		strb	r2, [r3]	@ tmp186, show_select_state
 1082              	.L83:
 357:.\src/main_menu.c **** 			}
 358:.\src/main_menu.c **** 
 359:.\src/main_menu.c **** 			//check s1 y s2
 360:.\src/main_menu.c **** 			if (CheckS1() > S_NO)
 1083              		.loc 1 360 0
 1084 0080 FFF7FEFF 		bl	CheckS1	@
 1085 0084 031C     		mov	r3, r0	@ tmp187,
 1086 0086 002B     		cmp	r3, #0	@ D.5658,
 1087 0088 02D0     		beq	.L84	@,
 361:.\src/main_menu.c **** 				show_select_state = SHOW_SELECT_CHANGE;
 1088              		.loc 1 361 0
 1089 008a 434B     		ldr	r3, .L97	@ tmp189,
 1090 008c 0622     		mov	r2, #6	@ tmp190,
 1091 008e 1A70     		strb	r2, [r3]	@ tmp191, show_select_state
 1092              	.L84:
 362:.\src/main_menu.c **** 
 363:.\src/main_menu.c **** 			if (CheckS2() > S_NO)
 1093              		.loc 1 363 0
 1094 0090 FFF7FEFF 		bl	CheckS2	@
 1095 0094 031C     		mov	r3, r0	@ tmp192,
 1096 0096 002B     		cmp	r3, #0	@ D.5661,
 1097 0098 00D1     		bne	.LCB768	@
 1098 009a 70E0     		b	.L93	@long jump	@
 1099              	.LCB768:
 364:.\src/main_menu.c **** 				show_select_state = SHOW_SELECT_SELECTED;
 1100              		.loc 1 364 0
 1101 009c 3E4B     		ldr	r3, .L97	@ tmp194,
 1102 009e 0422     		mov	r2, #4	@ tmp195,
 1103 00a0 1A70     		strb	r2, [r3]	@ tmp196, show_select_state
 365:.\src/main_menu.c **** 
 366:.\src/main_menu.c **** 			break;
 1104              		.loc 1 366 0
 1105 00a2 6CE0     		b	.L93	@
 1106              	.L76:
 367:.\src/main_menu.c **** 
 368:.\src/main_menu.c **** 		case SHOW_SELECT_3:
 369:.\src/main_menu.c **** 			if (!show_select_timer)
 1107              		.loc 1 369 0
 1108 00a4 3E4B     		ldr	r3, .L97+8	@ tmp197,
 1109 00a6 1B88     		ldrh	r3, [r3]	@ tmp198, show_select_timer
 1110 00a8 9BB2     		uxth	r3, r3	@ show_select_timer.84, tmp198
 1111 00aa 002B     		cmp	r3, #0	@ show_select_timer.84,
 1112 00ac 02D1     		bne	.L86	@,
 370:.\src/main_menu.c **** 			{
 371:.\src/main_menu.c **** 				show_select_state = SHOW_SELECT_1;
 1113              		.loc 1 371 0
 1114 00ae 3A4B     		ldr	r3, .L97	@ tmp199,
 1115 00b0 0122     		mov	r2, #1	@ tmp200,
 1116 00b2 1A70     		strb	r2, [r3]	@ tmp201, show_select_state
 1117              	.L86:
ARM GAS  C:\Users\Mariano\AppData\Local\Temp\ccX2jy0d.s 			page 28


 372:.\src/main_menu.c **** 			}
 373:.\src/main_menu.c **** 
 374:.\src/main_menu.c **** 			//check s1 y s2
 375:.\src/main_menu.c **** 			if (CheckS1() > S_NO)
 1118              		.loc 1 375 0
 1119 00b4 FFF7FEFF 		bl	CheckS1	@
 1120 00b8 031C     		mov	r3, r0	@ tmp202,
 1121 00ba 002B     		cmp	r3, #0	@ D.5667,
 1122 00bc 02D0     		beq	.L87	@,
 376:.\src/main_menu.c **** 				show_select_state = SHOW_SELECT_CHANGE;
 1123              		.loc 1 376 0
 1124 00be 364B     		ldr	r3, .L97	@ tmp204,
 1125 00c0 0622     		mov	r2, #6	@ tmp205,
 1126 00c2 1A70     		strb	r2, [r3]	@ tmp206, show_select_state
 1127              	.L87:
 377:.\src/main_menu.c **** 
 378:.\src/main_menu.c **** 			if (CheckS2() > S_NO)
 1128              		.loc 1 378 0
 1129 00c4 FFF7FEFF 		bl	CheckS2	@
 1130 00c8 031C     		mov	r3, r0	@ tmp207,
 1131 00ca 002B     		cmp	r3, #0	@ D.5670,
 1132 00cc 59D0     		beq	.L94	@,
 379:.\src/main_menu.c **** 				show_select_state = SHOW_SELECT_SELECTED;
 1133              		.loc 1 379 0
 1134 00ce 324B     		ldr	r3, .L97	@ tmp209,
 1135 00d0 0422     		mov	r2, #4	@ tmp210,
 1136 00d2 1A70     		strb	r2, [r3]	@ tmp211, show_select_state
 380:.\src/main_menu.c **** 
 381:.\src/main_menu.c **** 			break;
 1137              		.loc 1 381 0
 1138 00d4 55E0     		b	.L94	@
 1139              	.L77:
 382:.\src/main_menu.c **** 
 383:.\src/main_menu.c **** 		case SHOW_SELECT_SELECTED:
 384:.\src/main_menu.c **** 			LCD_1ER_RENGLON;
 1140              		.loc 1 384 0
 1141 00d6 0020     		mov	r0, #0	@,
 1142 00d8 FFF7FEFF 		bl	Lcd_SetDDRAM	@
 385:.\src/main_menu.c **** 			LCDTransmitStr(p_text);
 1143              		.loc 1 385 0
 1144 00dc 019B     		ldr	r3, [sp, #4]	@ tmp212, p_text
 1145 00de 181C     		mov	r0, r3	@, tmp212
 1146 00e0 FFF7FEFF 		bl	LCDTransmitStr	@
 386:.\src/main_menu.c **** 			LCD_2DO_RENGLON;
 1147              		.loc 1 386 0
 1148 00e4 4020     		mov	r0, #64	@,
 1149 00e6 FFF7FEFF 		bl	Lcd_SetDDRAM	@
 387:.\src/main_menu.c **** 			LCDTransmitStr((const char *) "Selected...     ");
 1150              		.loc 1 387 0
 1151 00ea 2F4B     		ldr	r3, .L97+16	@ tmp213,
 1152 00ec 181C     		mov	r0, r3	@, tmp213
 1153 00ee FFF7FEFF 		bl	LCDTransmitStr	@
 388:.\src/main_menu.c **** 			show_select_state++;
 1154              		.loc 1 388 0
 1155 00f2 294B     		ldr	r3, .L97	@ tmp214,
 1156 00f4 1B78     		ldrb	r3, [r3]	@ show_select_state.85, show_select_state
 1157 00f6 0133     		add	r3, r3, #1	@ tmp215,
ARM GAS  C:\Users\Mariano\AppData\Local\Temp\ccX2jy0d.s 			page 29


 1158 00f8 DAB2     		uxtb	r2, r3	@ show_select_state.86, tmp215
 1159 00fa 274B     		ldr	r3, .L97	@ tmp216,
 1160 00fc 1A70     		strb	r2, [r3]	@ tmp217, show_select_state
 389:.\src/main_menu.c **** 			break;
 1161              		.loc 1 389 0
 1162 00fe 45E0     		b	.L82	@
 1163              	.L78:
 390:.\src/main_menu.c **** 
 391:.\src/main_menu.c **** 		case SHOW_SELECT_SELECTED_1:
 392:.\src/main_menu.c **** 			if (CheckS2() == S_NO)
 1164              		.loc 1 392 0
 1165 0100 FFF7FEFF 		bl	CheckS2	@
 1166 0104 031C     		mov	r3, r0	@ tmp218,
 1167 0106 002B     		cmp	r3, #0	@ D.5675,
 1168 0108 3DD1     		bne	.L95	@,
 393:.\src/main_menu.c **** 			{
 394:.\src/main_menu.c **** 				resp = RESP_SELECTED;
 1169              		.loc 1 394 0
 1170 010a 6B46     		mov	r3, sp	@ tmp220,
 1171 010c 0F33     		add	r3, r3, #15	@ tmp220,
 1172 010e 0122     		mov	r2, #1	@ tmp221,
 1173 0110 1A70     		strb	r2, [r3]	@ tmp222, resp
 395:.\src/main_menu.c **** 				show_select_state = SHOW_SELECT_INIT;
 1174              		.loc 1 395 0
 1175 0112 214B     		ldr	r3, .L97	@ tmp223,
 1176 0114 0022     		mov	r2, #0	@ tmp224,
 1177 0116 1A70     		strb	r2, [r3]	@ tmp225, show_select_state
 396:.\src/main_menu.c **** 			}
 397:.\src/main_menu.c **** 			break;
 1178              		.loc 1 397 0
 1179 0118 35E0     		b	.L95	@
 1180              	.L79:
 398:.\src/main_menu.c **** 
 399:.\src/main_menu.c **** 		case SHOW_SELECT_CHANGE:
 400:.\src/main_menu.c **** 			LCD_1ER_RENGLON;
 1181              		.loc 1 400 0
 1182 011a 0020     		mov	r0, #0	@,
 1183 011c FFF7FEFF 		bl	Lcd_SetDDRAM	@
 401:.\src/main_menu.c **** 			LCDTransmitStr(p_text);
 1184              		.loc 1 401 0
 1185 0120 019B     		ldr	r3, [sp, #4]	@ tmp226, p_text
 1186 0122 181C     		mov	r0, r3	@, tmp226
 1187 0124 FFF7FEFF 		bl	LCDTransmitStr	@
 402:.\src/main_menu.c **** 			LCD_2DO_RENGLON;
 1188              		.loc 1 402 0
 1189 0128 4020     		mov	r0, #64	@,
 1190 012a FFF7FEFF 		bl	Lcd_SetDDRAM	@
 403:.\src/main_menu.c **** 			LCDTransmitStr((const char *) "Changing...     ");
 1191              		.loc 1 403 0
 1192 012e 1F4B     		ldr	r3, .L97+20	@ tmp227,
 1193 0130 181C     		mov	r0, r3	@, tmp227
 1194 0132 FFF7FEFF 		bl	LCDTransmitStr	@
 404:.\src/main_menu.c **** 			show_select_state++;
 1195              		.loc 1 404 0
 1196 0136 184B     		ldr	r3, .L97	@ tmp228,
 1197 0138 1B78     		ldrb	r3, [r3]	@ show_select_state.87, show_select_state
 1198 013a 0133     		add	r3, r3, #1	@ tmp229,
ARM GAS  C:\Users\Mariano\AppData\Local\Temp\ccX2jy0d.s 			page 30


 1199 013c DAB2     		uxtb	r2, r3	@ show_select_state.88, tmp229
 1200 013e 164B     		ldr	r3, .L97	@ tmp230,
 1201 0140 1A70     		strb	r2, [r3]	@ tmp231, show_select_state
 405:.\src/main_menu.c **** 			break;
 1202              		.loc 1 405 0
 1203 0142 23E0     		b	.L82	@
 1204              	.L80:
 406:.\src/main_menu.c **** 
 407:.\src/main_menu.c **** 		case SHOW_SELECT_CHANGE_1:
 408:.\src/main_menu.c **** 			if (CheckS1() == S_NO)
 1205              		.loc 1 408 0
 1206 0144 FFF7FEFF 		bl	CheckS1	@
 1207 0148 031C     		mov	r3, r0	@ tmp232,
 1208 014a 002B     		cmp	r3, #0	@ D.5680,
 1209 014c 06D1     		bne	.L90	@,
 409:.\src/main_menu.c **** 			{
 410:.\src/main_menu.c **** 				resp = RESP_CHANGE;
 1210              		.loc 1 410 0
 1211 014e 6B46     		mov	r3, sp	@ tmp234,
 1212 0150 0F33     		add	r3, r3, #15	@ tmp234,
 1213 0152 0222     		mov	r2, #2	@ tmp235,
 1214 0154 1A70     		strb	r2, [r3]	@ tmp236, resp
 411:.\src/main_menu.c **** 				show_select_state = SHOW_SELECT_INIT;
 1215              		.loc 1 411 0
 1216 0156 104B     		ldr	r3, .L97	@ tmp237,
 1217 0158 0022     		mov	r2, #0	@ tmp238,
 1218 015a 1A70     		strb	r2, [r3]	@ tmp239, show_select_state
 1219              	.L90:
 412:.\src/main_menu.c **** 			}
 413:.\src/main_menu.c **** 
 414:.\src/main_menu.c **** 			if (CheckS1() > S_HALF)
 1220              		.loc 1 414 0
 1221 015c FFF7FEFF 		bl	CheckS1	@
 1222 0160 031C     		mov	r3, r0	@ tmp240,
 1223 0162 032B     		cmp	r3, #3	@ D.5683,
 1224 0164 11D9     		bls	.L96	@,
 415:.\src/main_menu.c **** 			{
 416:.\src/main_menu.c **** 				resp = RESP_CHANGE_ALL_UP;
 1225              		.loc 1 416 0
 1226 0166 6B46     		mov	r3, sp	@ tmp242,
 1227 0168 0F33     		add	r3, r3, #15	@ tmp242,
 1228 016a 0322     		mov	r2, #3	@ tmp243,
 1229 016c 1A70     		strb	r2, [r3]	@ tmp244, resp
 417:.\src/main_menu.c **** 				show_select_state = SHOW_SELECT_INIT;
 1230              		.loc 1 417 0
 1231 016e 0A4B     		ldr	r3, .L97	@ tmp245,
 1232 0170 0022     		mov	r2, #0	@ tmp246,
 1233 0172 1A70     		strb	r2, [r3]	@ tmp247, show_select_state
 418:.\src/main_menu.c **** 			}
 419:.\src/main_menu.c **** 			break;
 1234              		.loc 1 419 0
 1235 0174 09E0     		b	.L96	@
 1236              	.L72:
 420:.\src/main_menu.c **** 
 421:.\src/main_menu.c **** 		default:
 422:.\src/main_menu.c **** 			show_select_state = SHOW_SELECT_INIT;
 1237              		.loc 1 422 0
ARM GAS  C:\Users\Mariano\AppData\Local\Temp\ccX2jy0d.s 			page 31


 1238 0176 084B     		ldr	r3, .L97	@ tmp248,
 1239 0178 0022     		mov	r2, #0	@ tmp249,
 1240 017a 1A70     		strb	r2, [r3]	@ tmp250, show_select_state
 423:.\src/main_menu.c **** 			break;
 1241              		.loc 1 423 0
 1242 017c 06E0     		b	.L82	@
 1243              	.L93:
 366:.\src/main_menu.c **** 			break;
 1244              		.loc 1 366 0
 1245 017e C046     		mov	r8, r8
 1246 0180 04E0     		b	.L82	@
 1247              	.L94:
 381:.\src/main_menu.c **** 			break;
 1248              		.loc 1 381 0
 1249 0182 C046     		mov	r8, r8
 1250 0184 02E0     		b	.L82	@
 1251              	.L95:
 397:.\src/main_menu.c **** 			break;
 1252              		.loc 1 397 0
 1253 0186 C046     		mov	r8, r8
 1254 0188 00E0     		b	.L82	@
 1255              	.L96:
 419:.\src/main_menu.c **** 			break;
 1256              		.loc 1 419 0
 1257 018a C046     		mov	r8, r8
 1258              	.L82:
 424:.\src/main_menu.c **** 	}
 425:.\src/main_menu.c **** 
 426:.\src/main_menu.c **** 	return resp;
 1259              		.loc 1 426 0
 1260 018c 6B46     		mov	r3, sp	@ tmp251,
 1261 018e 0F33     		add	r3, r3, #15	@ tmp251,
 1262 0190 1B78     		ldrb	r3, [r3]	@ D.5686, resp
 427:.\src/main_menu.c **** }
 1263              		.loc 1 427 0
 1264 0192 181C     		mov	r0, r3	@, <retval>
 1265 0194 05B0     		add	sp, sp, #20	@,,
 1266              		@ sp needed for prologue	@
 1267 0196 00BD     		pop	{pc}
 1268              	.L98:
 1269              		.align	2
 1270              	.L97:
 1271 0198 00000000 		.word	show_select_state
 1272 019c 00000000 		.word	.L81
 1273 01a0 00000000 		.word	show_select_timer
 1274 01a4 00000000 		.word	s_blank_line
 1275 01a8 64000000 		.word	.LC12
 1276 01ac 8C000000 		.word	.LC26
 1277              		.cfi_endproc
 1278              	.LFE2:
 1279              		.size	FuncShowSelect, .-FuncShowSelect
 1280              		.section	.text.FuncShowSelectv2Reset,"ax",%progbits
 1281              		.align	2
 1282              		.global	FuncShowSelectv2Reset
 1283              		.code	16
 1284              		.thumb_func
 1285              		.type	FuncShowSelectv2Reset, %function
ARM GAS  C:\Users\Mariano\AppData\Local\Temp\ccX2jy0d.s 			page 32


 1286              	FuncShowSelectv2Reset:
 1287              	.LFB3:
 428:.\src/main_menu.c **** 
 429:.\src/main_menu.c **** void FuncShowSelectv2Reset (void)
 430:.\src/main_menu.c **** {
 1288              		.loc 1 430 0
 1289              		.cfi_startproc
 431:.\src/main_menu.c **** 	show_select_state = SHOW_SELECT_INIT;
 1290              		.loc 1 431 0
 1291 0000 014B     		ldr	r3, .L100	@ tmp134,
 1292 0002 0022     		mov	r2, #0	@ tmp135,
 1293 0004 1A70     		strb	r2, [r3]	@ tmp136, show_select_state
 432:.\src/main_menu.c **** }
 1294              		.loc 1 432 0
 1295              		@ sp needed for prologue	@
 1296 0006 7047     		bx	lr
 1297              	.L101:
 1298              		.align	2
 1299              	.L100:
 1300 0008 00000000 		.word	show_select_state
 1301              		.cfi_endproc
 1302              	.LFE3:
 1303              		.size	FuncShowSelectv2Reset, .-FuncShowSelectv2Reset
 1304              		.section	.rodata
 1305 009d 000000   		.align	2
 1306              	.LC31:
 1307 00a0 436F6E74 		.ascii	"Cont.     Select\000"
 1307      2E202020 
 1307      20205365 
 1307      6C656374 
 1307      00
 1308              		.section	.text.FuncShowSelectv2,"ax",%progbits
 1309              		.align	2
 1310              		.global	FuncShowSelectv2
 1311              		.code	16
 1312              		.thumb_func
 1313              		.type	FuncShowSelectv2, %function
 1314              	FuncShowSelectv2:
 1315              	.LFB4:
 433:.\src/main_menu.c **** 
 434:.\src/main_menu.c **** //funcion que muestra el string enviado en formato de menu
 435:.\src/main_menu.c **** //ademas v2 agrega el cont o select en el segundo renglon
 436:.\src/main_menu.c **** unsigned char FuncShowSelectv2 (const char * p_text)
 437:.\src/main_menu.c **** {
 1316              		.loc 1 437 0
 1317              		.cfi_startproc
 1318 0000 00B5     		push	{lr}	@
 1319              	.LCFI6:
 1320              		.cfi_def_cfa_offset 4
 1321              		.cfi_offset 14, -4
 1322 0002 85B0     		sub	sp, sp, #20	@,,
 1323              	.LCFI7:
 1324              		.cfi_def_cfa_offset 24
 1325 0004 0190     		str	r0, [sp, #4]	@ p_text, p_text
 438:.\src/main_menu.c **** 	unsigned char resp = RESP_CONTINUE;
 1326              		.loc 1 438 0
 1327 0006 6B46     		mov	r3, sp	@ tmp157,
ARM GAS  C:\Users\Mariano\AppData\Local\Temp\ccX2jy0d.s 			page 33


 1328 0008 0F33     		add	r3, r3, #15	@ tmp157,
 1329 000a 0022     		mov	r2, #0	@ tmp158,
 1330 000c 1A70     		strb	r2, [r3]	@ tmp159, resp
 439:.\src/main_menu.c **** 
 440:.\src/main_menu.c **** 	switch (show_select_state)
 1331              		.loc 1 440 0
 1332 000e 664B     		ldr	r3, .L128	@ tmp160,
 1333 0010 1B78     		ldrb	r3, [r3]	@ show_select_state.63, show_select_state
 1334 0012 072B     		cmp	r3, #7	@ D.5607,
 1335 0014 00D9     		bls	.LCB975	@
 1336 0016 B5E0     		b	.L103	@long jump	@
 1337              	.LCB975:
 1338 0018 9A00     		lsl	r2, r3, #2	@ tmp161, D.5607,
 1339 001a 644B     		ldr	r3, .L128+4	@ tmp163,
 1340 001c D318     		add	r3, r2, r3	@ tmp162, tmp161, tmp163
 1341 001e 1B68     		ldr	r3, [r3]	@ tmp164,
 1342 0020 9F46     		mov	pc, r3	@ tmp164
 1343              		.section	.rodata.FuncShowSelectv2,"a",%progbits
 1344              		.align	2
 1345              	.L112:
 1346 0000 22000000 		.word	.L104
 1347 0004 3E000000 		.word	.L105
 1348 0008 62000000 		.word	.L106
 1349 000c B2000000 		.word	.L107
 1350 0010 E4000000 		.word	.L108
 1351 0014 0E010000 		.word	.L109
 1352 0018 28010000 		.word	.L110
 1353 001c 52010000 		.word	.L111
 1354              		.section	.text.FuncShowSelectv2
 1355              	.L104:
 441:.\src/main_menu.c **** 	{
 442:.\src/main_menu.c **** 		case SHOW_SELECT_INIT:
 443:.\src/main_menu.c **** 			LCD_2DO_RENGLON;
 1356              		.loc 1 443 0
 1357 0022 4020     		mov	r0, #64	@,
 1358 0024 FFF7FEFF 		bl	Lcd_SetDDRAM	@
 444:.\src/main_menu.c **** 			LCDTransmitStr((const char *) "Cont.     Select");
 1359              		.loc 1 444 0
 1360 0028 614B     		ldr	r3, .L128+8	@ tmp165,
 1361 002a 181C     		mov	r0, r3	@, tmp165
 1362 002c FFF7FEFF 		bl	LCDTransmitStr	@
 445:.\src/main_menu.c **** 			show_select_state++;
 1363              		.loc 1 445 0
 1364 0030 5D4B     		ldr	r3, .L128	@ tmp166,
 1365 0032 1B78     		ldrb	r3, [r3]	@ show_select_state.64, show_select_state
 1366 0034 0133     		add	r3, r3, #1	@ tmp167,
 1367 0036 DAB2     		uxtb	r2, r3	@ show_select_state.65, tmp167
 1368 0038 5B4B     		ldr	r3, .L128	@ tmp168,
 1369 003a 1A70     		strb	r2, [r3]	@ tmp169, show_select_state
 446:.\src/main_menu.c **** 			break;
 1370              		.loc 1 446 0
 1371 003c ADE0     		b	.L113	@
 1372              	.L105:
 447:.\src/main_menu.c **** 
 448:.\src/main_menu.c **** 		case SHOW_SELECT_1:
 449:.\src/main_menu.c **** 			LCD_1ER_RENGLON;
 1373              		.loc 1 449 0
ARM GAS  C:\Users\Mariano\AppData\Local\Temp\ccX2jy0d.s 			page 34


 1374 003e 0020     		mov	r0, #0	@,
 1375 0040 FFF7FEFF 		bl	Lcd_SetDDRAM	@
 450:.\src/main_menu.c **** 			LCDTransmitStr(p_text);
 1376              		.loc 1 450 0
 1377 0044 019B     		ldr	r3, [sp, #4]	@ tmp170, p_text
 1378 0046 181C     		mov	r0, r3	@, tmp170
 1379 0048 FFF7FEFF 		bl	LCDTransmitStr	@
 451:.\src/main_menu.c **** 			show_select_timer = 1000;
 1380              		.loc 1 451 0
 1381 004c 594B     		ldr	r3, .L128+12	@ tmp171,
 1382 004e FA22     		mov	r2, #250	@ tmp255,
 1383 0050 9200     		lsl	r2, r2, #2	@ tmp172, tmp255,
 1384 0052 1A80     		strh	r2, [r3]	@ tmp173, show_select_timer
 452:.\src/main_menu.c **** 			show_select_state++;
 1385              		.loc 1 452 0
 1386 0054 544B     		ldr	r3, .L128	@ tmp174,
 1387 0056 1B78     		ldrb	r3, [r3]	@ show_select_state.66, show_select_state
 1388 0058 0133     		add	r3, r3, #1	@ tmp175,
 1389 005a DAB2     		uxtb	r2, r3	@ show_select_state.67, tmp175
 1390 005c 524B     		ldr	r3, .L128	@ tmp176,
 1391 005e 1A70     		strb	r2, [r3]	@ tmp177, show_select_state
 453:.\src/main_menu.c **** 			break;
 1392              		.loc 1 453 0
 1393 0060 9BE0     		b	.L113	@
 1394              	.L106:
 454:.\src/main_menu.c **** 
 455:.\src/main_menu.c **** 		case SHOW_SELECT_2:
 456:.\src/main_menu.c **** 			if (!show_select_timer)
 1395              		.loc 1 456 0
 1396 0062 544B     		ldr	r3, .L128+12	@ tmp178,
 1397 0064 1B88     		ldrh	r3, [r3]	@ tmp179, show_select_timer
 1398 0066 9BB2     		uxth	r3, r3	@ show_select_timer.68, tmp179
 1399 0068 002B     		cmp	r3, #0	@ show_select_timer.68,
 1400 006a 10D1     		bne	.L114	@,
 457:.\src/main_menu.c **** 			{
 458:.\src/main_menu.c **** 				LCD_1ER_RENGLON;
 1401              		.loc 1 458 0
 1402 006c 0020     		mov	r0, #0	@,
 1403 006e FFF7FEFF 		bl	Lcd_SetDDRAM	@
 459:.\src/main_menu.c **** 				LCDTransmitStr((const char *) s_blank_line);
 1404              		.loc 1 459 0
 1405 0072 514B     		ldr	r3, .L128+16	@ tmp180,
 1406 0074 181C     		mov	r0, r3	@, tmp180
 1407 0076 FFF7FEFF 		bl	LCDTransmitStr	@
 460:.\src/main_menu.c **** 				show_select_timer = 500;
 1408              		.loc 1 460 0
 1409 007a 4E4B     		ldr	r3, .L128+12	@ tmp181,
 1410 007c FA22     		mov	r2, #250	@ tmp254,
 1411 007e 5200     		lsl	r2, r2, #1	@ tmp182, tmp254,
 1412 0080 1A80     		strh	r2, [r3]	@ tmp183, show_select_timer
 461:.\src/main_menu.c **** 				show_select_state++;
 1413              		.loc 1 461 0
 1414 0082 494B     		ldr	r3, .L128	@ tmp184,
 1415 0084 1B78     		ldrb	r3, [r3]	@ show_select_state.69, show_select_state
 1416 0086 0133     		add	r3, r3, #1	@ tmp185,
 1417 0088 DAB2     		uxtb	r2, r3	@ show_select_state.70, tmp185
 1418 008a 474B     		ldr	r3, .L128	@ tmp186,
ARM GAS  C:\Users\Mariano\AppData\Local\Temp\ccX2jy0d.s 			page 35


 1419 008c 1A70     		strb	r2, [r3]	@ tmp187, show_select_state
 1420              	.L114:
 462:.\src/main_menu.c **** 			}
 463:.\src/main_menu.c **** 
 464:.\src/main_menu.c **** 			//check s1 y s2
 465:.\src/main_menu.c **** 			if (CheckS1() > S_NO)
 1421              		.loc 1 465 0
 1422 008e FFF7FEFF 		bl	CheckS1	@
 1423 0092 031C     		mov	r3, r0	@ tmp188,
 1424 0094 002B     		cmp	r3, #0	@ D.5617,
 1425 0096 02D0     		beq	.L115	@,
 466:.\src/main_menu.c **** 				show_select_state = SHOW_SELECT_CHANGE;
 1426              		.loc 1 466 0
 1427 0098 434B     		ldr	r3, .L128	@ tmp190,
 1428 009a 0622     		mov	r2, #6	@ tmp191,
 1429 009c 1A70     		strb	r2, [r3]	@ tmp192, show_select_state
 1430              	.L115:
 467:.\src/main_menu.c **** 
 468:.\src/main_menu.c **** 			if (CheckS2() > S_NO)
 1431              		.loc 1 468 0
 1432 009e FFF7FEFF 		bl	CheckS2	@
 1433 00a2 031C     		mov	r3, r0	@ tmp193,
 1434 00a4 002B     		cmp	r3, #0	@ D.5620,
 1435 00a6 00D1     		bne	.LCB1055	@
 1436 00a8 70E0     		b	.L124	@long jump	@
 1437              	.LCB1055:
 469:.\src/main_menu.c **** 				show_select_state = SHOW_SELECT_SELECTED;
 1438              		.loc 1 469 0
 1439 00aa 3F4B     		ldr	r3, .L128	@ tmp195,
 1440 00ac 0422     		mov	r2, #4	@ tmp196,
 1441 00ae 1A70     		strb	r2, [r3]	@ tmp197, show_select_state
 470:.\src/main_menu.c **** 
 471:.\src/main_menu.c **** 			break;
 1442              		.loc 1 471 0
 1443 00b0 6CE0     		b	.L124	@
 1444              	.L107:
 472:.\src/main_menu.c **** 
 473:.\src/main_menu.c **** 		case SHOW_SELECT_3:
 474:.\src/main_menu.c **** 			if (!show_select_timer)
 1445              		.loc 1 474 0
 1446 00b2 404B     		ldr	r3, .L128+12	@ tmp198,
 1447 00b4 1B88     		ldrh	r3, [r3]	@ tmp199, show_select_timer
 1448 00b6 9BB2     		uxth	r3, r3	@ show_select_timer.71, tmp199
 1449 00b8 002B     		cmp	r3, #0	@ show_select_timer.71,
 1450 00ba 02D1     		bne	.L117	@,
 475:.\src/main_menu.c **** 			{
 476:.\src/main_menu.c **** 				show_select_state = SHOW_SELECT_1;
 1451              		.loc 1 476 0
 1452 00bc 3A4B     		ldr	r3, .L128	@ tmp200,
 1453 00be 0122     		mov	r2, #1	@ tmp201,
 1454 00c0 1A70     		strb	r2, [r3]	@ tmp202, show_select_state
 1455              	.L117:
 477:.\src/main_menu.c **** 			}
 478:.\src/main_menu.c **** 
 479:.\src/main_menu.c **** 			//check s1 y s2
 480:.\src/main_menu.c **** 			if (CheckS1() > S_NO)
 1456              		.loc 1 480 0
ARM GAS  C:\Users\Mariano\AppData\Local\Temp\ccX2jy0d.s 			page 36


 1457 00c2 FFF7FEFF 		bl	CheckS1	@
 1458 00c6 031C     		mov	r3, r0	@ tmp203,
 1459 00c8 002B     		cmp	r3, #0	@ D.5626,
 1460 00ca 02D0     		beq	.L118	@,
 481:.\src/main_menu.c **** 				show_select_state = SHOW_SELECT_CHANGE;
 1461              		.loc 1 481 0
 1462 00cc 364B     		ldr	r3, .L128	@ tmp205,
 1463 00ce 0622     		mov	r2, #6	@ tmp206,
 1464 00d0 1A70     		strb	r2, [r3]	@ tmp207, show_select_state
 1465              	.L118:
 482:.\src/main_menu.c **** 
 483:.\src/main_menu.c **** 			if (CheckS2() > S_NO)
 1466              		.loc 1 483 0
 1467 00d2 FFF7FEFF 		bl	CheckS2	@
 1468 00d6 031C     		mov	r3, r0	@ tmp208,
 1469 00d8 002B     		cmp	r3, #0	@ D.5629,
 1470 00da 59D0     		beq	.L125	@,
 484:.\src/main_menu.c **** 				show_select_state = SHOW_SELECT_SELECTED;
 1471              		.loc 1 484 0
 1472 00dc 324B     		ldr	r3, .L128	@ tmp210,
 1473 00de 0422     		mov	r2, #4	@ tmp211,
 1474 00e0 1A70     		strb	r2, [r3]	@ tmp212, show_select_state
 485:.\src/main_menu.c **** 
 486:.\src/main_menu.c **** 			break;
 1475              		.loc 1 486 0
 1476 00e2 55E0     		b	.L125	@
 1477              	.L108:
 487:.\src/main_menu.c **** 
 488:.\src/main_menu.c **** 		case SHOW_SELECT_SELECTED:
 489:.\src/main_menu.c **** 			LCD_1ER_RENGLON;
 1478              		.loc 1 489 0
 1479 00e4 0020     		mov	r0, #0	@,
 1480 00e6 FFF7FEFF 		bl	Lcd_SetDDRAM	@
 490:.\src/main_menu.c **** 			LCDTransmitStr(p_text);
 1481              		.loc 1 490 0
 1482 00ea 019B     		ldr	r3, [sp, #4]	@ tmp213, p_text
 1483 00ec 181C     		mov	r0, r3	@, tmp213
 1484 00ee FFF7FEFF 		bl	LCDTransmitStr	@
 491:.\src/main_menu.c **** 			LCD_2DO_RENGLON;
 1485              		.loc 1 491 0
 1486 00f2 4020     		mov	r0, #64	@,
 1487 00f4 FFF7FEFF 		bl	Lcd_SetDDRAM	@
 492:.\src/main_menu.c **** 			LCDTransmitStr((const char *) "Selected...     ");
 1488              		.loc 1 492 0
 1489 00f8 304B     		ldr	r3, .L128+20	@ tmp214,
 1490 00fa 181C     		mov	r0, r3	@, tmp214
 1491 00fc FFF7FEFF 		bl	LCDTransmitStr	@
 493:.\src/main_menu.c **** 			show_select_state++;
 1492              		.loc 1 493 0
 1493 0100 294B     		ldr	r3, .L128	@ tmp215,
 1494 0102 1B78     		ldrb	r3, [r3]	@ show_select_state.72, show_select_state
 1495 0104 0133     		add	r3, r3, #1	@ tmp216,
 1496 0106 DAB2     		uxtb	r2, r3	@ show_select_state.73, tmp216
 1497 0108 274B     		ldr	r3, .L128	@ tmp217,
 1498 010a 1A70     		strb	r2, [r3]	@ tmp218, show_select_state
 494:.\src/main_menu.c **** 			break;
 1499              		.loc 1 494 0
ARM GAS  C:\Users\Mariano\AppData\Local\Temp\ccX2jy0d.s 			page 37


 1500 010c 45E0     		b	.L113	@
 1501              	.L109:
 495:.\src/main_menu.c **** 
 496:.\src/main_menu.c **** 		case SHOW_SELECT_SELECTED_1:
 497:.\src/main_menu.c **** 			if (CheckS2() == S_NO)
 1502              		.loc 1 497 0
 1503 010e FFF7FEFF 		bl	CheckS2	@
 1504 0112 031C     		mov	r3, r0	@ tmp219,
 1505 0114 002B     		cmp	r3, #0	@ D.5634,
 1506 0116 3DD1     		bne	.L126	@,
 498:.\src/main_menu.c **** 			{
 499:.\src/main_menu.c **** 				resp = RESP_SELECTED;
 1507              		.loc 1 499 0
 1508 0118 6B46     		mov	r3, sp	@ tmp221,
 1509 011a 0F33     		add	r3, r3, #15	@ tmp221,
 1510 011c 0122     		mov	r2, #1	@ tmp222,
 1511 011e 1A70     		strb	r2, [r3]	@ tmp223, resp
 500:.\src/main_menu.c **** 				show_select_state = SHOW_SELECT_INIT;
 1512              		.loc 1 500 0
 1513 0120 214B     		ldr	r3, .L128	@ tmp224,
 1514 0122 0022     		mov	r2, #0	@ tmp225,
 1515 0124 1A70     		strb	r2, [r3]	@ tmp226, show_select_state
 501:.\src/main_menu.c **** 			}
 502:.\src/main_menu.c **** 			break;
 1516              		.loc 1 502 0
 1517 0126 35E0     		b	.L126	@
 1518              	.L110:
 503:.\src/main_menu.c **** 
 504:.\src/main_menu.c **** 		case SHOW_SELECT_CHANGE:
 505:.\src/main_menu.c **** 			LCD_1ER_RENGLON;
 1519              		.loc 1 505 0
 1520 0128 0020     		mov	r0, #0	@,
 1521 012a FFF7FEFF 		bl	Lcd_SetDDRAM	@
 506:.\src/main_menu.c **** 			LCDTransmitStr(p_text);
 1522              		.loc 1 506 0
 1523 012e 019B     		ldr	r3, [sp, #4]	@ tmp227, p_text
 1524 0130 181C     		mov	r0, r3	@, tmp227
 1525 0132 FFF7FEFF 		bl	LCDTransmitStr	@
 507:.\src/main_menu.c **** 			LCD_2DO_RENGLON;
 1526              		.loc 1 507 0
 1527 0136 4020     		mov	r0, #64	@,
 1528 0138 FFF7FEFF 		bl	Lcd_SetDDRAM	@
 508:.\src/main_menu.c **** 			LCDTransmitStr((const char *) "Changing...     ");
 1529              		.loc 1 508 0
 1530 013c 204B     		ldr	r3, .L128+24	@ tmp228,
 1531 013e 181C     		mov	r0, r3	@, tmp228
 1532 0140 FFF7FEFF 		bl	LCDTransmitStr	@
 509:.\src/main_menu.c **** 			show_select_state++;
 1533              		.loc 1 509 0
 1534 0144 184B     		ldr	r3, .L128	@ tmp229,
 1535 0146 1B78     		ldrb	r3, [r3]	@ show_select_state.74, show_select_state
 1536 0148 0133     		add	r3, r3, #1	@ tmp230,
 1537 014a DAB2     		uxtb	r2, r3	@ show_select_state.75, tmp230
 1538 014c 164B     		ldr	r3, .L128	@ tmp231,
 1539 014e 1A70     		strb	r2, [r3]	@ tmp232, show_select_state
 510:.\src/main_menu.c **** 			break;
 1540              		.loc 1 510 0
ARM GAS  C:\Users\Mariano\AppData\Local\Temp\ccX2jy0d.s 			page 38


 1541 0150 23E0     		b	.L113	@
 1542              	.L111:
 511:.\src/main_menu.c **** 
 512:.\src/main_menu.c **** 		case SHOW_SELECT_CHANGE_1:
 513:.\src/main_menu.c **** 			if (CheckS1() == S_NO)
 1543              		.loc 1 513 0
 1544 0152 FFF7FEFF 		bl	CheckS1	@
 1545 0156 031C     		mov	r3, r0	@ tmp233,
 1546 0158 002B     		cmp	r3, #0	@ D.5639,
 1547 015a 06D1     		bne	.L121	@,
 514:.\src/main_menu.c **** 			{
 515:.\src/main_menu.c **** 				resp = RESP_CHANGE;
 1548              		.loc 1 515 0
 1549 015c 6B46     		mov	r3, sp	@ tmp235,
 1550 015e 0F33     		add	r3, r3, #15	@ tmp235,
 1551 0160 0222     		mov	r2, #2	@ tmp236,
 1552 0162 1A70     		strb	r2, [r3]	@ tmp237, resp
 516:.\src/main_menu.c **** 				show_select_state = SHOW_SELECT_INIT;
 1553              		.loc 1 516 0
 1554 0164 104B     		ldr	r3, .L128	@ tmp238,
 1555 0166 0022     		mov	r2, #0	@ tmp239,
 1556 0168 1A70     		strb	r2, [r3]	@ tmp240, show_select_state
 1557              	.L121:
 517:.\src/main_menu.c **** 			}
 518:.\src/main_menu.c **** 
 519:.\src/main_menu.c **** 			if (CheckS1() > S_HALF)
 1558              		.loc 1 519 0
 1559 016a FFF7FEFF 		bl	CheckS1	@
 1560 016e 031C     		mov	r3, r0	@ tmp241,
 1561 0170 032B     		cmp	r3, #3	@ D.5642,
 1562 0172 11D9     		bls	.L127	@,
 520:.\src/main_menu.c **** 			{
 521:.\src/main_menu.c **** 				resp = RESP_CHANGE_ALL_UP;
 1563              		.loc 1 521 0
 1564 0174 6B46     		mov	r3, sp	@ tmp243,
 1565 0176 0F33     		add	r3, r3, #15	@ tmp243,
 1566 0178 0322     		mov	r2, #3	@ tmp244,
 1567 017a 1A70     		strb	r2, [r3]	@ tmp245, resp
 522:.\src/main_menu.c **** 				show_select_state = SHOW_SELECT_INIT;
 1568              		.loc 1 522 0
 1569 017c 0A4B     		ldr	r3, .L128	@ tmp246,
 1570 017e 0022     		mov	r2, #0	@ tmp247,
 1571 0180 1A70     		strb	r2, [r3]	@ tmp248, show_select_state
 523:.\src/main_menu.c **** 			}
 524:.\src/main_menu.c **** 			break;
 1572              		.loc 1 524 0
 1573 0182 09E0     		b	.L127	@
 1574              	.L103:
 525:.\src/main_menu.c **** 
 526:.\src/main_menu.c **** 		default:
 527:.\src/main_menu.c **** 			show_select_state = SHOW_SELECT_INIT;
 1575              		.loc 1 527 0
 1576 0184 084B     		ldr	r3, .L128	@ tmp249,
 1577 0186 0022     		mov	r2, #0	@ tmp250,
 1578 0188 1A70     		strb	r2, [r3]	@ tmp251, show_select_state
 528:.\src/main_menu.c **** 			break;
 1579              		.loc 1 528 0
ARM GAS  C:\Users\Mariano\AppData\Local\Temp\ccX2jy0d.s 			page 39


 1580 018a 06E0     		b	.L113	@
 1581              	.L124:
 471:.\src/main_menu.c **** 			break;
 1582              		.loc 1 471 0
 1583 018c C046     		mov	r8, r8
 1584 018e 04E0     		b	.L113	@
 1585              	.L125:
 486:.\src/main_menu.c **** 			break;
 1586              		.loc 1 486 0
 1587 0190 C046     		mov	r8, r8
 1588 0192 02E0     		b	.L113	@
 1589              	.L126:
 502:.\src/main_menu.c **** 			break;
 1590              		.loc 1 502 0
 1591 0194 C046     		mov	r8, r8
 1592 0196 00E0     		b	.L113	@
 1593              	.L127:
 524:.\src/main_menu.c **** 			break;
 1594              		.loc 1 524 0
 1595 0198 C046     		mov	r8, r8
 1596              	.L113:
 529:.\src/main_menu.c **** 	}
 530:.\src/main_menu.c **** 
 531:.\src/main_menu.c **** 	return resp;
 1597              		.loc 1 531 0
 1598 019a 6B46     		mov	r3, sp	@ tmp252,
 1599 019c 0F33     		add	r3, r3, #15	@ tmp252,
 1600 019e 1B78     		ldrb	r3, [r3]	@ D.5645, resp
 532:.\src/main_menu.c **** }
 1601              		.loc 1 532 0
 1602 01a0 181C     		mov	r0, r3	@, <retval>
 1603 01a2 05B0     		add	sp, sp, #20	@,,
 1604              		@ sp needed for prologue	@
 1605 01a4 00BD     		pop	{pc}
 1606              	.L129:
 1607 01a6 C046     		.align	2
 1608              	.L128:
 1609 01a8 00000000 		.word	show_select_state
 1610 01ac 00000000 		.word	.L112
 1611 01b0 A0000000 		.word	.LC31
 1612 01b4 00000000 		.word	show_select_timer
 1613 01b8 00000000 		.word	s_blank_line
 1614 01bc 64000000 		.word	.LC12
 1615 01c0 8C000000 		.word	.LC26
 1616              		.cfi_endproc
 1617              	.LFE4:
 1618              		.size	FuncShowSelectv2, .-FuncShowSelectv2
 1619              		.section	.rodata
 1620 00b1 000000   		.align	2
 1621              	.LC41:
 1622 00b4 2A00     		.ascii	"*\000"
 1623 00b6 0000     		.align	2
 1624              	.LC43:
 1625 00b8 2000     		.ascii	" \000"
 1626              		.section	.text.FuncOptions,"ax",%progbits
 1627              		.align	2
 1628              		.global	FuncOptions
ARM GAS  C:\Users\Mariano\AppData\Local\Temp\ccX2jy0d.s 			page 40


 1629              		.code	16
 1630              		.thumb_func
 1631              		.type	FuncOptions, %function
 1632              	FuncOptions:
 1633              	.LFB5:
 533:.\src/main_menu.c **** 
 534:.\src/main_menu.c **** //recibe el primer renglon y el segundo
 535:.\src/main_menu.c **** //recibe un puntero a las posiciones de memoria de los asteriscos
 536:.\src/main_menu.c **** //recibe una variable de catidad de opciones y otra variable con la primera opcion a la que apunta
 537:.\src/main_menu.c **** //devuelve RESP_CONTINUE o (RESP_SELECTED | opcion_elegida << 4)
 538:.\src/main_menu.c **** unsigned char FuncOptions (const char * p_text1, const char * p_text2, unsigned char * p_sel, unsig
 539:.\src/main_menu.c **** {
 1634              		.loc 1 539 0
 1635              		.cfi_startproc
 1636 0000 00B5     		push	{lr}	@
 1637              	.LCFI8:
 1638              		.cfi_def_cfa_offset 4
 1639              		.cfi_offset 14, -4
 1640 0002 87B0     		sub	sp, sp, #28	@,,
 1641              	.LCFI9:
 1642              		.cfi_def_cfa_offset 32
 1643 0004 0390     		str	r0, [sp, #12]	@ p_text1, p_text1
 1644 0006 0291     		str	r1, [sp, #8]	@ p_text2, p_text2
 1645 0008 0192     		str	r2, [sp, #4]	@ p_sel, p_sel
 1646 000a 1A1C     		mov	r2, r3	@ tmp198, opts
 1647 000c 6B46     		mov	r3, sp	@ tmp199,
 1648 000e 0333     		add	r3, r3, #3	@ tmp199,
 1649 0010 1A70     		strb	r2, [r3]	@ tmp200, opts
 540:.\src/main_menu.c **** 	unsigned char resp = RESP_CONTINUE;
 1650              		.loc 1 540 0
 1651 0012 6B46     		mov	r3, sp	@ tmp201,
 1652 0014 1733     		add	r3, r3, #23	@ tmp201,
 1653 0016 0022     		mov	r2, #0	@ tmp202,
 1654 0018 1A70     		strb	r2, [r3]	@ tmp203, resp
 541:.\src/main_menu.c **** 
 542:.\src/main_menu.c **** 	if (first_option & 0x80)	//me piden que elija una opcion especial
 1655              		.loc 1 542 0
 1656 001a 08AB     		add	r3, sp, #32	@ tmp204,,
 1657 001c 1B78     		ldrb	r3, [r3]	@ first_option.39, first_option
 1658 001e 5BB2     		sxtb	r3, r3	@ tmp206, first_option.39
 1659 0020 002B     		cmp	r3, #0	@ tmp206,
 1660 0022 24DA     		bge	.L131	@,
 543:.\src/main_menu.c **** 	{
 544:.\src/main_menu.c **** 		if ((first_option & 0x7F) < opts)	//no esta fuera de escala
 1661              		.loc 1 544 0
 1662 0024 08AB     		add	r3, sp, #32	@ tmp207,,
 1663 0026 1A78     		ldrb	r2, [r3]	@ D.5513, first_option
 1664 0028 7F23     		mov	r3, #127	@ tmp208,
 1665 002a 1A40     		and	r2, r3	@ D.5514, tmp208
 1666 002c 6B46     		mov	r3, sp	@ tmp209,
 1667 002e 0333     		add	r3, r3, #3	@ tmp209,
 1668 0030 1B78     		ldrb	r3, [r3]	@ D.5515, opts
 1669 0032 9A42     		cmp	r2, r3	@ D.5514, D.5515
 1670 0034 18DA     		bge	.L132	@,
 545:.\src/main_menu.c **** 		{
 546:.\src/main_menu.c **** 			if (options_state == OPTIONS_INIT)
 1671              		.loc 1 546 0
ARM GAS  C:\Users\Mariano\AppData\Local\Temp\ccX2jy0d.s 			page 41


 1672 0036 8C4B     		ldr	r3, .L159	@ tmp210,
 1673 0038 1B78     		ldrb	r3, [r3]	@ options_state.40, options_state
 1674 003a 002B     		cmp	r3, #0	@ options_state.40,
 1675 003c 07D1     		bne	.L133	@,
 547:.\src/main_menu.c **** 				options_curr_sel = (first_option & 0x7F);
 1676              		.loc 1 547 0
 1677 003e 08AB     		add	r3, sp, #32	@ tmp211,,
 1678 0040 1A78     		ldrb	r2, [r3]	@ tmp212, first_option
 1679 0042 7F23     		mov	r3, #127	@ tmp214,
 1680 0044 1340     		and	r3, r2	@ tmp213, tmp212
 1681 0046 DAB2     		uxtb	r2, r3	@ options_curr_sel.41, tmp213
 1682 0048 884B     		ldr	r3, .L159+4	@ tmp215,
 1683 004a 1A70     		strb	r2, [r3]	@ tmp216, options_curr_sel
 1684 004c 0FE0     		b	.L131	@
 1685              	.L133:
 548:.\src/main_menu.c **** 			else
 549:.\src/main_menu.c **** 			{
 550:.\src/main_menu.c **** 				if (options_curr_sel != (first_option & 0x7F)) //fuerzo el cambio, ya estaba mostrando la panta
 1686              		.loc 1 550 0
 1687 004e 874B     		ldr	r3, .L159+4	@ tmp217,
 1688 0050 1B78     		ldrb	r3, [r3]	@ options_curr_sel.42, options_curr_sel
 1689 0052 1A1C     		mov	r2, r3	@ D.5524, options_curr_sel.42
 1690 0054 08AB     		add	r3, sp, #32	@ tmp218,,
 1691 0056 1978     		ldrb	r1, [r3]	@ D.5525, first_option
 1692 0058 7F23     		mov	r3, #127	@ tmp219,
 1693 005a 0B40     		and	r3, r1	@ D.5526, D.5525
 1694 005c 9A42     		cmp	r2, r3	@ D.5524, D.5526
 1695 005e 06D0     		beq	.L131	@,
 551:.\src/main_menu.c **** 					options_state = OPTIONS_CHANGE_SELECT;
 1696              		.loc 1 551 0
 1697 0060 814B     		ldr	r3, .L159	@ tmp220,
 1698 0062 0A22     		mov	r2, #10	@ tmp221,
 1699 0064 1A70     		strb	r2, [r3]	@ tmp222, options_state
 1700 0066 02E0     		b	.L131	@
 1701              	.L132:
 552:.\src/main_menu.c **** 			}
 553:.\src/main_menu.c **** 		}
 554:.\src/main_menu.c **** 		else
 555:.\src/main_menu.c **** 			options_curr_sel = 0;
 1702              		.loc 1 555 0
 1703 0068 804B     		ldr	r3, .L159+4	@ tmp223,
 1704 006a 0022     		mov	r2, #0	@ tmp224,
 1705 006c 1A70     		strb	r2, [r3]	@ tmp225, options_curr_sel
 1706              	.L131:
 556:.\src/main_menu.c **** 	}
 557:.\src/main_menu.c **** 
 558:.\src/main_menu.c **** 	switch (options_state)
 1707              		.loc 1 558 0
 1708 006e 7E4B     		ldr	r3, .L159	@ tmp226,
 1709 0070 1B78     		ldrb	r3, [r3]	@ options_state.43, options_state
 1710 0072 0A2B     		cmp	r3, #10	@ D.5531,
 1711 0074 00D9     		bls	.LCB1300	@
 1712 0076 E6E0     		b	.L134	@long jump	@
 1713              	.LCB1300:
 1714 0078 9A00     		lsl	r2, r3, #2	@ tmp227, D.5531,
 1715 007a 7D4B     		ldr	r3, .L159+8	@ tmp229,
 1716 007c D318     		add	r3, r2, r3	@ tmp228, tmp227, tmp229
ARM GAS  C:\Users\Mariano\AppData\Local\Temp\ccX2jy0d.s 			page 42


 1717 007e 1B68     		ldr	r3, [r3]	@ tmp230,
 1718 0080 9F46     		mov	pc, r3	@ tmp230
 1719              		.section	.rodata.FuncOptions,"a",%progbits
 1720              		.align	2
 1721              	.L141:
 1722 0000 82000000 		.word	.L135
 1723 0004 B2000000 		.word	.L136
 1724 0008 EC000000 		.word	.L137
 1725 000c 54010000 		.word	.L138
 1726 0010 68010000 		.word	.L139
 1727 0014 46020000 		.word	.L134
 1728 0018 46020000 		.word	.L134
 1729 001c 46020000 		.word	.L134
 1730 0020 46020000 		.word	.L134
 1731 0024 46020000 		.word	.L134
 1732 0028 CE010000 		.word	.L140
 1733              		.section	.text.FuncOptions
 1734              	.L135:
 559:.\src/main_menu.c **** 	{
 560:.\src/main_menu.c **** 		case OPTIONS_INIT:
 561:.\src/main_menu.c **** 			LCD_1ER_RENGLON;
 1735              		.loc 1 561 0
 1736 0082 0020     		mov	r0, #0	@,
 1737 0084 FFF7FEFF 		bl	Lcd_SetDDRAM	@
 562:.\src/main_menu.c **** 			LCDTransmitStr(p_text1);
 1738              		.loc 1 562 0
 1739 0088 039B     		ldr	r3, [sp, #12]	@ tmp231, p_text1
 1740 008a 181C     		mov	r0, r3	@, tmp231
 1741 008c FFF7FEFF 		bl	LCDTransmitStr	@
 563:.\src/main_menu.c **** 			LCD_2DO_RENGLON;
 1742              		.loc 1 563 0
 1743 0090 4020     		mov	r0, #64	@,
 1744 0092 FFF7FEFF 		bl	Lcd_SetDDRAM	@
 564:.\src/main_menu.c **** 			LCDTransmitStr(p_text2);
 1745              		.loc 1 564 0
 1746 0096 029B     		ldr	r3, [sp, #8]	@ tmp232, p_text2
 1747 0098 181C     		mov	r0, r3	@, tmp232
 1748 009a FFF7FEFF 		bl	LCDTransmitStr	@
 565:.\src/main_menu.c **** 			show_select_timer = 0;
 1749              		.loc 1 565 0
 1750 009e 754B     		ldr	r3, .L159+12	@ tmp233,
 1751 00a0 0022     		mov	r2, #0	@ tmp234,
 1752 00a2 1A80     		strh	r2, [r3]	@ tmp235, show_select_timer
 566:.\src/main_menu.c **** 			options_state++;
 1753              		.loc 1 566 0
 1754 00a4 704B     		ldr	r3, .L159	@ tmp236,
 1755 00a6 1B78     		ldrb	r3, [r3]	@ options_state.44, options_state
 1756 00a8 0133     		add	r3, r3, #1	@ tmp237,
 1757 00aa DAB2     		uxtb	r2, r3	@ options_state.45, tmp237
 1758 00ac 6E4B     		ldr	r3, .L159	@ tmp238,
 1759 00ae 1A70     		strb	r2, [r3]	@ tmp239, options_state
 567:.\src/main_menu.c **** 			break;
 1760              		.loc 1 567 0
 1761 00b0 D4E0     		b	.L142	@
 1762              	.L136:
 568:.\src/main_menu.c **** 
 569:.\src/main_menu.c **** 		case OPTIONS_WAIT_SELECT:
ARM GAS  C:\Users\Mariano\AppData\Local\Temp\ccX2jy0d.s 			page 43


 570:.\src/main_menu.c **** 			if (!show_select_timer)
 1763              		.loc 1 570 0
 1764 00b2 704B     		ldr	r3, .L159+12	@ tmp240,
 1765 00b4 1B88     		ldrh	r3, [r3]	@ tmp241, show_select_timer
 1766 00b6 9BB2     		uxth	r3, r3	@ show_select_timer.46, tmp241
 1767 00b8 002B     		cmp	r3, #0	@ show_select_timer.46,
 1768 00ba 00D0     		beq	.LCB1339	@
 1769 00bc C7E0     		b	.L155	@long jump	@
 1770              	.LCB1339:
 571:.\src/main_menu.c **** 			{
 572:.\src/main_menu.c **** 				Lcd_SetDDRAM(*(p_sel + options_curr_sel));
 1771              		.loc 1 572 0
 1772 00be 6B4B     		ldr	r3, .L159+4	@ tmp242,
 1773 00c0 1B78     		ldrb	r3, [r3]	@ options_curr_sel.47, options_curr_sel
 1774 00c2 019A     		ldr	r2, [sp, #4]	@ tmp243, p_sel
 1775 00c4 D318     		add	r3, r2, r3	@ D.5539, tmp243, D.5538
 1776 00c6 1B78     		ldrb	r3, [r3]	@ D.5540, *D.5539_27
 1777 00c8 181C     		mov	r0, r3	@, D.5540
 1778 00ca FFF7FEFF 		bl	Lcd_SetDDRAM	@
 573:.\src/main_menu.c **** 				LCDTransmitStr("*");
 1779              		.loc 1 573 0
 1780 00ce 6A4B     		ldr	r3, .L159+16	@ tmp244,
 1781 00d0 181C     		mov	r0, r3	@, tmp244
 1782 00d2 FFF7FEFF 		bl	LCDTransmitStr	@
 574:.\src/main_menu.c **** 				show_select_timer = 1000;
 1783              		.loc 1 574 0
 1784 00d6 674B     		ldr	r3, .L159+12	@ tmp245,
 1785 00d8 FA22     		mov	r2, #250	@ tmp345,
 1786 00da 9200     		lsl	r2, r2, #2	@ tmp246, tmp345,
 1787 00dc 1A80     		strh	r2, [r3]	@ tmp247, show_select_timer
 575:.\src/main_menu.c **** 				options_state++;
 1788              		.loc 1 575 0
 1789 00de 624B     		ldr	r3, .L159	@ tmp248,
 1790 00e0 1B78     		ldrb	r3, [r3]	@ options_state.48, options_state
 1791 00e2 0133     		add	r3, r3, #1	@ tmp249,
 1792 00e4 DAB2     		uxtb	r2, r3	@ options_state.49, tmp249
 1793 00e6 604B     		ldr	r3, .L159	@ tmp250,
 1794 00e8 1A70     		strb	r2, [r3]	@ tmp251, options_state
 576:.\src/main_menu.c **** 			}
 577:.\src/main_menu.c **** 			break;
 1795              		.loc 1 577 0
 1796 00ea B0E0     		b	.L155	@
 1797              	.L137:
 578:.\src/main_menu.c **** 
 579:.\src/main_menu.c **** 		case OPTIONS_WAIT_SELECT_1:
 580:.\src/main_menu.c **** 			if (CheckS1() > S_NO)
 1798              		.loc 1 580 0
 1799 00ec FFF7FEFF 		bl	CheckS1	@
 1800 00f0 031C     		mov	r3, r0	@ tmp252,
 1801 00f2 002B     		cmp	r3, #0	@ D.5543,
 1802 00f4 02D0     		beq	.L144	@,
 581:.\src/main_menu.c **** 			{
 582:.\src/main_menu.c **** 				options_state = OPTIONS_CHANGE_SELECT;
 1803              		.loc 1 582 0
 1804 00f6 5C4B     		ldr	r3, .L159	@ tmp254,
 1805 00f8 0A22     		mov	r2, #10	@ tmp255,
 1806 00fa 1A70     		strb	r2, [r3]	@ tmp256, options_state
ARM GAS  C:\Users\Mariano\AppData\Local\Temp\ccX2jy0d.s 			page 44


 1807              	.L144:
 583:.\src/main_menu.c **** 			}
 584:.\src/main_menu.c **** 
 585:.\src/main_menu.c **** 			if (CheckS2() > S_NO)
 1808              		.loc 1 585 0
 1809 00fc FFF7FEFF 		bl	CheckS2	@
 1810 0100 031C     		mov	r3, r0	@ tmp257,
 1811 0102 002B     		cmp	r3, #0	@ D.5546,
 1812 0104 0CD0     		beq	.L145	@,
 586:.\src/main_menu.c **** 			{
 587:.\src/main_menu.c **** 				resp = (RESP_SELECTED | (options_curr_sel << 4));
 1813              		.loc 1 587 0
 1814 0106 594B     		ldr	r3, .L159+4	@ tmp259,
 1815 0108 1B78     		ldrb	r3, [r3]	@ options_curr_sel.50, options_curr_sel
 1816 010a 1B01     		lsl	r3, r3, #4	@ D.5551, D.5550,
 1817 010c DBB2     		uxtb	r3, r3	@ D.5552, D.5551
 1818 010e 0122     		mov	r2, #1	@ tmp262,
 1819 0110 1343     		orr	r3, r2	@ tmp261, tmp262
 1820 0112 DAB2     		uxtb	r2, r3	@ D.5553, tmp261
 1821 0114 6B46     		mov	r3, sp	@ tmp263,
 1822 0116 1733     		add	r3, r3, #23	@ tmp263,
 1823 0118 1A70     		strb	r2, [r3]	@ tmp264, resp
 588:.\src/main_menu.c **** 				options_state = OPTIONS_INIT;
 1824              		.loc 1 588 0
 1825 011a 534B     		ldr	r3, .L159	@ tmp265,
 1826 011c 0022     		mov	r2, #0	@ tmp266,
 1827 011e 1A70     		strb	r2, [r3]	@ tmp267, options_state
 1828              	.L145:
 589:.\src/main_menu.c **** 			}
 590:.\src/main_menu.c **** 
 591:.\src/main_menu.c **** 			if (!show_select_timer)
 1829              		.loc 1 591 0
 1830 0120 544B     		ldr	r3, .L159+12	@ tmp268,
 1831 0122 1B88     		ldrh	r3, [r3]	@ tmp269, show_select_timer
 1832 0124 9BB2     		uxth	r3, r3	@ show_select_timer.51, tmp269
 1833 0126 002B     		cmp	r3, #0	@ show_select_timer.51,
 1834 0128 00D0     		beq	.LCB1396	@
 1835 012a 92E0     		b	.L156	@long jump	@
 1836              	.LCB1396:
 592:.\src/main_menu.c **** 			{
 593:.\src/main_menu.c **** 				Lcd_SetDDRAM(*(p_sel + options_curr_sel));
 1837              		.loc 1 593 0
 1838 012c 4F4B     		ldr	r3, .L159+4	@ tmp270,
 1839 012e 1B78     		ldrb	r3, [r3]	@ options_curr_sel.52, options_curr_sel
 1840 0130 019A     		ldr	r2, [sp, #4]	@ tmp271, p_sel
 1841 0132 D318     		add	r3, r2, r3	@ D.5559, tmp271, D.5558
 1842 0134 1B78     		ldrb	r3, [r3]	@ D.5560, *D.5559_42
 1843 0136 181C     		mov	r0, r3	@, D.5560
 1844 0138 FFF7FEFF 		bl	Lcd_SetDDRAM	@
 594:.\src/main_menu.c **** 				LCDTransmitStr(" ");
 1845              		.loc 1 594 0
 1846 013c 4F4B     		ldr	r3, .L159+20	@ tmp272,
 1847 013e 181C     		mov	r0, r3	@, tmp272
 1848 0140 FFF7FEFF 		bl	LCDTransmitStr	@
 595:.\src/main_menu.c **** 				show_select_timer = 500;
 1849              		.loc 1 595 0
 1850 0144 4B4B     		ldr	r3, .L159+12	@ tmp273,
ARM GAS  C:\Users\Mariano\AppData\Local\Temp\ccX2jy0d.s 			page 45


 1851 0146 FA22     		mov	r2, #250	@ tmp344,
 1852 0148 5200     		lsl	r2, r2, #1	@ tmp274, tmp344,
 1853 014a 1A80     		strh	r2, [r3]	@ tmp275, show_select_timer
 596:.\src/main_menu.c **** 				options_state = OPTIONS_WAIT_SELECT_3;
 1854              		.loc 1 596 0
 1855 014c 464B     		ldr	r3, .L159	@ tmp276,
 1856 014e 0422     		mov	r2, #4	@ tmp277,
 1857 0150 1A70     		strb	r2, [r3]	@ tmp278, options_state
 597:.\src/main_menu.c **** 			}
 598:.\src/main_menu.c **** 			break;
 1858              		.loc 1 598 0
 1859 0152 7EE0     		b	.L156	@
 1860              	.L138:
 599:.\src/main_menu.c **** 
 600:.\src/main_menu.c **** 		case OPTIONS_WAIT_SELECT_2:
 601:.\src/main_menu.c **** 			if (CheckS1() == S_NO)
 1861              		.loc 1 601 0
 1862 0154 FFF7FEFF 		bl	CheckS1	@
 1863 0158 031C     		mov	r3, r0	@ tmp279,
 1864 015a 002B     		cmp	r3, #0	@ D.5561,
 1865 015c 00D0     		beq	.LCB1421	@
 1866 015e 7AE0     		b	.L157	@long jump	@
 1867              	.LCB1421:
 602:.\src/main_menu.c **** 			{
 603:.\src/main_menu.c **** 				options_state = OPTIONS_WAIT_SELECT_1;
 1868              		.loc 1 603 0
 1869 0160 414B     		ldr	r3, .L159	@ tmp281,
 1870 0162 0222     		mov	r2, #2	@ tmp282,
 1871 0164 1A70     		strb	r2, [r3]	@ tmp283, options_state
 604:.\src/main_menu.c **** 			}
 605:.\src/main_menu.c **** 			break;
 1872              		.loc 1 605 0
 1873 0166 76E0     		b	.L157	@
 1874              	.L139:
 606:.\src/main_menu.c **** 
 607:.\src/main_menu.c **** 		case OPTIONS_WAIT_SELECT_3:
 608:.\src/main_menu.c **** 			if (CheckS1() > S_NO)
 1875              		.loc 1 608 0
 1876 0168 FFF7FEFF 		bl	CheckS1	@
 1877 016c 031C     		mov	r3, r0	@ tmp284,
 1878 016e 002B     		cmp	r3, #0	@ D.5564,
 1879 0170 02D0     		beq	.L148	@,
 609:.\src/main_menu.c **** 			{
 610:.\src/main_menu.c **** 				options_state = OPTIONS_CHANGE_SELECT;
 1880              		.loc 1 610 0
 1881 0172 3D4B     		ldr	r3, .L159	@ tmp286,
 1882 0174 0A22     		mov	r2, #10	@ tmp287,
 1883 0176 1A70     		strb	r2, [r3]	@ tmp288, options_state
 1884              	.L148:
 611:.\src/main_menu.c **** 			}
 612:.\src/main_menu.c **** 
 613:.\src/main_menu.c **** 			if (CheckS2() > S_NO)
 1885              		.loc 1 613 0
 1886 0178 FFF7FEFF 		bl	CheckS2	@
 1887 017c 031C     		mov	r3, r0	@ tmp289,
 1888 017e 002B     		cmp	r3, #0	@ D.5567,
 1889 0180 0CD0     		beq	.L149	@,
ARM GAS  C:\Users\Mariano\AppData\Local\Temp\ccX2jy0d.s 			page 46


 614:.\src/main_menu.c **** 			{
 615:.\src/main_menu.c **** 				resp = (RESP_SELECTED | (options_curr_sel << 4));
 1890              		.loc 1 615 0
 1891 0182 3A4B     		ldr	r3, .L159+4	@ tmp291,
 1892 0184 1B78     		ldrb	r3, [r3]	@ options_curr_sel.53, options_curr_sel
 1893 0186 1B01     		lsl	r3, r3, #4	@ D.5572, D.5571,
 1894 0188 DBB2     		uxtb	r3, r3	@ D.5573, D.5572
 1895 018a 0122     		mov	r2, #1	@ tmp294,
 1896 018c 1343     		orr	r3, r2	@ tmp293, tmp294
 1897 018e DAB2     		uxtb	r2, r3	@ D.5574, tmp293
 1898 0190 6B46     		mov	r3, sp	@ tmp295,
 1899 0192 1733     		add	r3, r3, #23	@ tmp295,
 1900 0194 1A70     		strb	r2, [r3]	@ tmp296, resp
 616:.\src/main_menu.c **** 				options_state = OPTIONS_INIT;
 1901              		.loc 1 616 0
 1902 0196 344B     		ldr	r3, .L159	@ tmp297,
 1903 0198 0022     		mov	r2, #0	@ tmp298,
 1904 019a 1A70     		strb	r2, [r3]	@ tmp299, options_state
 1905              	.L149:
 617:.\src/main_menu.c **** 			}
 618:.\src/main_menu.c **** 
 619:.\src/main_menu.c **** 			if (!show_select_timer)
 1906              		.loc 1 619 0
 1907 019c 354B     		ldr	r3, .L159+12	@ tmp300,
 1908 019e 1B88     		ldrh	r3, [r3]	@ tmp301, show_select_timer
 1909 01a0 9BB2     		uxth	r3, r3	@ show_select_timer.54, tmp301
 1910 01a2 002B     		cmp	r3, #0	@ show_select_timer.54,
 1911 01a4 59D1     		bne	.L158	@,
 620:.\src/main_menu.c **** 			{
 621:.\src/main_menu.c **** 				Lcd_SetDDRAM(*(p_sel + options_curr_sel));
 1912              		.loc 1 621 0
 1913 01a6 314B     		ldr	r3, .L159+4	@ tmp302,
 1914 01a8 1B78     		ldrb	r3, [r3]	@ options_curr_sel.55, options_curr_sel
 1915 01aa 019A     		ldr	r2, [sp, #4]	@ tmp303, p_sel
 1916 01ac D318     		add	r3, r2, r3	@ D.5580, tmp303, D.5579
 1917 01ae 1B78     		ldrb	r3, [r3]	@ D.5581, *D.5580_56
 1918 01b0 181C     		mov	r0, r3	@, D.5581
 1919 01b2 FFF7FEFF 		bl	Lcd_SetDDRAM	@
 622:.\src/main_menu.c **** 				LCDTransmitStr("*");
 1920              		.loc 1 622 0
 1921 01b6 304B     		ldr	r3, .L159+16	@ tmp304,
 1922 01b8 181C     		mov	r0, r3	@, tmp304
 1923 01ba FFF7FEFF 		bl	LCDTransmitStr	@
 623:.\src/main_menu.c **** 				show_select_timer = 1000;
 1924              		.loc 1 623 0
 1925 01be 2D4B     		ldr	r3, .L159+12	@ tmp305,
 1926 01c0 FA22     		mov	r2, #250	@ tmp343,
 1927 01c2 9200     		lsl	r2, r2, #2	@ tmp306, tmp343,
 1928 01c4 1A80     		strh	r2, [r3]	@ tmp307, show_select_timer
 624:.\src/main_menu.c **** 				options_state = OPTIONS_WAIT_SELECT_1;
 1929              		.loc 1 624 0
 1930 01c6 284B     		ldr	r3, .L159	@ tmp308,
 1931 01c8 0222     		mov	r2, #2	@ tmp309,
 1932 01ca 1A70     		strb	r2, [r3]	@ tmp310, options_state
 625:.\src/main_menu.c **** 			}
 626:.\src/main_menu.c **** 			break;
 1933              		.loc 1 626 0
ARM GAS  C:\Users\Mariano\AppData\Local\Temp\ccX2jy0d.s 			page 47


 1934 01cc 45E0     		b	.L158	@
 1935              	.L140:
 627:.\src/main_menu.c **** 
 628:.\src/main_menu.c **** 		case OPTIONS_CHANGE_SELECT:
 629:.\src/main_menu.c **** 			Lcd_SetDDRAM(*(p_sel + options_curr_sel));
 1936              		.loc 1 629 0
 1937 01ce 274B     		ldr	r3, .L159+4	@ tmp311,
 1938 01d0 1B78     		ldrb	r3, [r3]	@ options_curr_sel.56, options_curr_sel
 1939 01d2 019A     		ldr	r2, [sp, #4]	@ tmp312, p_sel
 1940 01d4 D318     		add	r3, r2, r3	@ D.5584, tmp312, D.5583
 1941 01d6 1B78     		ldrb	r3, [r3]	@ D.5585, *D.5584_60
 1942 01d8 181C     		mov	r0, r3	@, D.5585
 1943 01da FFF7FEFF 		bl	Lcd_SetDDRAM	@
 630:.\src/main_menu.c **** 			LCDTransmitStr(" ");
 1944              		.loc 1 630 0
 1945 01de 274B     		ldr	r3, .L159+20	@ tmp313,
 1946 01e0 181C     		mov	r0, r3	@, tmp313
 1947 01e2 FFF7FEFF 		bl	LCDTransmitStr	@
 631:.\src/main_menu.c **** 
 632:.\src/main_menu.c **** 			if (first_option & 0x80)	//me piden que elija una opcion especial
 1948              		.loc 1 632 0
 1949 01e6 08AB     		add	r3, sp, #32	@ tmp314,,
 1950 01e8 1B78     		ldrb	r3, [r3]	@ first_option.57, first_option
 1951 01ea 5BB2     		sxtb	r3, r3	@ tmp316, first_option.57
 1952 01ec 002B     		cmp	r3, #0	@ tmp316,
 1953 01ee 07DA     		bge	.L151	@,
 633:.\src/main_menu.c **** 				options_curr_sel = (first_option & 0x7F);
 1954              		.loc 1 633 0
 1955 01f0 08AB     		add	r3, sp, #32	@ tmp317,,
 1956 01f2 1A78     		ldrb	r2, [r3]	@ tmp318, first_option
 1957 01f4 7F23     		mov	r3, #127	@ tmp320,
 1958 01f6 1340     		and	r3, r2	@ tmp319, tmp318
 1959 01f8 DAB2     		uxtb	r2, r3	@ options_curr_sel.58, tmp319
 1960 01fa 1C4B     		ldr	r3, .L159+4	@ tmp321,
 1961 01fc 1A70     		strb	r2, [r3]	@ tmp322, options_curr_sel
 1962 01fe 12E0     		b	.L152	@
 1963              	.L151:
 634:.\src/main_menu.c **** 			else
 635:.\src/main_menu.c **** 			{
 636:.\src/main_menu.c **** 				if (options_curr_sel < (opts - 1))
 1964              		.loc 1 636 0
 1965 0200 1A4B     		ldr	r3, .L159+4	@ tmp323,
 1966 0202 1B78     		ldrb	r3, [r3]	@ options_curr_sel.59, options_curr_sel
 1967 0204 1A1C     		mov	r2, r3	@ D.5592, options_curr_sel.59
 1968 0206 6B46     		mov	r3, sp	@ tmp324,
 1969 0208 0333     		add	r3, r3, #3	@ tmp324,
 1970 020a 1B78     		ldrb	r3, [r3]	@ D.5593, opts
 1971 020c 013B     		sub	r3, r3, #1	@ D.5594,
 1972 020e 9A42     		cmp	r2, r3	@ D.5592, D.5594
 1973 0210 06DA     		bge	.L153	@,
 637:.\src/main_menu.c **** 					options_curr_sel++;
 1974              		.loc 1 637 0
 1975 0212 164B     		ldr	r3, .L159+4	@ tmp325,
 1976 0214 1B78     		ldrb	r3, [r3]	@ options_curr_sel.60, options_curr_sel
 1977 0216 0133     		add	r3, r3, #1	@ tmp326,
 1978 0218 DAB2     		uxtb	r2, r3	@ options_curr_sel.61, tmp326
 1979 021a 144B     		ldr	r3, .L159+4	@ tmp327,
ARM GAS  C:\Users\Mariano\AppData\Local\Temp\ccX2jy0d.s 			page 48


 1980 021c 1A70     		strb	r2, [r3]	@ tmp328, options_curr_sel
 1981 021e 02E0     		b	.L152	@
 1982              	.L153:
 638:.\src/main_menu.c **** 				else
 639:.\src/main_menu.c **** 					options_curr_sel = 0;
 1983              		.loc 1 639 0
 1984 0220 124B     		ldr	r3, .L159+4	@ tmp329,
 1985 0222 0022     		mov	r2, #0	@ tmp330,
 1986 0224 1A70     		strb	r2, [r3]	@ tmp331, options_curr_sel
 1987              	.L152:
 640:.\src/main_menu.c **** 			}
 641:.\src/main_menu.c **** 
 642:.\src/main_menu.c **** 			Lcd_SetDDRAM(*(p_sel + options_curr_sel));
 1988              		.loc 1 642 0
 1989 0226 114B     		ldr	r3, .L159+4	@ tmp332,
 1990 0228 1B78     		ldrb	r3, [r3]	@ options_curr_sel.62, options_curr_sel
 1991 022a 019A     		ldr	r2, [sp, #4]	@ tmp333, p_sel
 1992 022c D318     		add	r3, r2, r3	@ D.5602, tmp333, D.5601
 1993 022e 1B78     		ldrb	r3, [r3]	@ D.5603, *D.5602_72
 1994 0230 181C     		mov	r0, r3	@, D.5603
 1995 0232 FFF7FEFF 		bl	Lcd_SetDDRAM	@
 643:.\src/main_menu.c **** 			LCDTransmitStr("*");
 1996              		.loc 1 643 0
 1997 0236 104B     		ldr	r3, .L159+16	@ tmp334,
 1998 0238 181C     		mov	r0, r3	@, tmp334
 1999 023a FFF7FEFF 		bl	LCDTransmitStr	@
 644:.\src/main_menu.c **** 
 645:.\src/main_menu.c **** 			options_state = OPTIONS_WAIT_SELECT_2;
 2000              		.loc 1 645 0
 2001 023e 0A4B     		ldr	r3, .L159	@ tmp335,
 2002 0240 0322     		mov	r2, #3	@ tmp336,
 2003 0242 1A70     		strb	r2, [r3]	@ tmp337, options_state
 646:.\src/main_menu.c **** 			break;
 2004              		.loc 1 646 0
 2005 0244 0AE0     		b	.L142	@
 2006              	.L134:
 647:.\src/main_menu.c **** 
 648:.\src/main_menu.c **** 		default:
 649:.\src/main_menu.c **** 			options_state = OPTIONS_INIT;
 2007              		.loc 1 649 0
 2008 0246 084B     		ldr	r3, .L159	@ tmp338,
 2009 0248 0022     		mov	r2, #0	@ tmp339,
 2010 024a 1A70     		strb	r2, [r3]	@ tmp340, options_state
 650:.\src/main_menu.c **** 			break;
 2011              		.loc 1 650 0
 2012 024c 06E0     		b	.L142	@
 2013              	.L155:
 577:.\src/main_menu.c **** 			break;
 2014              		.loc 1 577 0
 2015 024e C046     		mov	r8, r8
 2016 0250 04E0     		b	.L142	@
 2017              	.L156:
 598:.\src/main_menu.c **** 			break;
 2018              		.loc 1 598 0
 2019 0252 C046     		mov	r8, r8
 2020 0254 02E0     		b	.L142	@
 2021              	.L157:
ARM GAS  C:\Users\Mariano\AppData\Local\Temp\ccX2jy0d.s 			page 49


 605:.\src/main_menu.c **** 			break;
 2022              		.loc 1 605 0
 2023 0256 C046     		mov	r8, r8
 2024 0258 00E0     		b	.L142	@
 2025              	.L158:
 626:.\src/main_menu.c **** 			break;
 2026              		.loc 1 626 0
 2027 025a C046     		mov	r8, r8
 2028              	.L142:
 651:.\src/main_menu.c **** 	}
 652:.\src/main_menu.c **** 
 653:.\src/main_menu.c **** 	return resp;
 2029              		.loc 1 653 0
 2030 025c 6B46     		mov	r3, sp	@ tmp341,
 2031 025e 1733     		add	r3, r3, #23	@ tmp341,
 2032 0260 1B78     		ldrb	r3, [r3]	@ D.5604, resp
 654:.\src/main_menu.c **** }
 2033              		.loc 1 654 0
 2034 0262 181C     		mov	r0, r3	@, <retval>
 2035 0264 07B0     		add	sp, sp, #28	@,,
 2036              		@ sp needed for prologue	@
 2037 0266 00BD     		pop	{pc}
 2038              	.L160:
 2039              		.align	2
 2040              	.L159:
 2041 0268 00000000 		.word	options_state
 2042 026c 00000000 		.word	options_curr_sel
 2043 0270 00000000 		.word	.L141
 2044 0274 00000000 		.word	show_select_timer
 2045 0278 B4000000 		.word	.LC41
 2046 027c B8000000 		.word	.LC43
 2047              		.cfi_endproc
 2048              	.LFE5:
 2049              		.size	FuncOptions, .-FuncOptions
 2050              		.section	.text.FuncOptionsReset,"ax",%progbits
 2051              		.align	2
 2052              		.global	FuncOptionsReset
 2053              		.code	16
 2054              		.thumb_func
 2055              		.type	FuncOptionsReset, %function
 2056              	FuncOptionsReset:
 2057              	.LFB6:
 655:.\src/main_menu.c **** 
 656:.\src/main_menu.c **** void FuncOptionsReset (void)
 657:.\src/main_menu.c **** {
 2058              		.loc 1 657 0
 2059              		.cfi_startproc
 658:.\src/main_menu.c **** 	options_state = OPTIONS_INIT;
 2060              		.loc 1 658 0
 2061 0000 014B     		ldr	r3, .L162	@ tmp134,
 2062 0002 0022     		mov	r2, #0	@ tmp135,
 2063 0004 1A70     		strb	r2, [r3]	@ tmp136, options_state
 659:.\src/main_menu.c **** }
 2064              		.loc 1 659 0
 2065              		@ sp needed for prologue	@
 2066 0006 7047     		bx	lr
 2067              	.L163:
ARM GAS  C:\Users\Mariano\AppData\Local\Temp\ccX2jy0d.s 			page 50


 2068              		.align	2
 2069              	.L162:
 2070 0008 00000000 		.word	options_state
 2071              		.cfi_endproc
 2072              	.LFE6:
 2073              		.size	FuncOptionsReset, .-FuncOptionsReset
 2074              		.section	.rodata
 2075 00ba 0000     		.align	2
 2076              	.LC49:
 2077 00bc 63686720 		.ascii	"chg  %3d\000"
 2077      20253364 
 2077      00
 2078 00c5 000000   		.align	2
 2079              	.LC51:
 2080 00c8 25202020 		.ascii	"%   sel\000"
 2080      73656C00 
 2081              		.align	2
 2082              	.LC53:
 2083 00d0 63686720 		.ascii	"chg %2d\000"
 2083      25326400 
 2084              		.align	2
 2085              	.LC55:
 2086 00d8 20736563 		.ascii	" secs sel\000"
 2086      73207365 
 2086      6C00
 2087 00e2 0000     		.align	2
 2088              	.LC57:
 2089 00e4 63686720 		.ascii	"chg   %3d\000"
 2089      20202533 
 2089      6400
 2090 00ee 0000     		.align	2
 2091              	.LC59:
 2092 00f0 63682020 		.ascii	"ch  sel\000"
 2092      73656C00 
 2093              		.align	2
 2094              	.LC61:
 2095 00f8 75702020 		.ascii	"up  down   done \000"
 2095      646F776E 
 2095      20202064 
 2095      6F6E6520 
 2095      00
 2096 0109 000000   		.section	.text.FuncChange,"ax",%progbits
 2097              		.align	2
 2098              		.global	FuncChange
 2099              		.code	16
 2100              		.thumb_func
 2101              		.type	FuncChange, %function
 2102              	FuncChange:
 2103              	.LFB7:
 660:.\src/main_menu.c **** 
 661:.\src/main_menu.c **** //recibe el valor original para arrancar seleccion
 662:.\src/main_menu.c **** //recibe el modo CHANGE_PERCENT, CHANGE_SECS o CHANGE_CHANNELS Ademas puede tener |CHANGE_RESET
 663:.\src/main_menu.c **** //recibe min val permitido, MAX val permitido
 664:.\src/main_menu.c **** //devuelve RESP_CONTINUE o RESP_FINISH si termino la seleccion
 665:.\src/main_menu.c **** unsigned char FuncChange (unsigned char * p_orig_value, unsigned char mode, unsigned char min_val, 
 666:.\src/main_menu.c **** {
 2104              		.loc 1 666 0
ARM GAS  C:\Users\Mariano\AppData\Local\Temp\ccX2jy0d.s 			page 51


 2105              		.cfi_startproc
 2106 0000 10B5     		push	{r4, lr}	@
 2107              	.LCFI10:
 2108              		.cfi_def_cfa_offset 8
 2109              		.cfi_offset 4, -8
 2110              		.cfi_offset 14, -4
 2111 0002 8AB0     		sub	sp, sp, #40	@,,
 2112              	.LCFI11:
 2113              		.cfi_def_cfa_offset 48
 2114 0004 0390     		str	r0, [sp, #12]	@ p_orig_value, p_orig_value
 2115 0006 081C     		mov	r0, r1	@ tmp163, mode
 2116 0008 111C     		mov	r1, r2	@ tmp166, min_val
 2117 000a 1A1C     		mov	r2, r3	@ tmp169, max_val
 2118 000c 6B46     		mov	r3, sp	@ tmp164,
 2119 000e 0B33     		add	r3, r3, #11	@ tmp164,
 2120 0010 1870     		strb	r0, [r3]	@ tmp165, mode
 2121 0012 6B46     		mov	r3, sp	@ tmp167,
 2122 0014 0A33     		add	r3, r3, #10	@ tmp167,
 2123 0016 1970     		strb	r1, [r3]	@ tmp168, min_val
 2124 0018 6B46     		mov	r3, sp	@ tmp170,
 2125 001a 0933     		add	r3, r3, #9	@ tmp170,
 2126 001c 1A70     		strb	r2, [r3]	@ tmp171, max_val
 667:.\src/main_menu.c **** 	unsigned char resp = RESP_CONTINUE;
 2127              		.loc 1 667 0
 2128 001e 6B46     		mov	r3, sp	@ tmp172,
 2129 0020 2733     		add	r3, r3, #39	@ tmp172,
 2130 0022 0022     		mov	r2, #0	@ tmp173,
 2131 0024 1A70     		strb	r2, [r3]	@ tmp174, resp
 668:.\src/main_menu.c **** 	unsigned char resp_down = RESP_CONTINUE;
 2132              		.loc 1 668 0
 2133 0026 6B46     		mov	r3, sp	@ tmp175,
 2134 0028 2633     		add	r3, r3, #38	@ tmp175,
 2135 002a 0022     		mov	r2, #0	@ tmp176,
 2136 002c 1A70     		strb	r2, [r3]	@ tmp177, resp_down
 669:.\src/main_menu.c **** 	char s_current [20];
 670:.\src/main_menu.c **** 
 671:.\src/main_menu.c **** 	switch (change_state)
 2137              		.loc 1 671 0
 2138 002e 744B     		ldr	r3, .L180	@ tmp178,
 2139 0030 1B78     		ldrb	r3, [r3]	@ change_state.24, change_state
 2140 0032 002B     		cmp	r3, #0	@ D.5463,
 2141 0034 02D0     		beq	.L166	@,
 2142 0036 012B     		cmp	r3, #1	@ D.5463,
 2143 0038 10D0     		beq	.L167	@,
 2144 003a D5E0     		b	.L178	@
 2145              	.L166:
 672:.\src/main_menu.c **** 	{
 673:.\src/main_menu.c **** 		case CHANGE_INIT:
 674:.\src/main_menu.c **** 			change_current_val = *p_orig_value;
 2146              		.loc 1 674 0
 2147 003c 039B     		ldr	r3, [sp, #12]	@ tmp179, p_orig_value
 2148 003e 1A78     		ldrb	r2, [r3]	@ change_current_val.25, *p_orig_value_9(D)
 2149 0040 704B     		ldr	r3, .L180+4	@ tmp180,
 2150 0042 1A70     		strb	r2, [r3]	@ tmp181, change_current_val
 675:.\src/main_menu.c **** 			change_last_option = 0;
 2151              		.loc 1 675 0
 2152 0044 704B     		ldr	r3, .L180+8	@ tmp182,
ARM GAS  C:\Users\Mariano\AppData\Local\Temp\ccX2jy0d.s 			page 52


 2153 0046 0022     		mov	r2, #0	@ tmp183,
 2154 0048 1A70     		strb	r2, [r3]	@ tmp184, change_last_option
 676:.\src/main_menu.c **** 			FuncOptionsReset();
 2155              		.loc 1 676 0
 2156 004a FFF7FEFF 		bl	FuncOptionsReset	@
 677:.\src/main_menu.c **** 			change_state++;
 2157              		.loc 1 677 0
 2158 004e 6C4B     		ldr	r3, .L180	@ tmp185,
 2159 0050 1B78     		ldrb	r3, [r3]	@ change_state.26, change_state
 2160 0052 0133     		add	r3, r3, #1	@ tmp186,
 2161 0054 DAB2     		uxtb	r2, r3	@ change_state.27, tmp186
 2162 0056 6A4B     		ldr	r3, .L180	@ tmp187,
 2163 0058 1A70     		strb	r2, [r3]	@ tmp188, change_state
 678:.\src/main_menu.c **** 			break;
 2164              		.loc 1 678 0
 2165 005a CAE0     		b	.L168	@
 2166              	.L167:
 679:.\src/main_menu.c **** 
 680:.\src/main_menu.c **** 		case CHANGE_WAIT_SELECT:
 681:.\src/main_menu.c **** 			memset(s_current, ' ', sizeof(s_current));
 2167              		.loc 1 681 0
 2168 005c 04AB     		add	r3, sp, #16	@ tmp189,,
 2169 005e 181C     		mov	r0, r3	@, tmp189
 2170 0060 2021     		mov	r1, #32	@,
 2171 0062 1422     		mov	r2, #20	@,
 2172 0064 FFF7FEFF 		bl	memset	@
 682:.\src/main_menu.c **** 			if (mode == CHANGE_PERCENT)
 2173              		.loc 1 682 0
 2174 0068 6B46     		mov	r3, sp	@ tmp190,
 2175 006a 0B33     		add	r3, r3, #11	@ tmp190,
 2176 006c 1B78     		ldrb	r3, [r3]	@ tmp191, mode
 2177 006e 002B     		cmp	r3, #0	@ tmp191,
 2178 0070 19D1     		bne	.L169	@,
 683:.\src/main_menu.c **** 			{
 684:.\src/main_menu.c **** 				sprintf(s_current, "chg  %3d", change_current_val);
 2179              		.loc 1 684 0
 2180 0072 644B     		ldr	r3, .L180+4	@ tmp192,
 2181 0074 1B78     		ldrb	r3, [r3]	@ change_current_val.28, change_current_val
 2182 0076 04A9     		add	r1, sp, #16	@ tmp193,,
 2183 0078 644A     		ldr	r2, .L180+12	@ tmp194,
 2184 007a 081C     		mov	r0, r1	@, tmp193
 2185 007c 111C     		mov	r1, r2	@, tmp194
 2186 007e 1A1C     		mov	r2, r3	@, D.5470
 2187 0080 FFF7FEFF 		bl	sprintf	@
 685:.\src/main_menu.c **** 				strcat(s_current, (const char*)"%   sel");
 2188              		.loc 1 685 0
 2189 0084 04AB     		add	r3, sp, #16	@ tmp195,,
 2190 0086 181C     		mov	r0, r3	@, tmp195
 2191 0088 FFF7FEFF 		bl	strlen	@
 2192 008c 031C     		mov	r3, r0	@ tmp196,
 2193 008e 04AA     		add	r2, sp, #16	@ tmp198,,
 2194 0090 D218     		add	r2, r2, r3	@ D.5472, tmp198, D.5471
 2195 0092 5F4B     		ldr	r3, .L180+16	@ tmp199,
 2196 0094 111C     		mov	r1, r2	@ tmp200, D.5472
 2197 0096 1A1C     		mov	r2, r3	@ tmp201, tmp199
 2198 0098 0823     		mov	r3, #8	@ tmp202,
 2199 009a 081C     		mov	r0, r1	@, tmp200
ARM GAS  C:\Users\Mariano\AppData\Local\Temp\ccX2jy0d.s 			page 53


 2200 009c 111C     		mov	r1, r2	@, tmp201
 2201 009e 1A1C     		mov	r2, r3	@, tmp202
 2202 00a0 FFF7FEFF 		bl	memcpy	@
 2203 00a4 37E0     		b	.L170	@
 2204              	.L169:
 686:.\src/main_menu.c **** 			}
 687:.\src/main_menu.c **** 			else if (mode == CHANGE_SECS)
 2205              		.loc 1 687 0
 2206 00a6 6B46     		mov	r3, sp	@ tmp205,
 2207 00a8 0B33     		add	r3, r3, #11	@ tmp205,
 2208 00aa 1B78     		ldrb	r3, [r3]	@ tmp206, mode
 2209 00ac 012B     		cmp	r3, #1	@ tmp206,
 2210 00ae 19D1     		bne	.L171	@,
 688:.\src/main_menu.c **** 			{
 689:.\src/main_menu.c **** 				sprintf(s_current, "chg %2d", change_current_val);
 2211              		.loc 1 689 0
 2212 00b0 544B     		ldr	r3, .L180+4	@ tmp207,
 2213 00b2 1B78     		ldrb	r3, [r3]	@ change_current_val.29, change_current_val
 2214 00b4 04A9     		add	r1, sp, #16	@ tmp208,,
 2215 00b6 574A     		ldr	r2, .L180+20	@ tmp209,
 2216 00b8 081C     		mov	r0, r1	@, tmp208
 2217 00ba 111C     		mov	r1, r2	@, tmp209
 2218 00bc 1A1C     		mov	r2, r3	@, D.5477
 2219 00be FFF7FEFF 		bl	sprintf	@
 690:.\src/main_menu.c **** 				strcat(s_current, (const char*)" secs sel");
 2220              		.loc 1 690 0
 2221 00c2 04AB     		add	r3, sp, #16	@ tmp210,,
 2222 00c4 181C     		mov	r0, r3	@, tmp210
 2223 00c6 FFF7FEFF 		bl	strlen	@
 2224 00ca 031C     		mov	r3, r0	@ tmp211,
 2225 00cc 04AA     		add	r2, sp, #16	@ tmp213,,
 2226 00ce D218     		add	r2, r2, r3	@ D.5479, tmp213, D.5478
 2227 00d0 514B     		ldr	r3, .L180+24	@ tmp214,
 2228 00d2 111C     		mov	r1, r2	@ tmp215, D.5479
 2229 00d4 1A1C     		mov	r2, r3	@ tmp216, tmp214
 2230 00d6 0A23     		mov	r3, #10	@ tmp217,
 2231 00d8 081C     		mov	r0, r1	@, tmp215
 2232 00da 111C     		mov	r1, r2	@, tmp216
 2233 00dc 1A1C     		mov	r2, r3	@, tmp217
 2234 00de FFF7FEFF 		bl	memcpy	@
 2235 00e2 18E0     		b	.L170	@
 2236              	.L171:
 691:.\src/main_menu.c **** 			}
 692:.\src/main_menu.c **** 			else	//debe ser CHANNELS
 693:.\src/main_menu.c **** 			{
 694:.\src/main_menu.c **** 				sprintf(s_current, "chg   %3d", change_current_val);
 2237              		.loc 1 694 0
 2238 00e4 474B     		ldr	r3, .L180+4	@ tmp220,
 2239 00e6 1B78     		ldrb	r3, [r3]	@ change_current_val.30, change_current_val
 2240 00e8 04A9     		add	r1, sp, #16	@ tmp221,,
 2241 00ea 4C4A     		ldr	r2, .L180+28	@ tmp222,
 2242 00ec 081C     		mov	r0, r1	@, tmp221
 2243 00ee 111C     		mov	r1, r2	@, tmp222
 2244 00f0 1A1C     		mov	r2, r3	@, D.5482
 2245 00f2 FFF7FEFF 		bl	sprintf	@
 695:.\src/main_menu.c **** 				strcat(s_current, (const char*)"ch  sel");
 2246              		.loc 1 695 0
ARM GAS  C:\Users\Mariano\AppData\Local\Temp\ccX2jy0d.s 			page 54


 2247 00f6 04AB     		add	r3, sp, #16	@ tmp223,,
 2248 00f8 181C     		mov	r0, r3	@, tmp223
 2249 00fa FFF7FEFF 		bl	strlen	@
 2250 00fe 031C     		mov	r3, r0	@ tmp224,
 2251 0100 04AA     		add	r2, sp, #16	@ tmp226,,
 2252 0102 D218     		add	r2, r2, r3	@ D.5484, tmp226, D.5483
 2253 0104 464B     		ldr	r3, .L180+32	@ tmp227,
 2254 0106 111C     		mov	r1, r2	@ tmp228, D.5484
 2255 0108 1A1C     		mov	r2, r3	@ tmp229, tmp227
 2256 010a 0823     		mov	r3, #8	@ tmp230,
 2257 010c 081C     		mov	r0, r1	@, tmp228
 2258 010e 111C     		mov	r1, r2	@, tmp229
 2259 0110 1A1C     		mov	r2, r3	@, tmp230
 2260 0112 FFF7FEFF 		bl	memcpy	@
 2261              	.L170:
 696:.\src/main_menu.c **** 			}
 697:.\src/main_menu.c **** 
 698:.\src/main_menu.c **** 			resp_down = FuncOptions ((const char *) "up  down   done ", s_current,(unsigned char *) s_sel_up
 2262              		.loc 1 698 0
 2263 0116 3C4B     		ldr	r3, .L180+8	@ tmp233,
 2264 0118 1878     		ldrb	r0, [r3]	@ change_last_option.31, change_last_option
 2265 011a 6C46     		mov	r4, sp	@ tmp234,
 2266 011c 2634     		add	r4, r4, #38	@ tmp234,
 2267 011e 4149     		ldr	r1, .L180+36	@ tmp235,
 2268 0120 04AA     		add	r2, sp, #16	@ tmp236,,
 2269 0122 414B     		ldr	r3, .L180+40	@ tmp237,
 2270 0124 0090     		str	r0, [sp]	@ change_last_option.31,
 2271 0126 081C     		mov	r0, r1	@, tmp235
 2272 0128 111C     		mov	r1, r2	@, tmp236
 2273 012a 1A1C     		mov	r2, r3	@, tmp237
 2274 012c 0323     		mov	r3, #3	@,
 2275 012e FFF7FEFF 		bl	FuncOptions	@
 2276 0132 031C     		mov	r3, r0	@ tmp238,
 2277 0134 2370     		strb	r3, [r4]	@ tmp240, resp_down
 699:.\src/main_menu.c **** 			change_last_option = 0;
 2278              		.loc 1 699 0
 2279 0136 344B     		ldr	r3, .L180+8	@ tmp241,
 2280 0138 0022     		mov	r2, #0	@ tmp242,
 2281 013a 1A70     		strb	r2, [r3]	@ tmp243, change_last_option
 700:.\src/main_menu.c **** 
 701:.\src/main_menu.c **** 			if ((resp_down & 0x0f) == RESP_SELECTED)
 2282              		.loc 1 701 0
 2283 013c 6B46     		mov	r3, sp	@ tmp244,
 2284 013e 2633     		add	r3, r3, #38	@ tmp244,
 2285 0140 1A78     		ldrb	r2, [r3]	@ D.5486, resp_down
 2286 0142 0F23     		mov	r3, #15	@ tmp245,
 2287 0144 1340     		and	r3, r2	@ D.5487, D.5486
 2288 0146 012B     		cmp	r3, #1	@ D.5487,
 2289 0148 52D1     		bne	.L179	@,
 702:.\src/main_menu.c **** 			{
 703:.\src/main_menu.c **** 				resp_down = resp_down & 0xf0;
 2290              		.loc 1 703 0
 2291 014a 6B46     		mov	r3, sp	@ tmp246,
 2292 014c 2633     		add	r3, r3, #38	@ tmp246,
 2293 014e 6A46     		mov	r2, sp	@ tmp247,
 2294 0150 2632     		add	r2, r2, #38	@ tmp247,
 2295 0152 1278     		ldrb	r2, [r2]	@ tmp248, resp_down
ARM GAS  C:\Users\Mariano\AppData\Local\Temp\ccX2jy0d.s 			page 55


 2296 0154 0F21     		mov	r1, #15	@ tmp250,
 2297 0156 8A43     		bic	r2, r1	@ tmp249, tmp250
 2298 0158 1A70     		strb	r2, [r3]	@ tmp251, resp_down
 704:.\src/main_menu.c **** 				resp_down >>= 4;
 2299              		.loc 1 704 0
 2300 015a 6B46     		mov	r3, sp	@ tmp252,
 2301 015c 2633     		add	r3, r3, #38	@ tmp252,
 2302 015e 6A46     		mov	r2, sp	@ tmp253,
 2303 0160 2632     		add	r2, r2, #38	@ tmp253,
 2304 0162 1278     		ldrb	r2, [r2]	@ tmp254, resp_down
 2305 0164 1209     		lsr	r2, r2, #4	@ tmp255, tmp254,
 2306 0166 1A70     		strb	r2, [r3]	@ tmp256, resp_down
 705:.\src/main_menu.c **** 				if (resp_down == 0)
 2307              		.loc 1 705 0
 2308 0168 6B46     		mov	r3, sp	@ tmp257,
 2309 016a 2633     		add	r3, r3, #38	@ tmp257,
 2310 016c 1B78     		ldrb	r3, [r3]	@ tmp258, resp_down
 2311 016e 002B     		cmp	r3, #0	@ tmp258,
 2312 0170 10D1     		bne	.L173	@,
 706:.\src/main_menu.c **** 				{
 707:.\src/main_menu.c **** 					if (change_current_val < max_val)
 2313              		.loc 1 707 0
 2314 0172 244B     		ldr	r3, .L180+4	@ tmp259,
 2315 0174 1B78     		ldrb	r3, [r3]	@ change_current_val.32, change_current_val
 2316 0176 6A46     		mov	r2, sp	@ tmp260,
 2317 0178 0932     		add	r2, r2, #9	@ tmp260,
 2318 017a 1278     		ldrb	r2, [r2]	@ tmp261, max_val
 2319 017c 9A42     		cmp	r2, r3	@ tmp261, change_current_val.32
 2320 017e 05D9     		bls	.L174	@,
 708:.\src/main_menu.c **** 						change_current_val++;
 2321              		.loc 1 708 0
 2322 0180 204B     		ldr	r3, .L180+4	@ tmp262,
 2323 0182 1B78     		ldrb	r3, [r3]	@ change_current_val.33, change_current_val
 2324 0184 0133     		add	r3, r3, #1	@ tmp263,
 2325 0186 DAB2     		uxtb	r2, r3	@ change_current_val.34, tmp263
 2326 0188 1E4B     		ldr	r3, .L180+4	@ tmp264,
 2327 018a 1A70     		strb	r2, [r3]	@ tmp265, change_current_val
 2328              	.L174:
 709:.\src/main_menu.c **** 
 710:.\src/main_menu.c **** 					resp = RESP_WORKING;
 2329              		.loc 1 710 0
 2330 018c 6B46     		mov	r3, sp	@ tmp266,
 2331 018e 2733     		add	r3, r3, #39	@ tmp266,
 2332 0190 0422     		mov	r2, #4	@ tmp267,
 2333 0192 1A70     		strb	r2, [r3]	@ tmp268, resp
 2334              	.L173:
 711:.\src/main_menu.c **** 				}
 712:.\src/main_menu.c **** 
 713:.\src/main_menu.c **** 				if (resp_down == 1)
 2335              		.loc 1 713 0
 2336 0194 6B46     		mov	r3, sp	@ tmp269,
 2337 0196 2633     		add	r3, r3, #38	@ tmp269,
 2338 0198 1B78     		ldrb	r3, [r3]	@ tmp270, resp_down
 2339 019a 012B     		cmp	r3, #1	@ tmp270,
 2340 019c 13D1     		bne	.L175	@,
 714:.\src/main_menu.c **** 				{
 715:.\src/main_menu.c **** 					if (change_current_val > min_val)
ARM GAS  C:\Users\Mariano\AppData\Local\Temp\ccX2jy0d.s 			page 56


 2341              		.loc 1 715 0
 2342 019e 194B     		ldr	r3, .L180+4	@ tmp271,
 2343 01a0 1B78     		ldrb	r3, [r3]	@ change_current_val.35, change_current_val
 2344 01a2 6A46     		mov	r2, sp	@ tmp272,
 2345 01a4 0A32     		add	r2, r2, #10	@ tmp272,
 2346 01a6 1278     		ldrb	r2, [r2]	@ tmp273, min_val
 2347 01a8 9A42     		cmp	r2, r3	@ tmp273, change_current_val.35
 2348 01aa 05D2     		bcs	.L176	@,
 716:.\src/main_menu.c **** 						change_current_val--;
 2349              		.loc 1 716 0
 2350 01ac 154B     		ldr	r3, .L180+4	@ tmp274,
 2351 01ae 1B78     		ldrb	r3, [r3]	@ change_current_val.36, change_current_val
 2352 01b0 013B     		sub	r3, r3, #1	@ tmp275,
 2353 01b2 DAB2     		uxtb	r2, r3	@ change_current_val.37, tmp275
 2354 01b4 134B     		ldr	r3, .L180+4	@ tmp276,
 2355 01b6 1A70     		strb	r2, [r3]	@ tmp277, change_current_val
 2356              	.L176:
 717:.\src/main_menu.c **** 
 718:.\src/main_menu.c **** 					change_last_option = (1 | 0x80);	//fuerzo update de la opcion
 2357              		.loc 1 718 0
 2358 01b8 134B     		ldr	r3, .L180+8	@ tmp278,
 2359 01ba 8122     		mov	r2, #129	@ tmp279,
 2360 01bc 1A70     		strb	r2, [r3]	@ tmp280, change_last_option
 719:.\src/main_menu.c **** 					resp = RESP_WORKING;
 2361              		.loc 1 719 0
 2362 01be 6B46     		mov	r3, sp	@ tmp281,
 2363 01c0 2733     		add	r3, r3, #39	@ tmp281,
 2364 01c2 0422     		mov	r2, #4	@ tmp282,
 2365 01c4 1A70     		strb	r2, [r3]	@ tmp283, resp
 2366              	.L175:
 720:.\src/main_menu.c **** 				}
 721:.\src/main_menu.c **** 
 722:.\src/main_menu.c **** 				if (resp_down == 2)
 2367              		.loc 1 722 0
 2368 01c6 6B46     		mov	r3, sp	@ tmp284,
 2369 01c8 2633     		add	r3, r3, #38	@ tmp284,
 2370 01ca 1B78     		ldrb	r3, [r3]	@ tmp285, resp_down
 2371 01cc 022B     		cmp	r3, #2	@ tmp285,
 2372 01ce 0FD1     		bne	.L179	@,
 723:.\src/main_menu.c **** 				{
 724:.\src/main_menu.c **** 					change_state = CHANGE_INIT;
 2373              		.loc 1 724 0
 2374 01d0 0B4B     		ldr	r3, .L180	@ tmp286,
 2375 01d2 0022     		mov	r2, #0	@ tmp287,
 2376 01d4 1A70     		strb	r2, [r3]	@ tmp288, change_state
 725:.\src/main_menu.c **** 					resp = RESP_FINISH;
 2377              		.loc 1 725 0
 2378 01d6 6B46     		mov	r3, sp	@ tmp289,
 2379 01d8 2733     		add	r3, r3, #39	@ tmp289,
 2380 01da 0A22     		mov	r2, #10	@ tmp290,
 2381 01dc 1A70     		strb	r2, [r3]	@ tmp291, resp
 726:.\src/main_menu.c **** 					*p_orig_value = change_current_val;
 2382              		.loc 1 726 0
 2383 01de 094B     		ldr	r3, .L180+4	@ tmp292,
 2384 01e0 1A78     		ldrb	r2, [r3]	@ change_current_val.38, change_current_val
 2385 01e2 039B     		ldr	r3, [sp, #12]	@ tmp293, p_orig_value
 2386 01e4 1A70     		strb	r2, [r3]	@ tmp294, *p_orig_value_9(D)
ARM GAS  C:\Users\Mariano\AppData\Local\Temp\ccX2jy0d.s 			page 57


 727:.\src/main_menu.c **** 				}
 728:.\src/main_menu.c **** 			}
 729:.\src/main_menu.c **** 			break;
 2387              		.loc 1 729 0
 2388 01e6 03E0     		b	.L179	@
 2389              	.L178:
 730:.\src/main_menu.c **** 
 731:.\src/main_menu.c **** 		default:
 732:.\src/main_menu.c **** 			change_state = CHANGE_INIT;
 2390              		.loc 1 732 0
 2391 01e8 054B     		ldr	r3, .L180	@ tmp295,
 2392 01ea 0022     		mov	r2, #0	@ tmp296,
 2393 01ec 1A70     		strb	r2, [r3]	@ tmp297, change_state
 733:.\src/main_menu.c **** 			break;
 2394              		.loc 1 733 0
 2395 01ee 00E0     		b	.L168	@
 2396              	.L179:
 729:.\src/main_menu.c **** 			break;
 2397              		.loc 1 729 0
 2398 01f0 C046     		mov	r8, r8
 2399              	.L168:
 734:.\src/main_menu.c **** 	}
 735:.\src/main_menu.c **** 
 736:.\src/main_menu.c **** 	return resp;
 2400              		.loc 1 736 0
 2401 01f2 6B46     		mov	r3, sp	@ tmp298,
 2402 01f4 2733     		add	r3, r3, #39	@ tmp298,
 2403 01f6 1B78     		ldrb	r3, [r3]	@ D.5507, resp
 737:.\src/main_menu.c **** }
 2404              		.loc 1 737 0
 2405 01f8 181C     		mov	r0, r3	@, <retval>
 2406 01fa 0AB0     		add	sp, sp, #40	@,,
 2407              		@ sp needed for prologue	@
 2408 01fc 10BD     		pop	{r4, pc}
 2409              	.L181:
 2410 01fe C046     		.align	2
 2411              	.L180:
 2412 0200 00000000 		.word	change_state
 2413 0204 00000000 		.word	change_current_val
 2414 0208 00000000 		.word	change_last_option
 2415 020c BC000000 		.word	.LC49
 2416 0210 C8000000 		.word	.LC51
 2417 0214 D0000000 		.word	.LC53
 2418 0218 D8000000 		.word	.LC55
 2419 021c E4000000 		.word	.LC57
 2420 0220 F0000000 		.word	.LC59
 2421 0224 F8000000 		.word	.LC61
 2422 0228 00000000 		.word	s_sel_up_down
 2423              		.cfi_endproc
 2424              	.LFE7:
 2425              		.size	FuncChange, .-FuncChange
 2426              		.section	.text.FuncChangeReset,"ax",%progbits
 2427              		.align	2
 2428              		.global	FuncChangeReset
 2429              		.code	16
 2430              		.thumb_func
 2431              		.type	FuncChangeReset, %function
ARM GAS  C:\Users\Mariano\AppData\Local\Temp\ccX2jy0d.s 			page 58


 2432              	FuncChangeReset:
 2433              	.LFB8:
 738:.\src/main_menu.c **** 
 739:.\src/main_menu.c **** void FuncChangeReset (void)
 740:.\src/main_menu.c **** {
 2434              		.loc 1 740 0
 2435              		.cfi_startproc
 741:.\src/main_menu.c **** 	change_state = CHANGE_INIT;
 2436              		.loc 1 741 0
 2437 0000 014B     		ldr	r3, .L183	@ tmp134,
 2438 0002 0022     		mov	r2, #0	@ tmp135,
 2439 0004 1A70     		strb	r2, [r3]	@ tmp136, change_state
 742:.\src/main_menu.c **** }
 2440              		.loc 1 742 0
 2441              		@ sp needed for prologue	@
 2442 0006 7047     		bx	lr
 2443              	.L184:
 2444              		.align	2
 2445              	.L183:
 2446 0008 00000000 		.word	change_state
 2447              		.cfi_endproc
 2448              	.LFE8:
 2449              		.size	FuncChangeReset, .-FuncChangeReset
 2450              		.section	.text.FuncScroll1,"ax",%progbits
 2451              		.align	2
 2452              		.global	FuncScroll1
 2453              		.code	16
 2454              		.thumb_func
 2455              		.type	FuncScroll1, %function
 2456              	FuncScroll1:
 2457              	.LFB9:
 743:.\src/main_menu.c **** 
 744:.\src/main_menu.c **** 
 745:.\src/main_menu.c **** //hace un scroll en el primer renglon del lcd
 746:.\src/main_menu.c **** //recibe un puntero al string
 747:.\src/main_menu.c **** //devuelve RESP_CONTINUE o RESP_FINISH
 748:.\src/main_menu.c **** unsigned char FuncScroll1 (const char * p_text)
 749:.\src/main_menu.c **** {
 2458              		.loc 1 749 0
 2459              		.cfi_startproc
 2460 0000 00B5     		push	{lr}	@
 2461              	.LCFI12:
 2462              		.cfi_def_cfa_offset 4
 2463              		.cfi_offset 14, -4
 2464 0002 85B0     		sub	sp, sp, #20	@,,
 2465              	.LCFI13:
 2466              		.cfi_def_cfa_offset 24
 2467 0004 0190     		str	r0, [sp, #4]	@ p_text, p_text
 750:.\src/main_menu.c **** 	unsigned char resp = RESP_CONTINUE;
 2468              		.loc 1 750 0
 2469 0006 6B46     		mov	r3, sp	@ tmp158,
 2470 0008 0F33     		add	r3, r3, #15	@ tmp158,
 2471 000a 0022     		mov	r2, #0	@ tmp159,
 2472 000c 1A70     		strb	r2, [r3]	@ tmp160, resp
 751:.\src/main_menu.c **** 	unsigned char last_window;
 752:.\src/main_menu.c **** 	unsigned char i;
 753:.\src/main_menu.c **** 
ARM GAS  C:\Users\Mariano\AppData\Local\Temp\ccX2jy0d.s 			page 59


 754:.\src/main_menu.c **** 	switch (scroll1_state)
 2473              		.loc 1 754 0
 2474 000e 4A4B     		ldr	r3, .L201	@ tmp161,
 2475 0010 1B78     		ldrb	r3, [r3]	@ scroll1_state.12, scroll1_state
 2476 0012 012B     		cmp	r3, #1	@ D.5428,
 2477 0014 19D0     		beq	.L188	@,
 2478 0016 022B     		cmp	r3, #2	@ D.5428,
 2479 0018 00D1     		bne	.LCB1963	@
 2480 001a 76E0     		b	.L189	@long jump	@
 2481              	.LCB1963:
 2482 001c 002B     		cmp	r3, #0	@ D.5428,
 2483 001e 00D0     		beq	.LCB1965	@
 2484 0020 7BE0     		b	.L199	@long jump	@
 2485              	.LCB1965:
 2486              	.L187:
 755:.\src/main_menu.c **** 	{
 756:.\src/main_menu.c **** 		case SCROLL_INIT:
 757:.\src/main_menu.c **** 			scroll1_last_window = strlen(p_text) + 32;
 2487              		.loc 1 757 0
 2488 0022 019B     		ldr	r3, [sp, #4]	@ tmp162, p_text
 2489 0024 181C     		mov	r0, r3	@, tmp162
 2490 0026 FFF7FEFF 		bl	strlen	@
 2491 002a 031C     		mov	r3, r0	@ D.5429,
 2492 002c DBB2     		uxtb	r3, r3	@ D.5430, D.5429
 2493 002e 2033     		add	r3, r3, #32	@ tmp163,
 2494 0030 DAB2     		uxtb	r2, r3	@ scroll1_last_window.13, tmp163
 2495 0032 424B     		ldr	r3, .L201+4	@ tmp164,
 2496 0034 1A70     		strb	r2, [r3]	@ tmp165, scroll1_last_window
 758:.\src/main_menu.c **** 			scroll1_current_window = 1;
 2497              		.loc 1 758 0
 2498 0036 424B     		ldr	r3, .L201+8	@ tmp166,
 2499 0038 0122     		mov	r2, #1	@ tmp167,
 2500 003a 1A70     		strb	r2, [r3]	@ tmp168, scroll1_current_window
 759:.\src/main_menu.c **** 			scroll1_state++;
 2501              		.loc 1 759 0
 2502 003c 3E4B     		ldr	r3, .L201	@ tmp169,
 2503 003e 1B78     		ldrb	r3, [r3]	@ scroll1_state.14, scroll1_state
 2504 0040 0133     		add	r3, r3, #1	@ tmp170,
 2505 0042 DAB2     		uxtb	r2, r3	@ scroll1_state.15, tmp170
 2506 0044 3C4B     		ldr	r3, .L201	@ tmp171,
 2507 0046 1A70     		strb	r2, [r3]	@ tmp172, scroll1_state
 760:.\src/main_menu.c **** 			break;
 2508              		.loc 1 760 0
 2509 0048 70E0     		b	.L190	@
 2510              	.L188:
 761:.\src/main_menu.c **** 
 762:.\src/main_menu.c **** 		case SCROLL_SENDING:
 763:.\src/main_menu.c **** 			if (!scroll1_timer)
 2511              		.loc 1 763 0
 2512 004a 3E4B     		ldr	r3, .L201+12	@ tmp173,
 2513 004c 1B88     		ldrh	r3, [r3]	@ tmp174, scroll1_timer
 2514 004e 9BB2     		uxth	r3, r3	@ scroll1_timer.16, tmp174
 2515 0050 002B     		cmp	r3, #0	@ scroll1_timer.16,
 2516 0052 6AD1     		bne	.L200	@,
 764:.\src/main_menu.c **** 			{
 765:.\src/main_menu.c **** 				last_window = scroll1_current_window + 16;
 2517              		.loc 1 765 0
ARM GAS  C:\Users\Mariano\AppData\Local\Temp\ccX2jy0d.s 			page 60


 2518 0054 3A4B     		ldr	r3, .L201+8	@ tmp175,
 2519 0056 1A78     		ldrb	r2, [r3]	@ scroll1_current_window.17, scroll1_current_window
 2520 0058 6B46     		mov	r3, sp	@ tmp176,
 2521 005a 0D33     		add	r3, r3, #13	@ tmp176,
 2522 005c 1032     		add	r2, r2, #16	@ tmp177,
 2523 005e 1A70     		strb	r2, [r3]	@ tmp178, last_window
 766:.\src/main_menu.c **** 				LCD_1ER_RENGLON;
 2524              		.loc 1 766 0
 2525 0060 0020     		mov	r0, #0	@,
 2526 0062 FFF7FEFF 		bl	Lcd_SetDDRAM	@
 767:.\src/main_menu.c **** 
 768:.\src/main_menu.c **** 				for (i = scroll1_current_window; i < last_window; i++)
 2527              		.loc 1 768 0
 2528 0066 6B46     		mov	r3, sp	@ tmp179,
 2529 0068 0E33     		add	r3, r3, #14	@ tmp179,
 2530 006a 354A     		ldr	r2, .L201+8	@ tmp180,
 2531 006c 1278     		ldrb	r2, [r2]	@ tmp181, scroll1_current_window
 2532 006e 1A70     		strb	r2, [r3]	@ tmp181, i
 2533 0070 39E0     		b	.L192	@
 2534              	.L197:
 769:.\src/main_menu.c **** 				{
 770:.\src/main_menu.c **** 					if (i < 16)
 2535              		.loc 1 770 0
 2536 0072 6B46     		mov	r3, sp	@ tmp182,
 2537 0074 0E33     		add	r3, r3, #14	@ tmp182,
 2538 0076 1B78     		ldrb	r3, [r3]	@ tmp183, i
 2539 0078 0F2B     		cmp	r3, #15	@ tmp183,
 2540 007a 03D8     		bhi	.L193	@,
 771:.\src/main_menu.c **** 						LCDStartTransmit(' ');
 2541              		.loc 1 771 0
 2542 007c 2020     		mov	r0, #32	@,
 2543 007e FFF7FEFF 		bl	LCDStartTransmit	@
 2544 0082 29E0     		b	.L194	@
 2545              	.L193:
 772:.\src/main_menu.c **** 					else if (i < (scroll1_last_window - 16))
 2546              		.loc 1 772 0
 2547 0084 6B46     		mov	r3, sp	@ tmp184,
 2548 0086 0E33     		add	r3, r3, #14	@ tmp184,
 2549 0088 1A78     		ldrb	r2, [r3]	@ D.5441, i
 2550 008a 2C4B     		ldr	r3, .L201+4	@ tmp185,
 2551 008c 1B78     		ldrb	r3, [r3]	@ scroll1_last_window.18, scroll1_last_window
 2552 008e 103B     		sub	r3, r3, #16	@ D.5444,
 2553 0090 9A42     		cmp	r2, r3	@ D.5441, D.5444
 2554 0092 0ADA     		bge	.L195	@,
 773:.\src/main_menu.c **** 						LCDStartTransmit(*(p_text + (i - 16)));
 2555              		.loc 1 773 0
 2556 0094 6B46     		mov	r3, sp	@ tmp186,
 2557 0096 0E33     		add	r3, r3, #14	@ tmp186,
 2558 0098 1B78     		ldrb	r3, [r3]	@ D.5447, i
 2559 009a 103B     		sub	r3, r3, #16	@ D.5448,
 2560 009c 019A     		ldr	r2, [sp, #4]	@ tmp187, p_text
 2561 009e D318     		add	r3, r2, r3	@ D.5449, tmp187, D.5448
 2562 00a0 1B78     		ldrb	r3, [r3]	@ D.5450, *D.5449_23
 2563 00a2 181C     		mov	r0, r3	@, D.5450
 2564 00a4 FFF7FEFF 		bl	LCDStartTransmit	@
 2565 00a8 16E0     		b	.L194	@
 2566              	.L195:
ARM GAS  C:\Users\Mariano\AppData\Local\Temp\ccX2jy0d.s 			page 61


 774:.\src/main_menu.c **** 					else if (i < scroll1_last_window)
 2567              		.loc 1 774 0
 2568 00aa 244B     		ldr	r3, .L201+4	@ tmp188,
 2569 00ac 1B78     		ldrb	r3, [r3]	@ scroll1_last_window.19, scroll1_last_window
 2570 00ae 6A46     		mov	r2, sp	@ tmp189,
 2571 00b0 0E32     		add	r2, r2, #14	@ tmp189,
 2572 00b2 1278     		ldrb	r2, [r2]	@ tmp190, i
 2573 00b4 9A42     		cmp	r2, r3	@ tmp190, scroll1_last_window.19
 2574 00b6 03D2     		bcs	.L196	@,
 775:.\src/main_menu.c **** 						LCDStartTransmit(' ');
 2575              		.loc 1 775 0
 2576 00b8 2020     		mov	r0, #32	@,
 2577 00ba FFF7FEFF 		bl	LCDStartTransmit	@
 2578 00be 0BE0     		b	.L194	@
 2579              	.L196:
 776:.\src/main_menu.c **** 					else
 777:.\src/main_menu.c **** 					{
 778:.\src/main_menu.c **** 						//termine de enviar
 779:.\src/main_menu.c **** 						i = last_window;
 2580              		.loc 1 779 0
 2581 00c0 6B46     		mov	r3, sp	@ tmp191,
 2582 00c2 0E33     		add	r3, r3, #14	@ tmp191,
 2583 00c4 6A46     		mov	r2, sp	@ tmp192,
 2584 00c6 0D32     		add	r2, r2, #13	@ tmp192,
 2585 00c8 1278     		ldrb	r2, [r2]	@ tmp193, last_window
 2586 00ca 1A70     		strb	r2, [r3]	@ tmp193, i
 780:.\src/main_menu.c **** 						scroll1_state++;
 2587              		.loc 1 780 0
 2588 00cc 1A4B     		ldr	r3, .L201	@ tmp194,
 2589 00ce 1B78     		ldrb	r3, [r3]	@ scroll1_state.20, scroll1_state
 2590 00d0 0133     		add	r3, r3, #1	@ tmp195,
 2591 00d2 DAB2     		uxtb	r2, r3	@ scroll1_state.21, tmp195
 2592 00d4 184B     		ldr	r3, .L201	@ tmp196,
 2593 00d6 1A70     		strb	r2, [r3]	@ tmp197, scroll1_state
 2594              	.L194:
 768:.\src/main_menu.c **** 				for (i = scroll1_current_window; i < last_window; i++)
 2595              		.loc 1 768 0
 2596 00d8 6B46     		mov	r3, sp	@ tmp198,
 2597 00da 0E33     		add	r3, r3, #14	@ tmp198,
 2598 00dc 6A46     		mov	r2, sp	@ tmp199,
 2599 00de 0E32     		add	r2, r2, #14	@ tmp199,
 2600 00e0 1278     		ldrb	r2, [r2]	@ tmp200, i
 2601 00e2 0132     		add	r2, r2, #1	@ tmp201,
 2602 00e4 1A70     		strb	r2, [r3]	@ tmp202, i
 2603              	.L192:
 768:.\src/main_menu.c **** 				for (i = scroll1_current_window; i < last_window; i++)
 2604              		.loc 1 768 0 is_stmt 0 discriminator 1
 2605 00e6 6A46     		mov	r2, sp	@ tmp203,
 2606 00e8 0E32     		add	r2, r2, #14	@ tmp203,
 2607 00ea 6B46     		mov	r3, sp	@ tmp204,
 2608 00ec 0D33     		add	r3, r3, #13	@ tmp204,
 2609 00ee 1278     		ldrb	r2, [r2]	@ tmp205, i
 2610 00f0 1B78     		ldrb	r3, [r3]	@ tmp206, last_window
 2611 00f2 9A42     		cmp	r2, r3	@ tmp205, tmp206
 2612 00f4 BDD3     		bcc	.L197	@,
 781:.\src/main_menu.c **** 					}
 782:.\src/main_menu.c **** 				}
ARM GAS  C:\Users\Mariano\AppData\Local\Temp\ccX2jy0d.s 			page 62


 783:.\src/main_menu.c **** 				scroll1_current_window++;
 2613              		.loc 1 783 0 is_stmt 1
 2614 00f6 124B     		ldr	r3, .L201+8	@ tmp207,
 2615 00f8 1B78     		ldrb	r3, [r3]	@ scroll1_current_window.22, scroll1_current_window
 2616 00fa 0133     		add	r3, r3, #1	@ tmp208,
 2617 00fc DAB2     		uxtb	r2, r3	@ scroll1_current_window.23, tmp208
 2618 00fe 104B     		ldr	r3, .L201+8	@ tmp209,
 2619 0100 1A70     		strb	r2, [r3]	@ tmp210, scroll1_current_window
 784:.\src/main_menu.c **** 				scroll1_timer = 550;
 2620              		.loc 1 784 0
 2621 0102 104B     		ldr	r3, .L201+12	@ tmp211,
 2622 0104 104A     		ldr	r2, .L201+16	@ tmp212,
 2623 0106 1A80     		strh	r2, [r3]	@ tmp213, scroll1_timer
 785:.\src/main_menu.c **** 			}
 786:.\src/main_menu.c **** 			break;
 2624              		.loc 1 786 0
 2625 0108 0FE0     		b	.L200	@
 2626              	.L189:
 787:.\src/main_menu.c **** 
 788:.\src/main_menu.c **** 		case SCROLL_FINISH:
 789:.\src/main_menu.c **** 			resp = RESP_FINISH;
 2627              		.loc 1 789 0
 2628 010a 6B46     		mov	r3, sp	@ tmp214,
 2629 010c 0F33     		add	r3, r3, #15	@ tmp214,
 2630 010e 0A22     		mov	r2, #10	@ tmp215,
 2631 0110 1A70     		strb	r2, [r3]	@ tmp216, resp
 790:.\src/main_menu.c **** 			scroll1_state = SCROLL_INIT;
 2632              		.loc 1 790 0
 2633 0112 094B     		ldr	r3, .L201	@ tmp217,
 2634 0114 0022     		mov	r2, #0	@ tmp218,
 2635 0116 1A70     		strb	r2, [r3]	@ tmp219, scroll1_state
 791:.\src/main_menu.c **** 			break;
 2636              		.loc 1 791 0
 2637 0118 08E0     		b	.L190	@
 2638              	.L199:
 792:.\src/main_menu.c **** 
 793:.\src/main_menu.c **** 		default:
 794:.\src/main_menu.c **** 			resp = RESP_FINISH;
 2639              		.loc 1 794 0
 2640 011a 6B46     		mov	r3, sp	@ tmp220,
 2641 011c 0F33     		add	r3, r3, #15	@ tmp220,
 2642 011e 0A22     		mov	r2, #10	@ tmp221,
 2643 0120 1A70     		strb	r2, [r3]	@ tmp222, resp
 795:.\src/main_menu.c **** 			scroll1_state = SCROLL_INIT;
 2644              		.loc 1 795 0
 2645 0122 054B     		ldr	r3, .L201	@ tmp223,
 2646 0124 0022     		mov	r2, #0	@ tmp224,
 2647 0126 1A70     		strb	r2, [r3]	@ tmp225, scroll1_state
 796:.\src/main_menu.c **** 			break;
 2648              		.loc 1 796 0
 2649 0128 00E0     		b	.L190	@
 2650              	.L200:
 786:.\src/main_menu.c **** 			break;
 2651              		.loc 1 786 0
 2652 012a C046     		mov	r8, r8
 2653              	.L190:
 797:.\src/main_menu.c **** 	}
ARM GAS  C:\Users\Mariano\AppData\Local\Temp\ccX2jy0d.s 			page 63


 798:.\src/main_menu.c **** 
 799:.\src/main_menu.c **** 	return resp;
 2654              		.loc 1 799 0
 2655 012c 6B46     		mov	r3, sp	@ tmp226,
 2656 012e 0F33     		add	r3, r3, #15	@ tmp226,
 2657 0130 1B78     		ldrb	r3, [r3]	@ D.5460, resp
 800:.\src/main_menu.c **** }
 2658              		.loc 1 800 0
 2659 0132 181C     		mov	r0, r3	@, <retval>
 2660 0134 05B0     		add	sp, sp, #20	@,,
 2661              		@ sp needed for prologue	@
 2662 0136 00BD     		pop	{pc}
 2663              	.L202:
 2664              		.align	2
 2665              	.L201:
 2666 0138 00000000 		.word	scroll1_state
 2667 013c 00000000 		.word	scroll1_last_window
 2668 0140 00000000 		.word	scroll1_current_window
 2669 0144 00000000 		.word	scroll1_timer
 2670 0148 26020000 		.word	550
 2671              		.cfi_endproc
 2672              	.LFE9:
 2673              		.size	FuncScroll1, .-FuncScroll1
 2674              		.section	.text.FuncScroll2,"ax",%progbits
 2675              		.align	2
 2676              		.global	FuncScroll2
 2677              		.code	16
 2678              		.thumb_func
 2679              		.type	FuncScroll2, %function
 2680              	FuncScroll2:
 2681              	.LFB10:
 801:.\src/main_menu.c **** 
 802:.\src/main_menu.c **** //hace un scroll en el segundo renglon del lcd
 803:.\src/main_menu.c **** //recibe un puntero al string
 804:.\src/main_menu.c **** //devuelve RESP_CONTINUE o RESP_FINISH
 805:.\src/main_menu.c **** unsigned char FuncScroll2 (const char * p_text)
 806:.\src/main_menu.c **** {
 2682              		.loc 1 806 0
 2683              		.cfi_startproc
 2684 0000 00B5     		push	{lr}	@
 2685              	.LCFI14:
 2686              		.cfi_def_cfa_offset 4
 2687              		.cfi_offset 14, -4
 2688 0002 85B0     		sub	sp, sp, #20	@,,
 2689              	.LCFI15:
 2690              		.cfi_def_cfa_offset 24
 2691 0004 0190     		str	r0, [sp, #4]	@ p_text, p_text
 807:.\src/main_menu.c **** 	unsigned char resp = RESP_CONTINUE;
 2692              		.loc 1 807 0
 2693 0006 6B46     		mov	r3, sp	@ tmp158,
 2694 0008 0F33     		add	r3, r3, #15	@ tmp158,
 2695 000a 0022     		mov	r2, #0	@ tmp159,
 2696 000c 1A70     		strb	r2, [r3]	@ tmp160, resp
 808:.\src/main_menu.c **** 	unsigned char last_window;
 809:.\src/main_menu.c **** 	unsigned char i;
 810:.\src/main_menu.c **** 
 811:.\src/main_menu.c **** 	switch (scroll2_state)
ARM GAS  C:\Users\Mariano\AppData\Local\Temp\ccX2jy0d.s 			page 64


 2697              		.loc 1 811 0
 2698 000e 4A4B     		ldr	r3, .L219	@ tmp161,
 2699 0010 1B78     		ldrb	r3, [r3]	@ scroll2_state.0, scroll2_state
 2700 0012 012B     		cmp	r3, #1	@ D.5393,
 2701 0014 19D0     		beq	.L206	@,
 2702 0016 022B     		cmp	r3, #2	@ D.5393,
 2703 0018 00D1     		bne	.LCB2168	@
 2704 001a 76E0     		b	.L207	@long jump	@
 2705              	.LCB2168:
 2706 001c 002B     		cmp	r3, #0	@ D.5393,
 2707 001e 00D0     		beq	.LCB2170	@
 2708 0020 7BE0     		b	.L217	@long jump	@
 2709              	.LCB2170:
 2710              	.L205:
 812:.\src/main_menu.c **** 	{
 813:.\src/main_menu.c **** 		case SCROLL_INIT:
 814:.\src/main_menu.c **** 			scroll2_last_window = strlen(p_text) + 32;
 2711              		.loc 1 814 0
 2712 0022 019B     		ldr	r3, [sp, #4]	@ tmp162, p_text
 2713 0024 181C     		mov	r0, r3	@, tmp162
 2714 0026 FFF7FEFF 		bl	strlen	@
 2715 002a 031C     		mov	r3, r0	@ D.5394,
 2716 002c DBB2     		uxtb	r3, r3	@ D.5395, D.5394
 2717 002e 2033     		add	r3, r3, #32	@ tmp163,
 2718 0030 DAB2     		uxtb	r2, r3	@ scroll2_last_window.1, tmp163
 2719 0032 424B     		ldr	r3, .L219+4	@ tmp164,
 2720 0034 1A70     		strb	r2, [r3]	@ tmp165, scroll2_last_window
 815:.\src/main_menu.c **** 			scroll2_current_window = 1;
 2721              		.loc 1 815 0
 2722 0036 424B     		ldr	r3, .L219+8	@ tmp166,
 2723 0038 0122     		mov	r2, #1	@ tmp167,
 2724 003a 1A70     		strb	r2, [r3]	@ tmp168, scroll2_current_window
 816:.\src/main_menu.c **** 			scroll2_state++;
 2725              		.loc 1 816 0
 2726 003c 3E4B     		ldr	r3, .L219	@ tmp169,
 2727 003e 1B78     		ldrb	r3, [r3]	@ scroll2_state.2, scroll2_state
 2728 0040 0133     		add	r3, r3, #1	@ tmp170,
 2729 0042 DAB2     		uxtb	r2, r3	@ scroll2_state.3, tmp170
 2730 0044 3C4B     		ldr	r3, .L219	@ tmp171,
 2731 0046 1A70     		strb	r2, [r3]	@ tmp172, scroll2_state
 817:.\src/main_menu.c **** 			break;
 2732              		.loc 1 817 0
 2733 0048 70E0     		b	.L208	@
 2734              	.L206:
 818:.\src/main_menu.c **** 
 819:.\src/main_menu.c **** 		case SCROLL_SENDING:
 820:.\src/main_menu.c **** 			if (!scroll2_timer)
 2735              		.loc 1 820 0
 2736 004a 3E4B     		ldr	r3, .L219+12	@ tmp173,
 2737 004c 1B88     		ldrh	r3, [r3]	@ tmp174, scroll2_timer
 2738 004e 9BB2     		uxth	r3, r3	@ scroll2_timer.4, tmp174
 2739 0050 002B     		cmp	r3, #0	@ scroll2_timer.4,
 2740 0052 6AD1     		bne	.L218	@,
 821:.\src/main_menu.c **** 			{
 822:.\src/main_menu.c **** 				last_window = scroll2_current_window + 16;
 2741              		.loc 1 822 0
 2742 0054 3A4B     		ldr	r3, .L219+8	@ tmp175,
ARM GAS  C:\Users\Mariano\AppData\Local\Temp\ccX2jy0d.s 			page 65


 2743 0056 1A78     		ldrb	r2, [r3]	@ scroll2_current_window.5, scroll2_current_window
 2744 0058 6B46     		mov	r3, sp	@ tmp176,
 2745 005a 0D33     		add	r3, r3, #13	@ tmp176,
 2746 005c 1032     		add	r2, r2, #16	@ tmp177,
 2747 005e 1A70     		strb	r2, [r3]	@ tmp178, last_window
 823:.\src/main_menu.c **** 				LCD_2DO_RENGLON;
 2748              		.loc 1 823 0
 2749 0060 4020     		mov	r0, #64	@,
 2750 0062 FFF7FEFF 		bl	Lcd_SetDDRAM	@
 824:.\src/main_menu.c **** 
 825:.\src/main_menu.c **** 				for (i = scroll2_current_window; i < last_window; i++)
 2751              		.loc 1 825 0
 2752 0066 6B46     		mov	r3, sp	@ tmp179,
 2753 0068 0E33     		add	r3, r3, #14	@ tmp179,
 2754 006a 354A     		ldr	r2, .L219+8	@ tmp180,
 2755 006c 1278     		ldrb	r2, [r2]	@ tmp181, scroll2_current_window
 2756 006e 1A70     		strb	r2, [r3]	@ tmp181, i
 2757 0070 39E0     		b	.L210	@
 2758              	.L215:
 826:.\src/main_menu.c **** 				{
 827:.\src/main_menu.c **** 					if (i < 16)
 2759              		.loc 1 827 0
 2760 0072 6B46     		mov	r3, sp	@ tmp182,
 2761 0074 0E33     		add	r3, r3, #14	@ tmp182,
 2762 0076 1B78     		ldrb	r3, [r3]	@ tmp183, i
 2763 0078 0F2B     		cmp	r3, #15	@ tmp183,
 2764 007a 03D8     		bhi	.L211	@,
 828:.\src/main_menu.c **** 						LCDStartTransmit(' ');
 2765              		.loc 1 828 0
 2766 007c 2020     		mov	r0, #32	@,
 2767 007e FFF7FEFF 		bl	LCDStartTransmit	@
 2768 0082 29E0     		b	.L212	@
 2769              	.L211:
 829:.\src/main_menu.c **** 					else if (i < (scroll2_last_window - 16))
 2770              		.loc 1 829 0
 2771 0084 6B46     		mov	r3, sp	@ tmp184,
 2772 0086 0E33     		add	r3, r3, #14	@ tmp184,
 2773 0088 1A78     		ldrb	r2, [r3]	@ D.5406, i
 2774 008a 2C4B     		ldr	r3, .L219+4	@ tmp185,
 2775 008c 1B78     		ldrb	r3, [r3]	@ scroll2_last_window.6, scroll2_last_window
 2776 008e 103B     		sub	r3, r3, #16	@ D.5409,
 2777 0090 9A42     		cmp	r2, r3	@ D.5406, D.5409
 2778 0092 0ADA     		bge	.L213	@,
 830:.\src/main_menu.c **** 						LCDStartTransmit(*(p_text + (i - 16)));
 2779              		.loc 1 830 0
 2780 0094 6B46     		mov	r3, sp	@ tmp186,
 2781 0096 0E33     		add	r3, r3, #14	@ tmp186,
 2782 0098 1B78     		ldrb	r3, [r3]	@ D.5412, i
 2783 009a 103B     		sub	r3, r3, #16	@ D.5413,
 2784 009c 019A     		ldr	r2, [sp, #4]	@ tmp187, p_text
 2785 009e D318     		add	r3, r2, r3	@ D.5414, tmp187, D.5413
 2786 00a0 1B78     		ldrb	r3, [r3]	@ D.5415, *D.5414_23
 2787 00a2 181C     		mov	r0, r3	@, D.5415
 2788 00a4 FFF7FEFF 		bl	LCDStartTransmit	@
 2789 00a8 16E0     		b	.L212	@
 2790              	.L213:
 831:.\src/main_menu.c **** 					else if (i < scroll2_last_window)
ARM GAS  C:\Users\Mariano\AppData\Local\Temp\ccX2jy0d.s 			page 66


 2791              		.loc 1 831 0
 2792 00aa 244B     		ldr	r3, .L219+4	@ tmp188,
 2793 00ac 1B78     		ldrb	r3, [r3]	@ scroll2_last_window.7, scroll2_last_window
 2794 00ae 6A46     		mov	r2, sp	@ tmp189,
 2795 00b0 0E32     		add	r2, r2, #14	@ tmp189,
 2796 00b2 1278     		ldrb	r2, [r2]	@ tmp190, i
 2797 00b4 9A42     		cmp	r2, r3	@ tmp190, scroll2_last_window.7
 2798 00b6 03D2     		bcs	.L214	@,
 832:.\src/main_menu.c **** 						LCDStartTransmit(' ');
 2799              		.loc 1 832 0
 2800 00b8 2020     		mov	r0, #32	@,
 2801 00ba FFF7FEFF 		bl	LCDStartTransmit	@
 2802 00be 0BE0     		b	.L212	@
 2803              	.L214:
 833:.\src/main_menu.c **** 					else
 834:.\src/main_menu.c **** 					{
 835:.\src/main_menu.c **** 						//termine de enviar
 836:.\src/main_menu.c **** 						i = last_window;
 2804              		.loc 1 836 0
 2805 00c0 6B46     		mov	r3, sp	@ tmp191,
 2806 00c2 0E33     		add	r3, r3, #14	@ tmp191,
 2807 00c4 6A46     		mov	r2, sp	@ tmp192,
 2808 00c6 0D32     		add	r2, r2, #13	@ tmp192,
 2809 00c8 1278     		ldrb	r2, [r2]	@ tmp193, last_window
 2810 00ca 1A70     		strb	r2, [r3]	@ tmp193, i
 837:.\src/main_menu.c **** 						scroll2_state++;
 2811              		.loc 1 837 0
 2812 00cc 1A4B     		ldr	r3, .L219	@ tmp194,
 2813 00ce 1B78     		ldrb	r3, [r3]	@ scroll2_state.8, scroll2_state
 2814 00d0 0133     		add	r3, r3, #1	@ tmp195,
 2815 00d2 DAB2     		uxtb	r2, r3	@ scroll2_state.9, tmp195
 2816 00d4 184B     		ldr	r3, .L219	@ tmp196,
 2817 00d6 1A70     		strb	r2, [r3]	@ tmp197, scroll2_state
 2818              	.L212:
 825:.\src/main_menu.c **** 				for (i = scroll2_current_window; i < last_window; i++)
 2819              		.loc 1 825 0
 2820 00d8 6B46     		mov	r3, sp	@ tmp198,
 2821 00da 0E33     		add	r3, r3, #14	@ tmp198,
 2822 00dc 6A46     		mov	r2, sp	@ tmp199,
 2823 00de 0E32     		add	r2, r2, #14	@ tmp199,
 2824 00e0 1278     		ldrb	r2, [r2]	@ tmp200, i
 2825 00e2 0132     		add	r2, r2, #1	@ tmp201,
 2826 00e4 1A70     		strb	r2, [r3]	@ tmp202, i
 2827              	.L210:
 825:.\src/main_menu.c **** 				for (i = scroll2_current_window; i < last_window; i++)
 2828              		.loc 1 825 0 is_stmt 0 discriminator 1
 2829 00e6 6A46     		mov	r2, sp	@ tmp203,
 2830 00e8 0E32     		add	r2, r2, #14	@ tmp203,
 2831 00ea 6B46     		mov	r3, sp	@ tmp204,
 2832 00ec 0D33     		add	r3, r3, #13	@ tmp204,
 2833 00ee 1278     		ldrb	r2, [r2]	@ tmp205, i
 2834 00f0 1B78     		ldrb	r3, [r3]	@ tmp206, last_window
 2835 00f2 9A42     		cmp	r2, r3	@ tmp205, tmp206
 2836 00f4 BDD3     		bcc	.L215	@,
 838:.\src/main_menu.c **** 					}
 839:.\src/main_menu.c **** 				}
 840:.\src/main_menu.c **** 				scroll2_current_window++;
ARM GAS  C:\Users\Mariano\AppData\Local\Temp\ccX2jy0d.s 			page 67


 2837              		.loc 1 840 0 is_stmt 1
 2838 00f6 124B     		ldr	r3, .L219+8	@ tmp207,
 2839 00f8 1B78     		ldrb	r3, [r3]	@ scroll2_current_window.10, scroll2_current_window
 2840 00fa 0133     		add	r3, r3, #1	@ tmp208,
 2841 00fc DAB2     		uxtb	r2, r3	@ scroll2_current_window.11, tmp208
 2842 00fe 104B     		ldr	r3, .L219+8	@ tmp209,
 2843 0100 1A70     		strb	r2, [r3]	@ tmp210, scroll2_current_window
 841:.\src/main_menu.c **** 				scroll2_timer = 550;
 2844              		.loc 1 841 0
 2845 0102 104B     		ldr	r3, .L219+12	@ tmp211,
 2846 0104 104A     		ldr	r2, .L219+16	@ tmp212,
 2847 0106 1A80     		strh	r2, [r3]	@ tmp213, scroll2_timer
 842:.\src/main_menu.c **** 			}
 843:.\src/main_menu.c **** 			break;
 2848              		.loc 1 843 0
 2849 0108 0FE0     		b	.L218	@
 2850              	.L207:
 844:.\src/main_menu.c **** 
 845:.\src/main_menu.c **** 		case SCROLL_FINISH:
 846:.\src/main_menu.c **** 			resp = RESP_FINISH;
 2851              		.loc 1 846 0
 2852 010a 6B46     		mov	r3, sp	@ tmp214,
 2853 010c 0F33     		add	r3, r3, #15	@ tmp214,
 2854 010e 0A22     		mov	r2, #10	@ tmp215,
 2855 0110 1A70     		strb	r2, [r3]	@ tmp216, resp
 847:.\src/main_menu.c **** 			scroll2_state = SCROLL_INIT;
 2856              		.loc 1 847 0
 2857 0112 094B     		ldr	r3, .L219	@ tmp217,
 2858 0114 0022     		mov	r2, #0	@ tmp218,
 2859 0116 1A70     		strb	r2, [r3]	@ tmp219, scroll2_state
 848:.\src/main_menu.c **** 			break;
 2860              		.loc 1 848 0
 2861 0118 08E0     		b	.L208	@
 2862              	.L217:
 849:.\src/main_menu.c **** 
 850:.\src/main_menu.c **** 		default:
 851:.\src/main_menu.c **** 			resp = RESP_FINISH;
 2863              		.loc 1 851 0
 2864 011a 6B46     		mov	r3, sp	@ tmp220,
 2865 011c 0F33     		add	r3, r3, #15	@ tmp220,
 2866 011e 0A22     		mov	r2, #10	@ tmp221,
 2867 0120 1A70     		strb	r2, [r3]	@ tmp222, resp
 852:.\src/main_menu.c **** 			scroll2_state = SCROLL_INIT;
 2868              		.loc 1 852 0
 2869 0122 054B     		ldr	r3, .L219	@ tmp223,
 2870 0124 0022     		mov	r2, #0	@ tmp224,
 2871 0126 1A70     		strb	r2, [r3]	@ tmp225, scroll2_state
 853:.\src/main_menu.c **** 			break;
 2872              		.loc 1 853 0
 2873 0128 00E0     		b	.L208	@
 2874              	.L218:
 843:.\src/main_menu.c **** 			break;
 2875              		.loc 1 843 0
 2876 012a C046     		mov	r8, r8
 2877              	.L208:
 854:.\src/main_menu.c **** 	}
 855:.\src/main_menu.c **** 
ARM GAS  C:\Users\Mariano\AppData\Local\Temp\ccX2jy0d.s 			page 68


 856:.\src/main_menu.c **** 	return resp;
 2878              		.loc 1 856 0
 2879 012c 6B46     		mov	r3, sp	@ tmp226,
 2880 012e 0F33     		add	r3, r3, #15	@ tmp226,
 2881 0130 1B78     		ldrb	r3, [r3]	@ D.5425, resp
 857:.\src/main_menu.c **** }
 2882              		.loc 1 857 0
 2883 0132 181C     		mov	r0, r3	@, <retval>
 2884 0134 05B0     		add	sp, sp, #20	@,,
 2885              		@ sp needed for prologue	@
 2886 0136 00BD     		pop	{pc}
 2887              	.L220:
 2888              		.align	2
 2889              	.L219:
 2890 0138 00000000 		.word	scroll2_state
 2891 013c 00000000 		.word	scroll2_last_window
 2892 0140 00000000 		.word	scroll2_current_window
 2893 0144 00000000 		.word	scroll2_timer
 2894 0148 26020000 		.word	550
 2895              		.cfi_endproc
 2896              	.LFE10:
 2897              		.size	FuncScroll2, .-FuncScroll2
 2898              		.text
 2899              	.Letext0: