ARM GAS  C:\Users\Mariano\AppData\Local\Temp\ccKoDrvY.s 			page 1


   1              		.cpu cortex-m0
   2              		.fpu softvfp
   3              		.eabi_attribute 20, 1	@ Tag_ABI_FP_denormal
   4              		.eabi_attribute 21, 1	@ Tag_ABI_FP_exceptions
   5              		.eabi_attribute 23, 3	@ Tag_ABI_FP_number_model
   6              		.eabi_attribute 24, 1	@ Tag_ABI_align8_needed
   7              		.eabi_attribute 25, 1	@ Tag_ABI_align8_preserved
   8              		.eabi_attribute 26, 1	@ Tag_ABI_enum_size
   9              		.eabi_attribute 30, 6	@ Tag_ABI_optimization_goals
  10              		.eabi_attribute 34, 0	@ Tag_CPU_unaligned_access
  11              		.eabi_attribute 18, 4	@ Tag_ABI_PCS_wchar_t
  12              		.file	"networked.c"
  13              	@ GNU C (GNU Tools for ARM Embedded Processors) version 4.7.4 20130613 (release) [ARM/embedded-4_7-
  14              	@	compiled by GNU C version 4.2.1-sjlj (mingw32-2), GMP version 4.3.2, MPFR version 2.4.2, MPC vers
  15              	@ GGC heuristics: --param ggc-min-expand=100 --param ggc-min-heapsize=131072
  16              	@ options passed:  -I . -I .\src -I .\cmsis_boot -I .\cmsis_core
  17              	@ -I ..\STM32F0xx_StdPeriph_Lib_V1.3.1\Libraries\STM32F0xx_StdPeriph_Driver\inc
  18              	@ -I .\inc -I .\cmsis_boot -imultilib armv6-m
  19              	@ -iprefix c:\program files (x86)\gnu tools arm embedded\4.7 2013q2\bin\../lib/gcc/arm-none-eabi/4.
  20              	@ -isysroot c:\program files (x86)\gnu tools arm embedded\4.7 2013q2\bin\../arm-none-eabi
  21              	@ -MD .\src\networked.d -MF .dep\networked.o.d -MP -MQ .\src\networked.o
  22              	@ -D__USES_INITFINI__ -D RUN_FROM_FLASH=1 .\src\networked.c -mcpu=cortex-m0
  23              	@ -mthumb -auxbase-strip .\src\networked.o -g -gdwarf-2 -O0 -Wall
  24              	@ -fomit-frame-pointer -fdata-sections -ffunction-sections -fverbose-asm
  25              	@ options enabled:  -fauto-inc-dec -fbranch-count-reg -fcommon
  26              	@ -fdata-sections -fdebug-types-section -fdelete-null-pointer-checks
  27              	@ -fdwarf2-cfi-asm -fearly-inlining -feliminate-unused-debug-types
  28              	@ -ffunction-cse -ffunction-sections -fgcse-lm -fgnu-runtime -fident
  29              	@ -finline-atomics -fira-hoist-pressure -fira-share-save-slots
  30              	@ -fira-share-spill-slots -fivopts -fkeep-static-consts
  31              	@ -fleading-underscore -fmath-errno -fmerge-debug-strings
  32              	@ -fmove-loop-invariants -fomit-frame-pointer -fpeephole
  33              	@ -fprefetch-loop-arrays -freg-struct-return
  34              	@ -fsched-critical-path-heuristic -fsched-dep-count-heuristic
  35              	@ -fsched-group-heuristic -fsched-interblock -fsched-last-insn-heuristic
  36              	@ -fsched-rank-heuristic -fsched-spec -fsched-spec-insn-heuristic
  37              	@ -fsched-stalled-insns-dep -fshow-column -fsigned-zeros
  38              	@ -fsplit-ivs-in-unroller -fstrict-volatile-bitfields -ftrapping-math
  39              	@ -ftree-cselim -ftree-forwprop -ftree-loop-if-convert -ftree-loop-im
  40              	@ -ftree-loop-ivcanon -ftree-loop-optimize -ftree-parallelize-loops=
  41              	@ -ftree-phiprop -ftree-pta -ftree-reassoc -ftree-scev-cprop
  42              	@ -ftree-slp-vectorize -ftree-vect-loop-version -funit-at-a-time
  43              	@ -fverbose-asm -fzero-initialized-in-bss -mlittle-endian -msched-prolog
  44              	@ -mthumb -mvectorize-with-neon-quad
  45              	
  46              		.text
  47              	.Ltext0:
  48              		.cfi_sections	.debug_frame
  49              		.global	networked_state
  50              		.section	.bss.networked_state,"aw",%nobits
  51              		.type	networked_state, %object
  52              		.size	networked_state, 1
  53              	networked_state:
  54 0000 00       		.space	1
  55              		.global	networked_selections
  56              		.section	.bss.networked_selections,"aw",%nobits
  57              		.type	networked_selections, %object
ARM GAS  C:\Users\Mariano\AppData\Local\Temp\ccKoDrvY.s 			page 2


  58              		.size	networked_selections, 1
  59              	networked_selections:
  60 0000 00       		.space	1
  61              		.global	networked_ii
  62              		.section	.bss.networked_ii,"aw",%nobits
  63              		.align	1
  64              		.type	networked_ii, %object
  65              		.size	networked_ii, 2
  66              	networked_ii:
  67 0000 0000     		.space	2
  68              		.global	networked_menu_state
  69              		.section	.bss.networked_menu_state,"aw",%nobits
  70              		.type	networked_menu_state, %object
  71              		.size	networked_menu_state, 1
  72              	networked_menu_state:
  73 0000 00       		.space	1
  74              		.comm	NetworkedStruct_local,4,4
  75              		.global	networked_dim_last
  76              		.section	.bss.networked_dim_last,"aw",%nobits
  77              		.type	networked_dim_last, %object
  78              		.size	networked_dim_last, 1
  79              	networked_dim_last:
  80 0000 00       		.space	1
  81              		.global	networked_dim2_last
  82              		.section	.bss.networked_dim2_last,"aw",%nobits
  83              		.type	networked_dim2_last, %object
  84              		.size	networked_dim2_last, 1
  85              	networked_dim2_last:
  86 0000 00       		.space	1
  87              		.section	.rodata
  88              		.align	2
  89              	.LC5:
  90 0000 4E657477 		.ascii	"Networking Mode \000"
  90      6F726B69 
  90      6E67204D 
  90      6F646520 
  90      00
  91 0011 000000   		.align	2
  92              	.LC7:
  93 0014 4368616E 		.ascii	"Channel: %3d\000"
  93      6E656C3A 
  93      20253364 
  93      00
  94              		.global	__aeabi_uidiv
  95 0021 000000   		.align	2
  96              	.LC15:
  97 0024 25336400 		.ascii	"%3d\000"
  98              		.align	2
  99              	.LC17:
 100 0028 2500     		.ascii	"%\000"
 101 002a 0000     		.align	2
 102              	.LC20:
 103 002c 20202020 		.ascii	"            \000"
 103      20202020 
 103      20202020 
 103      00
 104 0039 000000   		.align	2
ARM GAS  C:\Users\Mariano\AppData\Local\Temp\ccKoDrvY.s 			page 3


 105              	.LC22:
 106 003c 4E657477 		.ascii	"Network Ch: %3d \000"
 106      6F726B20 
 106      43683A20 
 106      25336420 
 106      00
 107 004d 000000   		.align	2
 108              	.LC24:
 109 0050 536F6D65 		.ascii	"Something Select\000"
 109      7468696E 
 109      67205365 
 109      6C656374 
 109      00
 110 0061 000000   		.align	2
 111              	.LC26:
 112 0064 55706461 		.ascii	"Updating Values\000"
 112      74696E67 
 112      2056616C 
 112      75657300 
 113              		.align	2
 114              	.LC28:
 115 0074 77616974 		.ascii	"wait to free    \000"
 115      20746F20 
 115      66726565 
 115      20202020 
 115      00
 116              		.section	.text.FuncNetworked,"ax",%progbits
 117              		.align	2
 118              		.global	FuncNetworked
 119              		.code	16
 120              		.thumb_func
 121              		.type	FuncNetworked, %function
 122              	FuncNetworked:
 123              	.LFB20:
 124              		.file 1 ".\\src\\networked.c"
   1:.\src/networked.c **** /*
   2:.\src/networked.c ****  * networked.c
   3:.\src/networked.c ****  *
   4:.\src/networked.c ****  *  Created on: 21/03/2016
   5:.\src/networked.c ****  *      Author: Mariano
   6:.\src/networked.c ****  */
   7:.\src/networked.c **** 
   8:.\src/networked.c **** #include "networked.h"
   9:.\src/networked.c **** #include "lcd.h"
  10:.\src/networked.c **** #include "main_menu.h"
  11:.\src/networked.c **** #include "hard.h"
  12:.\src/networked.c **** #include "stm32f0xx.h"
  13:.\src/networked.c **** #include "stm32f0x_gpio.h"
  14:.\src/networked.c **** 
  15:.\src/networked.c **** #include <stdio.h>
  16:.\src/networked.c **** #include <string.h>
  17:.\src/networked.c **** 
  18:.\src/networked.c **** 
  19:.\src/networked.c **** /* Externals variables ---------------------------------------------------------*/
  20:.\src/networked.c **** //extern volatile unsigned short grouped_timer;
  21:.\src/networked.c **** //extern volatile unsigned short grouped_enable_menu_timer;
  22:.\src/networked.c **** extern Networked_Typedef NetworkedStruct_constant;
ARM GAS  C:\Users\Mariano\AppData\Local\Temp\ccKoDrvY.s 			page 4


  23:.\src/networked.c **** 
  24:.\src/networked.c **** extern volatile unsigned short standalone_timer;
  25:.\src/networked.c **** extern volatile unsigned short standalone_enable_menu_timer;
  26:.\src/networked.c **** 
  27:.\src/networked.c **** 
  28:.\src/networked.c **** #define networked_timer standalone_timer
  29:.\src/networked.c **** #define networked_enable_menu_timer standalone_enable_menu_timer
  30:.\src/networked.c **** 
  31:.\src/networked.c **** extern const char * s_blank_line [];
  32:.\src/networked.c **** 
  33:.\src/networked.c **** extern volatile unsigned char Packet_Detected_Flag;
  34:.\src/networked.c **** extern volatile unsigned short DMX_channel_selected;
  35:.\src/networked.c **** extern volatile unsigned char DMX_channel_quantity;
  36:.\src/networked.c **** 
  37:.\src/networked.c **** #define SIZEOF_DATA1	512
  38:.\src/networked.c **** extern volatile unsigned char data1[];
  39:.\src/networked.c **** extern volatile unsigned char data[];
  40:.\src/networked.c **** 
  41:.\src/networked.c **** /* Global variables ------------------------------------------------------------*/
  42:.\src/networked.c **** unsigned char networked_state = 0;			//TODO: esto puede compartir RAM con standalone
  43:.\src/networked.c **** unsigned char networked_selections = 0;
  44:.\src/networked.c **** unsigned short networked_ii = 0;
  45:.\src/networked.c **** 
  46:.\src/networked.c **** unsigned char networked_menu_state = 0;
  47:.\src/networked.c **** 
  48:.\src/networked.c **** 
  49:.\src/networked.c **** 
  50:.\src/networked.c **** 
  51:.\src/networked.c **** 
  52:.\src/networked.c **** Networked_Typedef NetworkedStruct_local;
  53:.\src/networked.c **** 
  54:.\src/networked.c **** #define grouped_dimming_top GroupedStruct_local.max_dimmer_value_dmx
  55:.\src/networked.c **** 
  56:.\src/networked.c **** unsigned char networked_dim_last = 0;
  57:.\src/networked.c **** unsigned char networked_dim2_last = 0;
  58:.\src/networked.c **** 
  59:.\src/networked.c **** 
  60:.\src/networked.c **** //-------- Functions -------------
  61:.\src/networked.c **** unsigned char FuncNetworked (unsigned char jump_menu)
  62:.\src/networked.c **** {
 125              		.loc 1 62 0
 126              		.cfi_startproc
 127 0000 10B5     		push	{r4, lr}	@
 128              	.LCFI0:
 129              		.cfi_def_cfa_offset 8
 130              		.cfi_offset 4, -8
 131              		.cfi_offset 14, -4
 132 0002 8AB0     		sub	sp, sp, #40	@,,
 133              	.LCFI1:
 134              		.cfi_def_cfa_offset 48
 135 0004 021C     		mov	r2, r0	@ tmp178, jump_menu
 136 0006 6B46     		mov	r3, sp	@ tmp179,
 137 0008 0733     		add	r3, r3, #7	@ tmp179,
 138 000a 1A70     		strb	r2, [r3]	@ tmp180, jump_menu
  63:.\src/networked.c **** 	unsigned char resp = RESP_CONTINUE;
 139              		.loc 1 63 0
 140 000c 6B46     		mov	r3, sp	@ tmp181,
ARM GAS  C:\Users\Mariano\AppData\Local\Temp\ccKoDrvY.s 			page 5


 141 000e 2733     		add	r3, r3, #39	@ tmp181,
 142 0010 0022     		mov	r2, #0	@ tmp182,
 143 0012 1A70     		strb	r2, [r3]	@ tmp183, resp
  64:.\src/networked.c **** 	unsigned char resp_down = RESP_CONTINUE;
 144              		.loc 1 64 0
 145 0014 6B46     		mov	r3, sp	@ tmp184,
 146 0016 2333     		add	r3, r3, #35	@ tmp184,
 147 0018 0022     		mov	r2, #0	@ tmp185,
 148 001a 1A70     		strb	r2, [r3]	@ tmp186, resp_down
  65:.\src/networked.c **** 	char s_lcd [20];
  66:.\src/networked.c **** 
  67:.\src/networked.c **** 	if (jump_menu == RESP_YES)
 149              		.loc 1 67 0
 150 001c 6B46     		mov	r3, sp	@ tmp187,
 151 001e 0733     		add	r3, r3, #7	@ tmp187,
 152 0020 1B78     		ldrb	r3, [r3]	@ tmp188, jump_menu
 153 0022 0B2B     		cmp	r3, #11	@ tmp188,
 154 0024 03D1     		bne	.L2	@,
  68:.\src/networked.c **** 		networked_enable_menu_timer = 0;	//no muestro el menu
 155              		.loc 1 68 0
 156 0026 CE4B     		ldr	r3, .L44	@ tmp189,
 157 0028 0022     		mov	r2, #0	@ tmp190,
 158 002a 1A80     		strh	r2, [r3]	@ tmp191, standalone_enable_menu_timer
 159 002c 07E0     		b	.L3	@
 160              	.L2:
  69:.\src/networked.c **** 	else if (jump_menu == RESP_NO)
 161              		.loc 1 69 0
 162 002e 6B46     		mov	r3, sp	@ tmp192,
 163 0030 0733     		add	r3, r3, #7	@ tmp192,
 164 0032 1B78     		ldrb	r3, [r3]	@ tmp193, jump_menu
 165 0034 0C2B     		cmp	r3, #12	@ tmp193,
 166 0036 02D1     		bne	.L3	@,
  70:.\src/networked.c **** 		networked_enable_menu_timer = 30000;	//muestro el menu durante 30 segs
 167              		.loc 1 70 0
 168 0038 C94B     		ldr	r3, .L44	@ tmp194,
 169 003a CA4A     		ldr	r2, .L44+4	@ tmp195,
 170 003c 1A80     		strh	r2, [r3]	@ tmp196, standalone_enable_menu_timer
 171              	.L3:
  71:.\src/networked.c **** 
  72:.\src/networked.c **** 
  73:.\src/networked.c **** 	switch (networked_state)
 172              		.loc 1 73 0
 173 003e CA4B     		ldr	r3, .L44+8	@ tmp197,
 174 0040 1B78     		ldrb	r3, [r3]	@ networked_state.1, networked_state
 175 0042 012B     		cmp	r3, #1	@ D.5831,
 176 0044 57D0     		beq	.L6	@,
 177 0046 02DC     		bgt	.L9	@,
 178 0048 002B     		cmp	r3, #0	@ D.5831,
 179 004a 05D0     		beq	.L5	@,
 180 004c F0E0     		b	.L4	@
 181              	.L9:
 182 004e 022B     		cmp	r3, #2	@ D.5831,
 183 0050 1CD0     		beq	.L7	@,
 184 0052 142B     		cmp	r3, #20	@ D.5831,
 185 0054 37D0     		beq	.L8	@,
 186 0056 EBE0     		b	.L4	@
 187              	.L5:
ARM GAS  C:\Users\Mariano\AppData\Local\Temp\ccKoDrvY.s 			page 6


  74:.\src/networked.c **** 	{
  75:.\src/networked.c **** 		case NETWORKED_INIT:
  76:.\src/networked.c **** 			//un segundo la pantalla principal
  77:.\src/networked.c **** 			//networked_timer = 1000;
  78:.\src/networked.c **** 			//TODO: leer estructura y verificar funcion cargar valore sdefualt o ultimos seleccioneados
  79:.\src/networked.c **** 			memcpy(&NetworkedStruct_local, &NetworkedStruct_constant, sizeof(NetworkedStruct_local));
 188              		.loc 1 79 0
 189 0058 C44A     		ldr	r2, .L44+12	@ tmp198,
 190 005a C54B     		ldr	r3, .L44+16	@ tmp199,
 191 005c 111C     		mov	r1, r2	@ tmp200, tmp198
 192 005e 1A1C     		mov	r2, r3	@ tmp201, tmp199
 193 0060 0423     		mov	r3, #4	@ tmp202,
 194 0062 081C     		mov	r0, r1	@, tmp200
 195 0064 111C     		mov	r1, r2	@, tmp201
 196 0066 1A1C     		mov	r2, r3	@, tmp202
 197 0068 FFF7FEFF 		bl	memcpy	@
  80:.\src/networked.c **** 
  81:.\src/networked.c **** 			if (!networked_enable_menu_timer)	//muestro configuracion inicial
 198              		.loc 1 81 0
 199 006c BC4B     		ldr	r3, .L44	@ tmp205,
 200 006e 1B88     		ldrh	r3, [r3]	@ tmp206, standalone_enable_menu_timer
 201 0070 9BB2     		uxth	r3, r3	@ standalone_enable_menu_timer.2, tmp206
 202 0072 002B     		cmp	r3, #0	@ standalone_enable_menu_timer.2,
 203 0074 06D1     		bne	.L10	@,
  82:.\src/networked.c **** 			{
  83:.\src/networked.c **** 				networked_selections = MENU_OFF;
 204              		.loc 1 83 0
 205 0076 BF4B     		ldr	r3, .L44+20	@ tmp207,
 206 0078 0222     		mov	r2, #2	@ tmp208,
 207 007a 1A70     		strb	r2, [r3]	@ tmp209, networked_selections
  84:.\src/networked.c **** 				networked_state = NETWORKED_SHOW_CONF;
 208              		.loc 1 84 0
 209 007c BA4B     		ldr	r3, .L44+8	@ tmp210,
 210 007e 0222     		mov	r2, #2	@ tmp211,
 211 0080 1A70     		strb	r2, [r3]	@ tmp212, networked_state
  85:.\src/networked.c **** 			}
  86:.\src/networked.c **** 			else
  87:.\src/networked.c **** 				networked_state = NETWORKED_UPDATE;
  88:.\src/networked.c **** 
  89:.\src/networked.c **** 			break;
 212              		.loc 1 89 0
 213 0082 DCE0     		b	.L12	@
 214              	.L10:
  87:.\src/networked.c **** 				networked_state = NETWORKED_UPDATE;
 215              		.loc 1 87 0
 216 0084 B84B     		ldr	r3, .L44+8	@ tmp213,
 217 0086 1422     		mov	r2, #20	@ tmp214,
 218 0088 1A70     		strb	r2, [r3]	@ tmp215, networked_state
 219              		.loc 1 89 0
 220 008a D8E0     		b	.L12	@
 221              	.L7:
  90:.\src/networked.c **** 
  91:.\src/networked.c **** 		case NETWORKED_SHOW_CONF:
  92:.\src/networked.c **** 			if (networked_selections == MENU_OFF)
 222              		.loc 1 92 0
 223 008c B94B     		ldr	r3, .L44+20	@ tmp216,
 224 008e 1B78     		ldrb	r3, [r3]	@ networked_selections.3, networked_selections
ARM GAS  C:\Users\Mariano\AppData\Local\Temp\ccKoDrvY.s 			page 7


 225 0090 022B     		cmp	r3, #2	@ networked_selections.3,
 226 0092 00D0     		beq	.LCB100	@
 227 0094 D0E0     		b	.L38	@long jump	@
 228              	.LCB100:
  93:.\src/networked.c **** 			{
  94:.\src/networked.c **** 				LCD_1ER_RENGLON;
 229              		.loc 1 94 0
 230 0096 0020     		mov	r0, #0	@,
 231 0098 FFF7FEFF 		bl	Lcd_SetDDRAM	@
  95:.\src/networked.c **** 				LCDTransmitStr((const char *) "Networking Mode ");
 232              		.loc 1 95 0
 233 009c B64B     		ldr	r3, .L44+24	@ tmp217,
 234 009e 181C     		mov	r0, r3	@, tmp217
 235 00a0 FFF7FEFF 		bl	LCDTransmitStr	@
  96:.\src/networked.c **** 				LCD_2DO_RENGLON;
 236              		.loc 1 96 0
 237 00a4 4020     		mov	r0, #64	@,
 238 00a6 FFF7FEFF 		bl	Lcd_SetDDRAM	@
  97:.\src/networked.c **** 				sprintf(s_lcd, "Channel: %3d", NetworkedStruct_local.networked_dmx_channel);
 239              		.loc 1 97 0
 240 00aa B04B     		ldr	r3, .L44+12	@ tmp218,
 241 00ac 1B88     		ldrh	r3, [r3]	@ D.5839,
 242 00ae 03A9     		add	r1, sp, #12	@ tmp219,,
 243 00b0 B24A     		ldr	r2, .L44+28	@ tmp220,
 244 00b2 081C     		mov	r0, r1	@, tmp219
 245 00b4 111C     		mov	r1, r2	@, tmp220
 246 00b6 1A1C     		mov	r2, r3	@, D.5840
 247 00b8 FFF7FEFF 		bl	sprintf	@
  98:.\src/networked.c **** 				LCDTransmitStr(s_lcd);
 248              		.loc 1 98 0
 249 00bc 03AB     		add	r3, sp, #12	@ tmp221,,
 250 00be 181C     		mov	r0, r3	@, tmp221
 251 00c0 FFF7FEFF 		bl	LCDTransmitStr	@
  99:.\src/networked.c **** 			}
 100:.\src/networked.c **** 			break;
 252              		.loc 1 100 0
 253 00c4 B8E0     		b	.L38	@
 254              	.L8:
 101:.\src/networked.c **** 
 102:.\src/networked.c **** 		case NETWORKED_UPDATE:
 103:.\src/networked.c **** 			//reviso si es master o slave
 104:.\src/networked.c **** 			EXTIOn ();
 255              		.loc 1 104 0
 256 00c6 FFF7FEFF 		bl	EXTIOn	@
 105:.\src/networked.c **** 			DMX_channel_quantity = 1;
 257              		.loc 1 105 0
 258 00ca AD4B     		ldr	r3, .L44+32	@ tmp222,
 259 00cc 0122     		mov	r2, #1	@ tmp223,
 260 00ce 1A70     		strb	r2, [r3]	@ tmp224, DMX_channel_quantity
 106:.\src/networked.c **** 			DMX_channel_selected = NetworkedStruct_local.networked_dmx_channel;
 261              		.loc 1 106 0
 262 00d0 A64B     		ldr	r3, .L44+12	@ tmp225,
 263 00d2 1A88     		ldrh	r2, [r3]	@ DMX_channel_selected.4,
 264 00d4 AB4B     		ldr	r3, .L44+36	@ tmp226,
 265 00d6 1A80     		strh	r2, [r3]	@ tmp227, DMX_channel_selected
 107:.\src/networked.c **** 			if (networked_selections == MENU_OFF)
 266              		.loc 1 107 0
ARM GAS  C:\Users\Mariano\AppData\Local\Temp\ccKoDrvY.s 			page 8


 267 00d8 A64B     		ldr	r3, .L44+20	@ tmp228,
 268 00da 1B78     		ldrb	r3, [r3]	@ networked_selections.5, networked_selections
 269 00dc 022B     		cmp	r3, #2	@ networked_selections.5,
 270 00de 06D1     		bne	.L14	@,
 108:.\src/networked.c **** 			{
 109:.\src/networked.c **** 				LCD_1ER_RENGLON;
 271              		.loc 1 109 0
 272 00e0 0020     		mov	r0, #0	@,
 273 00e2 FFF7FEFF 		bl	Lcd_SetDDRAM	@
 110:.\src/networked.c **** 				LCDTransmitStr((const char *) "Networking Mode ");
 274              		.loc 1 110 0
 275 00e6 A44B     		ldr	r3, .L44+24	@ tmp229,
 276 00e8 181C     		mov	r0, r3	@, tmp229
 277 00ea FFF7FEFF 		bl	LCDTransmitStr	@
 278              	.L14:
 111:.\src/networked.c **** 			}
 112:.\src/networked.c **** 			networked_state = NETWORKED_WORKING;
 279              		.loc 1 112 0
 280 00ee 9E4B     		ldr	r3, .L44+8	@ tmp230,
 281 00f0 0122     		mov	r2, #1	@ tmp231,
 282 00f2 1A70     		strb	r2, [r3]	@ tmp232, networked_state
 113:.\src/networked.c **** 			break;
 283              		.loc 1 113 0
 284 00f4 A3E0     		b	.L12	@
 285              	.L6:
 114:.\src/networked.c **** 
 115:.\src/networked.c **** 		case NETWORKED_WORKING:
 116:.\src/networked.c **** 			//me quedo aca hasta que me saquen por menu
 117:.\src/networked.c **** 
 118:.\src/networked.c **** 			if (Packet_Detected_Flag)
 286              		.loc 1 118 0
 287 00f6 A44B     		ldr	r3, .L44+40	@ tmp233,
 288 00f8 1B78     		ldrb	r3, [r3]	@ tmp234, Packet_Detected_Flag
 289 00fa DBB2     		uxtb	r3, r3	@ Packet_Detected_Flag.6, tmp234
 290 00fc 002B     		cmp	r3, #0	@ Packet_Detected_Flag.6,
 291 00fe 0ED0     		beq	.L15	@,
 119:.\src/networked.c **** 			{
 120:.\src/networked.c **** 				//llego un paquete DMX
 121:.\src/networked.c **** 				Packet_Detected_Flag = 0;
 292              		.loc 1 121 0
 293 0100 A14B     		ldr	r3, .L44+40	@ tmp235,
 294 0102 0022     		mov	r2, #0	@ tmp236,
 295 0104 1A70     		strb	r2, [r3]	@ tmp237, Packet_Detected_Flag
 122:.\src/networked.c **** 
 123:.\src/networked.c **** 				//en data tengo la info
 124:.\src/networked.c **** 				Update_TIM3_CH1 (data[0]);
 296              		.loc 1 124 0
 297 0106 A14B     		ldr	r3, .L44+44	@ tmp238,
 298 0108 1B78     		ldrb	r3, [r3]	@ tmp239,
 299 010a DBB2     		uxtb	r3, r3	@ D.5848, tmp239
 300 010c 181C     		mov	r0, r3	@, D.5849
 301 010e FFF7FEFF 		bl	Update_TIM3_CH1	@
 125:.\src/networked.c **** 				networked_ii = data[0];
 302              		.loc 1 125 0
 303 0112 9E4B     		ldr	r3, .L44+44	@ tmp240,
 304 0114 1B78     		ldrb	r3, [r3]	@ tmp241,
 305 0116 DBB2     		uxtb	r3, r3	@ D.5850, tmp241
ARM GAS  C:\Users\Mariano\AppData\Local\Temp\ccKoDrvY.s 			page 9


 306 0118 1A1C     		mov	r2, r3	@ networked_ii.7, D.5850
 307 011a 9D4B     		ldr	r3, .L44+48	@ tmp242,
 308 011c 1A80     		strh	r2, [r3]	@ tmp243, networked_ii
 309              	.L15:
 126:.\src/networked.c **** 			}
 127:.\src/networked.c **** 
 128:.\src/networked.c **** 
 129:.\src/networked.c **** 			if (networked_ii > 10)
 310              		.loc 1 129 0
 311 011e 9C4B     		ldr	r3, .L44+48	@ tmp244,
 312 0120 1B88     		ldrh	r3, [r3]	@ networked_ii.8, networked_ii
 313 0122 0A2B     		cmp	r3, #10	@ networked_ii.8,
 314 0124 05D9     		bls	.L16	@,
 130:.\src/networked.c **** 				RELAY_ON;
 315              		.loc 1 130 0
 316 0126 9023     		mov	r3, #144	@ tmp386,
 317 0128 DB05     		lsl	r3, r3, #23	@ D.5855, tmp386,
 318 012a 8022     		mov	r2, #128	@ tmp387,
 319 012c 1201     		lsl	r2, r2, #4	@ tmp245, tmp387,
 320 012e 9A61     		str	r2, [r3, #24]	@ tmp245, D.5855_21->BSRR
 321 0130 08E0     		b	.L17	@
 322              	.L16:
 131:.\src/networked.c **** 			else if (networked_ii < 5)
 323              		.loc 1 131 0
 324 0132 974B     		ldr	r3, .L44+48	@ tmp246,
 325 0134 1B88     		ldrh	r3, [r3]	@ networked_ii.9, networked_ii
 326 0136 042B     		cmp	r3, #4	@ networked_ii.9,
 327 0138 04D8     		bhi	.L17	@,
 132:.\src/networked.c **** 				RELAY_OFF;
 328              		.loc 1 132 0
 329 013a 9023     		mov	r3, #144	@ tmp384,
 330 013c DB05     		lsl	r3, r3, #23	@ D.5860, tmp384,
 331 013e 8022     		mov	r2, #128	@ tmp385,
 332 0140 1205     		lsl	r2, r2, #20	@ tmp247, tmp385,
 333 0142 9A61     		str	r2, [r3, #24]	@ tmp247, D.5860_23->BSRR
 334              	.L17:
 133:.\src/networked.c **** 
 134:.\src/networked.c **** 			if (networked_selections == MENU_OFF)
 335              		.loc 1 134 0
 336 0144 8B4B     		ldr	r3, .L44+20	@ tmp248,
 337 0146 1B78     		ldrb	r3, [r3]	@ networked_selections.10, networked_selections
 338 0148 022B     		cmp	r3, #2	@ networked_selections.10,
 339 014a 00D0     		beq	.LCB197	@
 340 014c 76E0     		b	.L39	@long jump	@
 341              	.LCB197:
 135:.\src/networked.c **** 			{
 136:.\src/networked.c **** 				if (networked_dim_last != networked_ii)
 342              		.loc 1 136 0
 343 014e 914B     		ldr	r3, .L44+52	@ tmp249,
 344 0150 1B78     		ldrb	r3, [r3]	@ networked_dim_last.11, networked_dim_last
 345 0152 1A1C     		mov	r2, r3	@ D.5865, networked_dim_last.11
 346 0154 8E4B     		ldr	r3, .L44+48	@ tmp250,
 347 0156 1B88     		ldrh	r3, [r3]	@ networked_ii.12, networked_ii
 348 0158 9A42     		cmp	r2, r3	@ D.5865, networked_ii.12
 349 015a 00D1     		bne	.LCB204	@
 350 015c 6EE0     		b	.L39	@long jump	@
 351              	.LCB204:
ARM GAS  C:\Users\Mariano\AppData\Local\Temp\ccKoDrvY.s 			page 10


 352              	.LBB2:
 137:.\src/networked.c **** 				{
 138:.\src/networked.c **** 					unsigned char i;
 139:.\src/networked.c **** 					unsigned short ii;
 140:.\src/networked.c **** 					//char s_lcd [20];
 141:.\src/networked.c **** 
 142:.\src/networked.c **** 					networked_dim_last = networked_ii;
 353              		.loc 1 142 0
 354 015e 8C4B     		ldr	r3, .L44+48	@ tmp251,
 355 0160 1B88     		ldrh	r3, [r3]	@ networked_ii.13, networked_ii
 356 0162 DAB2     		uxtb	r2, r3	@ networked_dim_last.14, networked_ii.13
 357 0164 8B4B     		ldr	r3, .L44+52	@ tmp252,
 358 0166 1A70     		strb	r2, [r3]	@ tmp253, networked_dim_last
 143:.\src/networked.c **** 
 144:.\src/networked.c **** 					ii = networked_dim_last * 100;
 359              		.loc 1 144 0
 360 0168 8A4B     		ldr	r3, .L44+52	@ tmp254,
 361 016a 1B78     		ldrb	r3, [r3]	@ networked_dim_last.15, networked_dim_last
 362 016c 1A1C     		mov	r2, r3	@ D.5872, networked_dim_last.15
 363 016e 09AB     		add	r3, sp, #36	@ tmp255,,
 364 0170 6421     		mov	r1, #100	@ tmp257,
 365 0172 4A43     		mul	r2, r1	@ tmp256, tmp257
 366 0174 1A80     		strh	r2, [r3]	@ tmp258, ii
 145:.\src/networked.c **** 					ii = ii / 255;
 367              		.loc 1 145 0
 368 0176 09AC     		add	r4, sp, #36	@ tmp259,,
 369 0178 09AB     		add	r3, sp, #36	@ tmp260,,
 370 017a 1B88     		ldrh	r3, [r3]	@ tmp262, ii
 371 017c 181C     		mov	r0, r3	@, tmp262
 372 017e FF21     		mov	r1, #255	@,
 373 0180 FFF7FEFF 		bl	__aeabi_uidiv	@
 374 0184 031C     		mov	r3, r0	@ tmp265,
 375 0186 2380     		strh	r3, [r4]	@ tmp266, ii
 146:.\src/networked.c **** 					if (ii > 100)
 376              		.loc 1 146 0
 377 0188 09AB     		add	r3, sp, #36	@ tmp267,,
 378 018a 1B88     		ldrh	r3, [r3]	@ tmp268, ii
 379 018c 642B     		cmp	r3, #100	@ tmp268,
 380 018e 02D9     		bls	.L19	@,
 147:.\src/networked.c **** 						ii = 100;
 381              		.loc 1 147 0
 382 0190 09AB     		add	r3, sp, #36	@ tmp269,,
 383 0192 6422     		mov	r2, #100	@ tmp270,
 384 0194 1A80     		strh	r2, [r3]	@ tmp271, ii
 385              	.L19:
 148:.\src/networked.c **** 
 149:.\src/networked.c **** 					LCD_2DO_RENGLON;
 386              		.loc 1 149 0
 387 0196 4020     		mov	r0, #64	@,
 388 0198 FFF7FEFF 		bl	Lcd_SetDDRAM	@
 150:.\src/networked.c **** 					Lcd_SetDDRAM(0x40 + 12);
 389              		.loc 1 150 0
 390 019c 4C20     		mov	r0, #76	@,
 391 019e FFF7FEFF 		bl	Lcd_SetDDRAM	@
 151:.\src/networked.c **** 					sprintf(s_lcd, "%3d", ii);
 392              		.loc 1 151 0
 393 01a2 09AB     		add	r3, sp, #36	@ tmp272,,
ARM GAS  C:\Users\Mariano\AppData\Local\Temp\ccKoDrvY.s 			page 11


 394 01a4 1B88     		ldrh	r3, [r3]	@ D.5875, ii
 395 01a6 03A9     		add	r1, sp, #12	@ tmp273,,
 396 01a8 7B4A     		ldr	r2, .L44+56	@ tmp274,
 397 01aa 081C     		mov	r0, r1	@, tmp273
 398 01ac 111C     		mov	r1, r2	@, tmp274
 399 01ae 1A1C     		mov	r2, r3	@, D.5875
 400 01b0 FFF7FEFF 		bl	sprintf	@
 152:.\src/networked.c **** 					LCDTransmitStr(s_lcd);
 401              		.loc 1 152 0
 402 01b4 03AB     		add	r3, sp, #12	@ tmp275,,
 403 01b6 181C     		mov	r0, r3	@, tmp275
 404 01b8 FFF7FEFF 		bl	LCDTransmitStr	@
 153:.\src/networked.c **** 					LCDTransmitStr("%");
 405              		.loc 1 153 0
 406 01bc 774B     		ldr	r3, .L44+60	@ tmp276,
 407 01be 181C     		mov	r0, r3	@, tmp276
 408 01c0 FFF7FEFF 		bl	LCDTransmitStr	@
 154:.\src/networked.c **** 
 155:.\src/networked.c **** 					ii = ii / 10;
 409              		.loc 1 155 0
 410 01c4 09AC     		add	r4, sp, #36	@ tmp277,,
 411 01c6 09AB     		add	r3, sp, #36	@ tmp278,,
 412 01c8 1B88     		ldrh	r3, [r3]	@ tmp280, ii
 413 01ca 181C     		mov	r0, r3	@, tmp280
 414 01cc 0A21     		mov	r1, #10	@,
 415 01ce FFF7FEFF 		bl	__aeabi_uidiv	@
 416 01d2 031C     		mov	r3, r0	@ tmp283,
 417 01d4 2380     		strh	r3, [r4]	@ tmp284, ii
 156:.\src/networked.c **** 					if (networked_dim2_last != ii)
 418              		.loc 1 156 0
 419 01d6 724B     		ldr	r3, .L44+64	@ tmp285,
 420 01d8 1B78     		ldrb	r3, [r3]	@ networked_dim2_last.16, networked_dim2_last
 421 01da 09AA     		add	r2, sp, #36	@ tmp286,,
 422 01dc 1288     		ldrh	r2, [r2]	@ tmp287, ii
 423 01de 9A42     		cmp	r2, r3	@ tmp287, D.5877
 424 01e0 2CD0     		beq	.L39	@,
 157:.\src/networked.c **** 					{
 158:.\src/networked.c **** 						networked_dim2_last = ii;
 425              		.loc 1 158 0
 426 01e2 09AB     		add	r3, sp, #36	@ tmp288,,
 427 01e4 1B88     		ldrh	r3, [r3]	@ tmp290, ii
 428 01e6 DAB2     		uxtb	r2, r3	@ networked_dim2_last.17, tmp289
 429 01e8 6D4B     		ldr	r3, .L44+64	@ tmp291,
 430 01ea 1A70     		strb	r2, [r3]	@ tmp292, networked_dim2_last
 159:.\src/networked.c **** 						LCD_2DO_RENGLON;
 431              		.loc 1 159 0
 432 01ec 4020     		mov	r0, #64	@,
 433 01ee FFF7FEFF 		bl	Lcd_SetDDRAM	@
 160:.\src/networked.c **** 						LCDTransmitStr((const char *) "            ");
 434              		.loc 1 160 0
 435 01f2 6C4B     		ldr	r3, .L44+68	@ tmp293,
 436 01f4 181C     		mov	r0, r3	@, tmp293
 437 01f6 FFF7FEFF 		bl	LCDTransmitStr	@
 161:.\src/networked.c **** 						LCD_2DO_RENGLON;
 438              		.loc 1 161 0
 439 01fa 4020     		mov	r0, #64	@,
 440 01fc FFF7FEFF 		bl	Lcd_SetDDRAM	@
ARM GAS  C:\Users\Mariano\AppData\Local\Temp\ccKoDrvY.s 			page 12


 162:.\src/networked.c **** 						for (i = 0; i < ii; i++)
 441              		.loc 1 162 0
 442 0200 6B46     		mov	r3, sp	@ tmp294,
 443 0202 2633     		add	r3, r3, #38	@ tmp294,
 444 0204 0022     		mov	r2, #0	@ tmp295,
 445 0206 1A70     		strb	r2, [r3]	@ tmp296, i
 446 0208 09E0     		b	.L20	@
 447              	.L21:
 163:.\src/networked.c **** 						{
 164:.\src/networked.c **** 							LCDStartTransmit(0xff);
 448              		.loc 1 164 0 discriminator 2
 449 020a FF20     		mov	r0, #255	@,
 450 020c FFF7FEFF 		bl	LCDStartTransmit	@
 162:.\src/networked.c **** 						for (i = 0; i < ii; i++)
 451              		.loc 1 162 0 discriminator 2
 452 0210 6B46     		mov	r3, sp	@ tmp297,
 453 0212 2633     		add	r3, r3, #38	@ tmp297,
 454 0214 6A46     		mov	r2, sp	@ tmp298,
 455 0216 2632     		add	r2, r2, #38	@ tmp298,
 456 0218 1278     		ldrb	r2, [r2]	@ tmp299, i
 457 021a 0132     		add	r2, r2, #1	@ tmp300,
 458 021c 1A70     		strb	r2, [r3]	@ tmp301, i
 459              	.L20:
 162:.\src/networked.c **** 						for (i = 0; i < ii; i++)
 460              		.loc 1 162 0 is_stmt 0 discriminator 1
 461 021e 6B46     		mov	r3, sp	@ tmp302,
 462 0220 2633     		add	r3, r3, #38	@ tmp302,
 463 0222 1B78     		ldrb	r3, [r3]	@ tmp304, i
 464 0224 9BB2     		uxth	r3, r3	@ D.5881, tmp303
 465 0226 09AA     		add	r2, sp, #36	@ tmp305,,
 466 0228 1288     		ldrh	r2, [r2]	@ tmp306, ii
 467 022a 9A42     		cmp	r2, r3	@ tmp306, D.5881
 468 022c EDD8     		bhi	.L21	@,
 469              	.LBE2:
 165:.\src/networked.c **** 						}
 166:.\src/networked.c **** 					}
 167:.\src/networked.c **** 				}
 168:.\src/networked.c **** 			}
 169:.\src/networked.c **** 			break;
 470              		.loc 1 169 0 is_stmt 1
 471 022e 05E0     		b	.L39	@
 472              	.L4:
 170:.\src/networked.c **** 
 171:.\src/networked.c **** 		default:
 172:.\src/networked.c **** 			networked_state = NETWORKED_INIT;
 473              		.loc 1 172 0
 474 0230 4D4B     		ldr	r3, .L44+8	@ tmp307,
 475 0232 0022     		mov	r2, #0	@ tmp308,
 476 0234 1A70     		strb	r2, [r3]	@ tmp309, networked_state
 173:.\src/networked.c **** 			break;
 477              		.loc 1 173 0
 478 0236 02E0     		b	.L12	@
 479              	.L38:
 100:.\src/networked.c **** 			break;
 480              		.loc 1 100 0
 481 0238 C046     		mov	r8, r8
 482 023a 00E0     		b	.L12	@
ARM GAS  C:\Users\Mariano\AppData\Local\Temp\ccKoDrvY.s 			page 13


 483              	.L39:
 169:.\src/networked.c **** 			break;
 484              		.loc 1 169 0
 485 023c C046     		mov	r8, r8
 486              	.L12:
 174:.\src/networked.c **** 	}
 175:.\src/networked.c **** 
 176:.\src/networked.c **** 	//veo el menu solo si alguien toca los botones o timeout
 177:.\src/networked.c **** 	switch (networked_selections)
 487              		.loc 1 177 0
 488 023e 4D4B     		ldr	r3, .L44+20	@ tmp310,
 489 0240 1B78     		ldrb	r3, [r3]	@ networked_selections.18, networked_selections
 490 0242 012B     		cmp	r3, #1	@ D.5883,
 491 0244 3AD0     		beq	.L24	@,
 492 0246 02DC     		bgt	.L27	@,
 493 0248 002B     		cmp	r3, #0	@ D.5883,
 494 024a 05D0     		beq	.L23	@,
 495 024c 82E0     		b	.L22	@
 496              	.L27:
 497 024e 022B     		cmp	r3, #2	@ D.5883,
 498 0250 4DD0     		beq	.L25	@,
 499 0252 032B     		cmp	r3, #3	@ D.5883,
 500 0254 6DD0     		beq	.L26	@,
 501 0256 7DE0     		b	.L22	@
 502              	.L23:
 178:.\src/networked.c **** 	{
 179:.\src/networked.c **** 		case MENU_ON:
 180:.\src/networked.c **** 			//estado normal
 181:.\src/networked.c **** 			resp_down = MenuNetworked();
 503              		.loc 1 181 0
 504 0258 6C46     		mov	r4, sp	@ tmp311,
 505 025a 2334     		add	r4, r4, #35	@ tmp311,
 506 025c FFF7FEFF 		bl	MenuNetworked	@
 507 0260 031C     		mov	r3, r0	@ tmp312,
 508 0262 2370     		strb	r3, [r4]	@ tmp314, resp_down
 182:.\src/networked.c **** 
 183:.\src/networked.c **** 			if (resp_down == RESP_WORKING)	//alguien esta tratando de seleccionar algo, le doy tiempo
 509              		.loc 1 183 0
 510 0264 6B46     		mov	r3, sp	@ tmp315,
 511 0266 2333     		add	r3, r3, #35	@ tmp315,
 512 0268 1B78     		ldrb	r3, [r3]	@ tmp316, resp_down
 513 026a 042B     		cmp	r3, #4	@ tmp316,
 514 026c 02D1     		bne	.L28	@,
 184:.\src/networked.c **** 				networked_enable_menu_timer = 30000;
 515              		.loc 1 184 0
 516 026e 3C4B     		ldr	r3, .L44	@ tmp317,
 517 0270 3C4A     		ldr	r2, .L44+4	@ tmp318,
 518 0272 1A80     		strh	r2, [r3]	@ tmp319, standalone_enable_menu_timer
 519              	.L28:
 185:.\src/networked.c **** 
 186:.\src/networked.c **** 			if (resp_down == RESP_SELECTED)	//se selecciono algo
 520              		.loc 1 186 0
 521 0274 6B46     		mov	r3, sp	@ tmp320,
 522 0276 2333     		add	r3, r3, #35	@ tmp320,
 523 0278 1B78     		ldrb	r3, [r3]	@ tmp321, resp_down
 524 027a 012B     		cmp	r3, #1	@ tmp321,
 525 027c 05D1     		bne	.L29	@,
ARM GAS  C:\Users\Mariano\AppData\Local\Temp\ccKoDrvY.s 			page 14


 187:.\src/networked.c **** 			{
 188:.\src/networked.c **** 				networked_enable_menu_timer = 30000;
 526              		.loc 1 188 0
 527 027e 384B     		ldr	r3, .L44	@ tmp322,
 528 0280 384A     		ldr	r2, .L44+4	@ tmp323,
 529 0282 1A80     		strh	r2, [r3]	@ tmp324, standalone_enable_menu_timer
 189:.\src/networked.c **** 				networked_selections = MENU_SELECTED;
 530              		.loc 1 189 0
 531 0284 3B4B     		ldr	r3, .L44+20	@ tmp325,
 532 0286 0122     		mov	r2, #1	@ tmp326,
 533 0288 1A70     		strb	r2, [r3]	@ tmp327, networked_selections
 534              	.L29:
 190:.\src/networked.c **** 			}
 191:.\src/networked.c **** 
 192:.\src/networked.c **** 			if (!networked_enable_menu_timer)	//agoto el timer
 535              		.loc 1 192 0
 536 028a 354B     		ldr	r3, .L44	@ tmp328,
 537 028c 1B88     		ldrh	r3, [r3]	@ tmp329, standalone_enable_menu_timer
 538 028e 9BB2     		uxth	r3, r3	@ standalone_enable_menu_timer.19, tmp329
 539 0290 002B     		cmp	r3, #0	@ standalone_enable_menu_timer.19,
 540 0292 63D1     		bne	.L40	@,
 193:.\src/networked.c **** 			{
 194:.\src/networked.c **** 				LCD_1ER_RENGLON;
 541              		.loc 1 194 0
 542 0294 0020     		mov	r0, #0	@,
 543 0296 FFF7FEFF 		bl	Lcd_SetDDRAM	@
 195:.\src/networked.c **** 				sprintf(s_lcd, "Network Ch: %3d ", NetworkedStruct_local.networked_dmx_channel);
 544              		.loc 1 195 0
 545 029a 344B     		ldr	r3, .L44+12	@ tmp330,
 546 029c 1B88     		ldrh	r3, [r3]	@ D.5891,
 547 029e 03A9     		add	r1, sp, #12	@ tmp331,,
 548 02a0 414A     		ldr	r2, .L44+72	@ tmp332,
 549 02a2 081C     		mov	r0, r1	@, tmp331
 550 02a4 111C     		mov	r1, r2	@, tmp332
 551 02a6 1A1C     		mov	r2, r3	@, D.5892
 552 02a8 FFF7FEFF 		bl	sprintf	@
 196:.\src/networked.c **** 				LCDTransmitStr(s_lcd);
 553              		.loc 1 196 0
 554 02ac 03AB     		add	r3, sp, #12	@ tmp333,,
 555 02ae 181C     		mov	r0, r3	@, tmp333
 556 02b0 FFF7FEFF 		bl	LCDTransmitStr	@
 197:.\src/networked.c **** 
 198:.\src/networked.c **** 
 199:.\src/networked.c **** 				networked_selections = MENU_OFF;
 557              		.loc 1 199 0
 558 02b4 2F4B     		ldr	r3, .L44+20	@ tmp334,
 559 02b6 0222     		mov	r2, #2	@ tmp335,
 560 02b8 1A70     		strb	r2, [r3]	@ tmp336, networked_selections
 200:.\src/networked.c **** 			}
 201:.\src/networked.c **** 			break;
 561              		.loc 1 201 0
 562 02ba 4FE0     		b	.L40	@
 563              	.L24:
 202:.\src/networked.c **** 
 203:.\src/networked.c **** 		case MENU_SELECTED:
 204:.\src/networked.c **** 			//estado algo seleccionado espero update
 205:.\src/networked.c **** 			resp_down = FuncShowBlink ((const char *) "Something Select", (const char *) "Updating Values", 
ARM GAS  C:\Users\Mariano\AppData\Local\Temp\ccKoDrvY.s 			page 15


 564              		.loc 1 205 0
 565 02bc 6C46     		mov	r4, sp	@ tmp337,
 566 02be 2334     		add	r4, r4, #35	@ tmp337,
 567 02c0 3A4A     		ldr	r2, .L44+76	@ tmp338,
 568 02c2 3B4B     		ldr	r3, .L44+80	@ tmp339,
 569 02c4 101C     		mov	r0, r2	@, tmp338
 570 02c6 191C     		mov	r1, r3	@, tmp339
 571 02c8 0122     		mov	r2, #1	@,
 572 02ca 0223     		mov	r3, #2	@,
 573 02cc FFF7FEFF 		bl	FuncShowBlink	@
 574 02d0 031C     		mov	r3, r0	@ tmp340,
 575 02d2 2370     		strb	r3, [r4]	@ tmp342, resp_down
 206:.\src/networked.c **** 
 207:.\src/networked.c **** 			if (resp_down == RESP_FINISH)
 576              		.loc 1 207 0
 577 02d4 6B46     		mov	r3, sp	@ tmp343,
 578 02d6 2333     		add	r3, r3, #35	@ tmp343,
 579 02d8 1B78     		ldrb	r3, [r3]	@ tmp344, resp_down
 580 02da 0A2B     		cmp	r3, #10	@ tmp344,
 581 02dc 00D0     		beq	.LCB414	@
 582 02de 6FE0     		b	.L41	@long jump	@
 583              	.LCB414:
 208:.\src/networked.c **** 			{
 209:.\src/networked.c **** 				networked_state = NETWORKED_UPDATE;
 584              		.loc 1 209 0
 585 02e0 214B     		ldr	r3, .L44+8	@ tmp345,
 586 02e2 1422     		mov	r2, #20	@ tmp346,
 587 02e4 1A70     		strb	r2, [r3]	@ tmp347, networked_state
 210:.\src/networked.c **** 				networked_selections = 0;
 588              		.loc 1 210 0
 589 02e6 234B     		ldr	r3, .L44+20	@ tmp348,
 590 02e8 0022     		mov	r2, #0	@ tmp349,
 591 02ea 1A70     		strb	r2, [r3]	@ tmp350, networked_selections
 211:.\src/networked.c **** 			}
 212:.\src/networked.c **** 			break;
 592              		.loc 1 212 0
 593 02ec 68E0     		b	.L41	@
 594              	.L25:
 213:.\src/networked.c **** 
 214:.\src/networked.c **** 		case MENU_OFF:
 215:.\src/networked.c **** 			//estado menu apagado
 216:.\src/networked.c **** 			if ((CheckS1() > S_NO) || (CheckS2() > S_NO))
 595              		.loc 1 216 0
 596 02ee FFF7FEFF 		bl	CheckS1	@
 597 02f2 031C     		mov	r3, r0	@ tmp351,
 598 02f4 002B     		cmp	r3, #0	@ D.5897,
 599 02f6 04D1     		bne	.L33	@,
 600              		.loc 1 216 0 is_stmt 0 discriminator 1
 601 02f8 FFF7FEFF 		bl	CheckS2	@
 602 02fc 031C     		mov	r3, r0	@ tmp353,
 603 02fe 002B     		cmp	r3, #0	@ D.5899,
 604 0300 60D0     		beq	.L42	@,
 605              	.L33:
 217:.\src/networked.c **** 			{
 218:.\src/networked.c **** 				networked_enable_menu_timer = 30000;			//vuelvo a mostrar
 606              		.loc 1 218 0 is_stmt 1
 607 0302 174B     		ldr	r3, .L44	@ tmp355,
ARM GAS  C:\Users\Mariano\AppData\Local\Temp\ccKoDrvY.s 			page 16


 608 0304 174A     		ldr	r2, .L44+4	@ tmp356,
 609 0306 1A80     		strh	r2, [r3]	@ tmp357, standalone_enable_menu_timer
 219:.\src/networked.c **** 				LCD_1ER_RENGLON;
 610              		.loc 1 219 0
 611 0308 0020     		mov	r0, #0	@,
 612 030a FFF7FEFF 		bl	Lcd_SetDDRAM	@
 220:.\src/networked.c **** 				LCDTransmitStr((const char *) "wait to free    ");
 613              		.loc 1 220 0
 614 030e 294B     		ldr	r3, .L44+84	@ tmp358,
 615 0310 181C     		mov	r0, r3	@, tmp358
 616 0312 FFF7FEFF 		bl	LCDTransmitStr	@
 221:.\src/networked.c **** 				LCD_2DO_RENGLON;
 617              		.loc 1 221 0
 618 0316 4020     		mov	r0, #64	@,
 619 0318 FFF7FEFF 		bl	Lcd_SetDDRAM	@
 222:.\src/networked.c **** 				LCDTransmitStr((const char *) s_blank_line);
 620              		.loc 1 222 0
 621 031c 264B     		ldr	r3, .L44+88	@ tmp359,
 622 031e 181C     		mov	r0, r3	@, tmp359
 623 0320 FFF7FEFF 		bl	LCDTransmitStr	@
 223:.\src/networked.c **** 				networked_selections++;
 624              		.loc 1 223 0
 625 0324 134B     		ldr	r3, .L44+20	@ tmp360,
 626 0326 1B78     		ldrb	r3, [r3]	@ networked_selections.20, networked_selections
 627 0328 0133     		add	r3, r3, #1	@ tmp361,
 628 032a DAB2     		uxtb	r2, r3	@ networked_selections.21, tmp361
 629 032c 114B     		ldr	r3, .L44+20	@ tmp362,
 630 032e 1A70     		strb	r2, [r3]	@ tmp363, networked_selections
 224:.\src/networked.c **** 			}
 225:.\src/networked.c **** 			break;
 631              		.loc 1 225 0
 632 0330 48E0     		b	.L42	@
 633              	.L26:
 226:.\src/networked.c **** 
 227:.\src/networked.c **** 		case MENU_WAIT_FREE:
 228:.\src/networked.c **** 			if ((CheckS1() == S_NO) && (CheckS2() == S_NO))
 634              		.loc 1 228 0
 635 0332 FFF7FEFF 		bl	CheckS1	@
 636 0336 031C     		mov	r3, r0	@ tmp364,
 637 0338 002B     		cmp	r3, #0	@ D.5902,
 638 033a 45D1     		bne	.L43	@,
 639              		.loc 1 228 0 is_stmt 0 discriminator 1
 640 033c FFF7FEFF 		bl	CheckS2	@
 641 0340 031C     		mov	r3, r0	@ tmp366,
 642 0342 002B     		cmp	r3, #0	@ D.5905,
 643 0344 40D1     		bne	.L43	@,
 229:.\src/networked.c **** 			{
 230:.\src/networked.c **** 				networked_selections = MENU_ON;
 644              		.loc 1 230 0 is_stmt 1
 645 0346 0B4B     		ldr	r3, .L44+20	@ tmp368,
 646 0348 0022     		mov	r2, #0	@ tmp369,
 647 034a 1A70     		strb	r2, [r3]	@ tmp370, networked_selections
 231:.\src/networked.c **** 				//limpio Menu
 232:.\src/networked.c **** 				networked_menu_state = NETWORKED_MENU_INIT;
 648              		.loc 1 232 0
 649 034c 1B4B     		ldr	r3, .L44+92	@ tmp371,
 650 034e 0022     		mov	r2, #0	@ tmp372,
ARM GAS  C:\Users\Mariano\AppData\Local\Temp\ccKoDrvY.s 			page 17


 651 0350 1A70     		strb	r2, [r3]	@ tmp373, networked_menu_state
 233:.\src/networked.c **** 			}
 234:.\src/networked.c **** 			break;
 652              		.loc 1 234 0
 653 0352 39E0     		b	.L43	@
 654              	.L22:
 235:.\src/networked.c **** 
 236:.\src/networked.c **** 		default:
 237:.\src/networked.c **** 			networked_selections = MENU_ON;
 655              		.loc 1 237 0
 656 0354 074B     		ldr	r3, .L44+20	@ tmp374,
 657 0356 0022     		mov	r2, #0	@ tmp375,
 658 0358 1A70     		strb	r2, [r3]	@ tmp376, networked_selections
 238:.\src/networked.c **** 			break;
 659              		.loc 1 238 0
 660 035a 36E0     		b	.L31	@
 661              	.L40:
 201:.\src/networked.c **** 			break;
 662              		.loc 1 201 0
 663 035c C046     		mov	r8, r8
 664 035e 34E0     		b	.L31	@
 665              	.L45:
 666              		.align	2
 667              	.L44:
 668 0360 00000000 		.word	standalone_enable_menu_timer
 669 0364 30750000 		.word	30000
 670 0368 00000000 		.word	networked_state
 671 036c 00000000 		.word	NetworkedStruct_local
 672 0370 00000000 		.word	NetworkedStruct_constant
 673 0374 00000000 		.word	networked_selections
 674 0378 00000000 		.word	.LC5
 675 037c 14000000 		.word	.LC7
 676 0380 00000000 		.word	DMX_channel_quantity
 677 0384 00000000 		.word	DMX_channel_selected
 678 0388 00000000 		.word	Packet_Detected_Flag
 679 038c 00000000 		.word	data
 680 0390 00000000 		.word	networked_ii
 681 0394 00000000 		.word	networked_dim_last
 682 0398 24000000 		.word	.LC15
 683 039c 28000000 		.word	.LC17
 684 03a0 00000000 		.word	networked_dim2_last
 685 03a4 2C000000 		.word	.LC20
 686 03a8 3C000000 		.word	.LC22
 687 03ac 50000000 		.word	.LC24
 688 03b0 64000000 		.word	.LC26
 689 03b4 74000000 		.word	.LC28
 690 03b8 00000000 		.word	s_blank_line
 691 03bc 00000000 		.word	networked_menu_state
 692              	.L41:
 212:.\src/networked.c **** 			break;
 693              		.loc 1 212 0
 694 03c0 C046     		mov	r8, r8
 695 03c2 02E0     		b	.L31	@
 696              	.L42:
 225:.\src/networked.c **** 			break;
 697              		.loc 1 225 0
 698 03c4 C046     		mov	r8, r8
ARM GAS  C:\Users\Mariano\AppData\Local\Temp\ccKoDrvY.s 			page 18


 699 03c6 00E0     		b	.L31	@
 700              	.L43:
 234:.\src/networked.c **** 			break;
 701              		.loc 1 234 0
 702 03c8 C046     		mov	r8, r8
 703              	.L31:
 239:.\src/networked.c **** 	}
 240:.\src/networked.c **** 
 241:.\src/networked.c **** 	if (CheckS1() > S_HALF)
 704              		.loc 1 241 0
 705 03ca FFF7FEFF 		bl	CheckS1	@
 706 03ce 031C     		mov	r3, r0	@ tmp377,
 707 03d0 032B     		cmp	r3, #3	@ D.5908,
 708 03d2 03D9     		bls	.L36	@,
 242:.\src/networked.c **** 		resp = RESP_CHANGE_ALL_UP;
 709              		.loc 1 242 0
 710 03d4 6B46     		mov	r3, sp	@ tmp379,
 711 03d6 2733     		add	r3, r3, #39	@ tmp379,
 712 03d8 0322     		mov	r2, #3	@ tmp380,
 713 03da 1A70     		strb	r2, [r3]	@ tmp381, resp
 714              	.L36:
 243:.\src/networked.c **** 
 244:.\src/networked.c **** 	return resp;
 715              		.loc 1 244 0
 716 03dc 6B46     		mov	r3, sp	@ tmp382,
 717 03de 2733     		add	r3, r3, #39	@ tmp382,
 718 03e0 1B78     		ldrb	r3, [r3]	@ D.5911, resp
 245:.\src/networked.c **** }
 719              		.loc 1 245 0
 720 03e2 181C     		mov	r0, r3	@, <retval>
 721 03e4 0AB0     		add	sp, sp, #40	@,,
 722              		@ sp needed for prologue	@
 723 03e6 10BD     		pop	{r4, pc}
 724              		.cfi_endproc
 725              	.LFE20:
 726              		.size	FuncNetworked, .-FuncNetworked
 727              		.section	.rodata
 728 0085 000000   		.align	2
 729              	.LC33:
 730 0088 53746172 		.ascii	"Starting Network\000"
 730      74696E67 
 730      204E6574 
 730      776F726B 
 730      00
 731 0099 000000   		.align	2
 732              	.LC35:
 733 009c 53656C65 		.ascii	"Selections     \000"
 733      6374696F 
 733      6E732020 
 733      20202000 
 734              		.align	2
 735              	.LC37:
 736 00ac 20204E65 		.ascii	"  Network Mode  \000"
 736      74776F72 
 736      6B204D6F 
 736      64652020 
 736      00
ARM GAS  C:\Users\Mariano\AppData\Local\Temp\ccKoDrvY.s 			page 19


 737 00bd 000000   		.section	.text.MenuNetworked,"ax",%progbits
 738              		.align	2
 739              		.global	MenuNetworked
 740              		.code	16
 741              		.thumb_func
 742              		.type	MenuNetworked, %function
 743              	MenuNetworked:
 744              	.LFB21:
 246:.\src/networked.c **** 
 247:.\src/networked.c **** 
 248:.\src/networked.c **** unsigned char MenuNetworked(void)
 249:.\src/networked.c **** {
 745              		.loc 1 249 0
 746              		.cfi_startproc
 747 0000 10B5     		push	{r4, lr}	@
 748              	.LCFI2:
 749              		.cfi_def_cfa_offset 8
 750              		.cfi_offset 4, -8
 751              		.cfi_offset 14, -4
 752 0002 82B0     		sub	sp, sp, #8	@,,
 753              	.LCFI3:
 754              		.cfi_def_cfa_offset 16
 250:.\src/networked.c **** 	unsigned char resp = RESP_CONTINUE;
 755              		.loc 1 250 0
 756 0004 6B46     		mov	r3, sp	@ tmp138,
 757 0006 0733     		add	r3, r3, #7	@ tmp138,
 758 0008 0022     		mov	r2, #0	@ tmp139,
 759 000a 1A70     		strb	r2, [r3]	@ tmp140, resp
 251:.\src/networked.c **** 	unsigned char resp_down = RESP_CONTINUE;
 760              		.loc 1 251 0
 761 000c 6B46     		mov	r3, sp	@ tmp141,
 762 000e 0633     		add	r3, r3, #6	@ tmp141,
 763 0010 0022     		mov	r2, #0	@ tmp142,
 764 0012 1A70     		strb	r2, [r3]	@ tmp143, resp_down
 252:.\src/networked.c **** 	unsigned char dummy = 0;
 765              		.loc 1 252 0
 766 0014 6B46     		mov	r3, sp	@ tmp144,
 767 0016 0533     		add	r3, r3, #5	@ tmp144,
 768 0018 0022     		mov	r2, #0	@ tmp145,
 769 001a 1A70     		strb	r2, [r3]	@ tmp146, dummy
 253:.\src/networked.c **** 
 254:.\src/networked.c **** 	switch (networked_menu_state)
 770              		.loc 1 254 0
 771 001c 364B     		ldr	r3, .L62	@ tmp147,
 772 001e 1B78     		ldrb	r3, [r3]	@ networked_menu_state.0, networked_menu_state
 773 0020 012B     		cmp	r3, #1	@ D.5813,
 774 0022 1DD0     		beq	.L49	@,
 775 0024 02DC     		bgt	.L52	@,
 776 0026 002B     		cmp	r3, #0	@ D.5813,
 777 0028 05D0     		beq	.L48	@,
 778 002a 56E0     		b	.L47	@
 779              	.L52:
 780 002c 022B     		cmp	r3, #2	@ D.5813,
 781 002e 2CD0     		beq	.L50	@,
 782 0030 032B     		cmp	r3, #3	@ D.5813,
 783 0032 30D0     		beq	.L51	@,
 784 0034 51E0     		b	.L47	@
ARM GAS  C:\Users\Mariano\AppData\Local\Temp\ccKoDrvY.s 			page 20


 785              	.L48:
 255:.\src/networked.c **** 	{
 256:.\src/networked.c **** 		case NETWORKED_MENU_INIT:
 257:.\src/networked.c **** 			//empiezo con las selecciones
 258:.\src/networked.c **** 			resp_down = FuncShowBlink ((const char *) "Starting Network", (const char *) "Selections     ", 
 786              		.loc 1 258 0
 787 0036 6C46     		mov	r4, sp	@ tmp148,
 788 0038 0634     		add	r4, r4, #6	@ tmp148,
 789 003a 304A     		ldr	r2, .L62+4	@ tmp149,
 790 003c 304B     		ldr	r3, .L62+8	@ tmp150,
 791 003e 101C     		mov	r0, r2	@, tmp149
 792 0040 191C     		mov	r1, r3	@, tmp150
 793 0042 0122     		mov	r2, #1	@,
 794 0044 0223     		mov	r3, #2	@,
 795 0046 FFF7FEFF 		bl	FuncShowBlink	@
 796 004a 031C     		mov	r3, r0	@ tmp151,
 797 004c 2370     		strb	r3, [r4]	@ tmp153, resp_down
 259:.\src/networked.c **** 
 260:.\src/networked.c **** 			if (resp_down == RESP_FINISH)
 798              		.loc 1 260 0
 799 004e 6B46     		mov	r3, sp	@ tmp154,
 800 0050 0633     		add	r3, r3, #6	@ tmp154,
 801 0052 1B78     		ldrb	r3, [r3]	@ tmp155, resp_down
 802 0054 0A2B     		cmp	r3, #10	@ tmp155,
 803 0056 44D1     		bne	.L59	@,
 261:.\src/networked.c **** 				networked_menu_state = NETWORKED_MENU_INIT_1;
 804              		.loc 1 261 0
 805 0058 274B     		ldr	r3, .L62	@ tmp156,
 806 005a 0122     		mov	r2, #1	@ tmp157,
 807 005c 1A70     		strb	r2, [r3]	@ tmp158, networked_menu_state
 262:.\src/networked.c **** 			break;
 808              		.loc 1 262 0
 809 005e 40E0     		b	.L59	@
 810              	.L49:
 263:.\src/networked.c **** 
 264:.\src/networked.c **** 		case NETWORKED_MENU_INIT_1:
 265:.\src/networked.c **** 			resp_down = FuncShowBlink ((const char *) "  Network Mode  ",(const char *) s_blank_line, 1, BLI
 811              		.loc 1 265 0
 812 0060 6C46     		mov	r4, sp	@ tmp159,
 813 0062 0634     		add	r4, r4, #6	@ tmp159,
 814 0064 274A     		ldr	r2, .L62+12	@ tmp160,
 815 0066 284B     		ldr	r3, .L62+16	@ tmp161,
 816 0068 101C     		mov	r0, r2	@, tmp160
 817 006a 191C     		mov	r1, r3	@, tmp161
 818 006c 0122     		mov	r2, #1	@,
 819 006e 0223     		mov	r3, #2	@,
 820 0070 FFF7FEFF 		bl	FuncShowBlink	@
 821 0074 031C     		mov	r3, r0	@ tmp162,
 822 0076 2370     		strb	r3, [r4]	@ tmp164, resp_down
 266:.\src/networked.c **** 
 267:.\src/networked.c **** 			if (resp_down == RESP_FINISH)
 823              		.loc 1 267 0
 824 0078 6B46     		mov	r3, sp	@ tmp165,
 825 007a 0633     		add	r3, r3, #6	@ tmp165,
 826 007c 1B78     		ldrb	r3, [r3]	@ tmp166, resp_down
 827 007e 0A2B     		cmp	r3, #10	@ tmp166,
 828 0080 31D1     		bne	.L60	@,
ARM GAS  C:\Users\Mariano\AppData\Local\Temp\ccKoDrvY.s 			page 21


 268:.\src/networked.c **** 				networked_menu_state = NETWORKED_MENU_SELECT_CHANNEL;
 829              		.loc 1 268 0
 830 0082 1D4B     		ldr	r3, .L62	@ tmp167,
 831 0084 0222     		mov	r2, #2	@ tmp168,
 832 0086 1A70     		strb	r2, [r3]	@ tmp169, networked_menu_state
 269:.\src/networked.c **** 
 270:.\src/networked.c **** 			break;
 833              		.loc 1 270 0
 834 0088 2DE0     		b	.L60	@
 835              	.L50:
 271:.\src/networked.c **** 
 272:.\src/networked.c **** 		case NETWORKED_MENU_SELECT_CHANNEL:
 273:.\src/networked.c **** 			FuncChangeChannelsReset ();
 836              		.loc 1 273 0
 837 008a FFF7FEFF 		bl	FuncChangeReset	@
 274:.\src/networked.c **** 			networked_menu_state = NETWORKED_MENU_SELECT_CHANNEL_1;
 838              		.loc 1 274 0
 839 008e 1A4B     		ldr	r3, .L62	@ tmp170,
 840 0090 0322     		mov	r2, #3	@ tmp171,
 841 0092 1A70     		strb	r2, [r3]	@ tmp172, networked_menu_state
 275:.\src/networked.c **** 			break;
 842              		.loc 1 275 0
 843 0094 2AE0     		b	.L54	@
 844              	.L51:
 276:.\src/networked.c **** 
 277:.\src/networked.c **** 		case NETWORKED_MENU_SELECT_CHANNEL_1:
 278:.\src/networked.c **** 			resp_down = FuncChangeChannels ((unsigned char *) &NetworkedStruct_local.networked_dmx_channel);
 845              		.loc 1 278 0
 846 0096 6C46     		mov	r4, sp	@ tmp173,
 847 0098 0634     		add	r4, r4, #6	@ tmp173,
 848 009a 1C4B     		ldr	r3, .L62+20	@ tmp174,
 849 009c 181C     		mov	r0, r3	@, tmp174
 850 009e 0221     		mov	r1, #2	@,
 851 00a0 0122     		mov	r2, #1	@,
 852 00a2 FF23     		mov	r3, #255	@,
 853 00a4 FFF7FEFF 		bl	FuncChange	@
 854 00a8 031C     		mov	r3, r0	@ tmp175,
 855 00aa 2370     		strb	r3, [r4]	@ tmp177, resp_down
 279:.\src/networked.c **** 
 280:.\src/networked.c **** 			if (resp_down == RESP_FINISH)
 856              		.loc 1 280 0
 857 00ac 6B46     		mov	r3, sp	@ tmp178,
 858 00ae 0633     		add	r3, r3, #6	@ tmp178,
 859 00b0 1B78     		ldrb	r3, [r3]	@ tmp179, resp_down
 860 00b2 0A2B     		cmp	r3, #10	@ tmp179,
 861 00b4 07D1     		bne	.L56	@,
 281:.\src/networked.c **** 			{
 282:.\src/networked.c **** 				resp = RESP_SELECTED;
 862              		.loc 1 282 0
 863 00b6 6B46     		mov	r3, sp	@ tmp180,
 864 00b8 0733     		add	r3, r3, #7	@ tmp180,
 865 00ba 0122     		mov	r2, #1	@ tmp181,
 866 00bc 1A70     		strb	r2, [r3]	@ tmp182, resp
 283:.\src/networked.c **** 				networked_menu_state = NETWORKED_MENU_INIT;
 867              		.loc 1 283 0
 868 00be 0E4B     		ldr	r3, .L62	@ tmp183,
 869 00c0 0022     		mov	r2, #0	@ tmp184,
ARM GAS  C:\Users\Mariano\AppData\Local\Temp\ccKoDrvY.s 			page 22


 870 00c2 1A70     		strb	r2, [r3]	@ tmp185, networked_menu_state
 284:.\src/networked.c **** 			}
 285:.\src/networked.c **** 			else if (resp_down == RESP_WORKING)
 286:.\src/networked.c **** 				resp = RESP_WORKING;
 287:.\src/networked.c **** 
 288:.\src/networked.c **** 			break;
 871              		.loc 1 288 0
 872 00c4 11E0     		b	.L61	@
 873              	.L56:
 285:.\src/networked.c **** 			else if (resp_down == RESP_WORKING)
 874              		.loc 1 285 0
 875 00c6 6B46     		mov	r3, sp	@ tmp186,
 876 00c8 0633     		add	r3, r3, #6	@ tmp186,
 877 00ca 1B78     		ldrb	r3, [r3]	@ tmp187, resp_down
 878 00cc 042B     		cmp	r3, #4	@ tmp187,
 879 00ce 0CD1     		bne	.L61	@,
 286:.\src/networked.c **** 				resp = RESP_WORKING;
 880              		.loc 1 286 0
 881 00d0 6B46     		mov	r3, sp	@ tmp188,
 882 00d2 0733     		add	r3, r3, #7	@ tmp188,
 883 00d4 0422     		mov	r2, #4	@ tmp189,
 884 00d6 1A70     		strb	r2, [r3]	@ tmp190, resp
 885              		.loc 1 288 0
 886 00d8 07E0     		b	.L61	@
 887              	.L47:
 289:.\src/networked.c **** 
 290:.\src/networked.c **** 
 291:.\src/networked.c **** 		default:
 292:.\src/networked.c **** 			networked_menu_state = NETWORKED_MENU_INIT;
 888              		.loc 1 292 0
 889 00da 074B     		ldr	r3, .L62	@ tmp191,
 890 00dc 0022     		mov	r2, #0	@ tmp192,
 891 00de 1A70     		strb	r2, [r3]	@ tmp193, networked_menu_state
 293:.\src/networked.c **** 			break;
 892              		.loc 1 293 0
 893 00e0 04E0     		b	.L54	@
 894              	.L59:
 262:.\src/networked.c **** 			break;
 895              		.loc 1 262 0
 896 00e2 C046     		mov	r8, r8
 897 00e4 02E0     		b	.L54	@
 898              	.L60:
 270:.\src/networked.c **** 			break;
 899              		.loc 1 270 0
 900 00e6 C046     		mov	r8, r8
 901 00e8 00E0     		b	.L54	@
 902              	.L61:
 288:.\src/networked.c **** 			break;
 903              		.loc 1 288 0
 904 00ea C046     		mov	r8, r8
 905              	.L54:
 294:.\src/networked.c **** 	}
 295:.\src/networked.c **** 	return resp;
 906              		.loc 1 295 0
 907 00ec 6B46     		mov	r3, sp	@ tmp194,
 908 00ee 0733     		add	r3, r3, #7	@ tmp194,
 909 00f0 1B78     		ldrb	r3, [r3]	@ D.5823, resp
ARM GAS  C:\Users\Mariano\AppData\Local\Temp\ccKoDrvY.s 			page 23


 296:.\src/networked.c **** }
 910              		.loc 1 296 0
 911 00f2 181C     		mov	r0, r3	@, <retval>
 912 00f4 02B0     		add	sp, sp, #8	@,,
 913              		@ sp needed for prologue	@
 914 00f6 10BD     		pop	{r4, pc}
 915              	.L63:
 916              		.align	2
 917              	.L62:
 918 00f8 00000000 		.word	networked_menu_state
 919 00fc 88000000 		.word	.LC33
 920 0100 9C000000 		.word	.LC35
 921 0104 AC000000 		.word	.LC37
 922 0108 00000000 		.word	s_blank_line
 923 010c 00000000 		.word	NetworkedStruct_local
 924              		.cfi_endproc
 925              	.LFE21:
 926              		.size	MenuNetworked, .-MenuNetworked
 927              		.text
 928              	.Letext0:
 929              		.file 2 ".\\src\\networked.h"
 930              		.file 3 "c:\\program files (x86)\\gnu tools arm embedded\\4.7 2013q2\\bin\\../lib/gcc/arm-none-eab
 931              		.file 4 ".\\cmsis_boot/stm32f0xx.h"