ARM GAS  C:\Users\Mariano\AppData\Local\Temp\cco1kxoW.s 			page 1


   1              		.cpu cortex-m0
   2              		.fpu softvfp
   3              		.eabi_attribute 20, 1	@ Tag_ABI_FP_denormal
   4              		.eabi_attribute 21, 1	@ Tag_ABI_FP_exceptions
   5              		.eabi_attribute 23, 3	@ Tag_ABI_FP_number_model
   6              		.eabi_attribute 24, 1	@ Tag_ABI_align8_needed
   7              		.eabi_attribute 25, 1	@ Tag_ABI_align8_preserved
   8              		.eabi_attribute 26, 1	@ Tag_ABI_enum_size
   9              		.eabi_attribute 30, 6	@ Tag_ABI_optimization_goals
  10              		.eabi_attribute 34, 0	@ Tag_CPU_unaligned_access
  11              		.eabi_attribute 18, 4	@ Tag_ABI_PCS_wchar_t
  12              		.file	"standalone.c"
  13              	@ GNU C (GNU Tools for ARM Embedded Processors) version 4.7.4 20130613 (release) [ARM/embedded-4_7-
  14              	@	compiled by GNU C version 4.2.1-sjlj (mingw32-2), GMP version 4.3.2, MPFR version 2.4.2, MPC vers
  15              	@ GGC heuristics: --param ggc-min-expand=100 --param ggc-min-heapsize=131072
  16              	@ options passed:  -I . -I .\src -I .\cmsis_boot -I .\cmsis_core
  17              	@ -I ..\STM32F0xx_StdPeriph_Lib_V1.3.1\Libraries\STM32F0xx_StdPeriph_Driver\inc
  18              	@ -I .\inc -I .\cmsis_boot -imultilib armv6-m
  19              	@ -iprefix c:\program files (x86)\gnu tools arm embedded\4.7 2013q2\bin\../lib/gcc/arm-none-eabi/4.
  20              	@ -isysroot c:\program files (x86)\gnu tools arm embedded\4.7 2013q2\bin\../arm-none-eabi
  21              	@ -MD .\src\standalone.d -MF .dep\standalone.o.d -MP -MQ .\src\standalone.o
  22              	@ -D__USES_INITFINI__ -D RUN_FROM_FLASH=1 .\src\standalone.c
  23              	@ -mcpu=cortex-m0 -mthumb -auxbase-strip .\src\standalone.o -g -gdwarf-2
  24              	@ -O0 -Wall -fomit-frame-pointer -fdata-sections -ffunction-sections
  25              	@ -fverbose-asm
  26              	@ options enabled:  -fauto-inc-dec -fbranch-count-reg -fcommon
  27              	@ -fdata-sections -fdebug-types-section -fdelete-null-pointer-checks
  28              	@ -fdwarf2-cfi-asm -fearly-inlining -feliminate-unused-debug-types
  29              	@ -ffunction-cse -ffunction-sections -fgcse-lm -fgnu-runtime -fident
  30              	@ -finline-atomics -fira-hoist-pressure -fira-share-save-slots
  31              	@ -fira-share-spill-slots -fivopts -fkeep-static-consts
  32              	@ -fleading-underscore -fmath-errno -fmerge-debug-strings
  33              	@ -fmove-loop-invariants -fomit-frame-pointer -fpeephole
  34              	@ -fprefetch-loop-arrays -freg-struct-return
  35              	@ -fsched-critical-path-heuristic -fsched-dep-count-heuristic
  36              	@ -fsched-group-heuristic -fsched-interblock -fsched-last-insn-heuristic
  37              	@ -fsched-rank-heuristic -fsched-spec -fsched-spec-insn-heuristic
  38              	@ -fsched-stalled-insns-dep -fshow-column -fsigned-zeros
  39              	@ -fsplit-ivs-in-unroller -fstrict-volatile-bitfields -ftrapping-math
  40              	@ -ftree-cselim -ftree-forwprop -ftree-loop-if-convert -ftree-loop-im
  41              	@ -ftree-loop-ivcanon -ftree-loop-optimize -ftree-parallelize-loops=
  42              	@ -ftree-phiprop -ftree-pta -ftree-reassoc -ftree-scev-cprop
  43              	@ -ftree-slp-vectorize -ftree-vect-loop-version -funit-at-a-time
  44              	@ -fverbose-asm -fzero-initialized-in-bss -mlittle-endian -msched-prolog
  45              	@ -mthumb -mvectorize-with-neon-quad
  46              	
  47              		.text
  48              	.Ltext0:
  49              		.cfi_sections	.debug_frame
  50              		.global	standalone_state
  51              		.section	.bss.standalone_state,"aw",%nobits
  52              		.type	standalone_state, %object
  53              		.size	standalone_state, 1
  54              	standalone_state:
  55 0000 00       		.space	1
  56              		.global	standalone_selections
  57              		.section	.bss.standalone_selections,"aw",%nobits
ARM GAS  C:\Users\Mariano\AppData\Local\Temp\cco1kxoW.s 			page 2


  58              		.type	standalone_selections, %object
  59              		.size	standalone_selections, 1
  60              	standalone_selections:
  61 0000 00       		.space	1
  62              		.global	standalone_ii
  63              		.section	.bss.standalone_ii,"aw",%nobits
  64              		.align	1
  65              		.type	standalone_ii, %object
  66              		.size	standalone_ii, 2
  67              	standalone_ii:
  68 0000 0000     		.space	2
  69              		.global	standalone_dimming_last_value
  70              		.section	.bss.standalone_dimming_last_value,"aw",%nobits
  71              		.type	standalone_dimming_last_value, %object
  72              		.size	standalone_dimming_last_value, 1
  73              	standalone_dimming_last_value:
  74 0000 00       		.space	1
  75              		.global	standalone_dimming_last_slope
  76              		.section	.bss.standalone_dimming_last_slope,"aw",%nobits
  77              		.type	standalone_dimming_last_slope, %object
  78              		.size	standalone_dimming_last_slope, 1
  79              	standalone_dimming_last_slope:
  80 0000 00       		.space	1
  81              		.global	standalone_menu_state
  82              		.section	.bss.standalone_menu_state,"aw",%nobits
  83              		.type	standalone_menu_state, %object
  84              		.size	standalone_menu_state, 1
  85              	standalone_menu_state:
  86 0000 00       		.space	1
  87              		.global	standalone_show_conf
  88              		.section	.bss.standalone_show_conf,"aw",%nobits
  89              		.type	standalone_show_conf, %object
  90              		.size	standalone_show_conf, 1
  91              	standalone_show_conf:
  92 0000 00       		.space	1
  93              		.global	s_sel
  94              		.section	.rodata.s_sel,"a",%progbits
  95              		.align	2
  96              		.type	s_sel, %object
  97              		.size	s_sel, 3
  98              	s_sel:
  99 0000 02       		.byte	2
 100 0001 08       		.byte	8
 101 0002 0F       		.byte	15
 102              		.comm	StandAloneStruct_local,14,4
 103 0003 00       		.section	.rodata
 104              		.align	2
 105              	.LC9:
 106 0000 53776974 		.ascii	"Switching ON... \000"
 106      6368696E 
 106      67204F4E 
 106      2E2E2E20 
 106      00
 107 0011 000000   		.align	2
 108              	.LC12:
 109 0014 20204C69 		.ascii	"  Lights ON     \000"
 109      67687473 
ARM GAS  C:\Users\Mariano\AppData\Local\Temp\cco1kxoW.s 			page 3


 109      204F4E20 
 109      20202020 
 109      00
 110 0025 000000   		.align	2
 111              	.LC14:
 112 0028 53776974 		.ascii	"Switching OFF...\000"
 112      6368696E 
 112      67204F46 
 112      462E2E2E 
 112      00
 113 0039 000000   		.align	2
 114              	.LC16:
 115 003c 20204C69 		.ascii	"  Lights OFF    \000"
 115      67687473 
 115      204F4646 
 115      20202020 
 115      00
 116 004d 000000   		.align	2
 117              	.LC19:
 118 0050 536F6D65 		.ascii	"Something Select\000"
 118      7468696E 
 118      67205365 
 118      6C656374 
 118      00
 119 0061 000000   		.align	2
 120              	.LC21:
 121 0064 55706461 		.ascii	"Updating Values\000"
 121      74696E67 
 121      2056616C 
 121      75657300 
 122              		.align	2
 123              	.LC23:
 124 0074 77616974 		.ascii	"wait to free    \000"
 124      20746F20 
 124      66726565 
 124      20202020 
 124      00
 125 0085 000000   		.align	2
 126              	.LC26:
 127 0088 436F6E74 		.ascii	"Cont.     Select\000"
 127      2E202020 
 127      20205365 
 127      6C656374 
 127      00
 128              		.section	.text.FuncStandAlone,"ax",%progbits
 129              		.align	2
 130              		.global	FuncStandAlone
 131              		.code	16
 132              		.thumb_func
 133              		.type	FuncStandAlone, %function
 134              	FuncStandAlone:
 135              	.LFB20:
 136              		.file 1 ".\\src\\standalone.c"
   1:.\src/standalone.c **** /*
   2:.\src/standalone.c ****  * standalone.c
   3:.\src/standalone.c ****  *
   4:.\src/standalone.c ****  *  Created on: 11/02/2016
ARM GAS  C:\Users\Mariano\AppData\Local\Temp\cco1kxoW.s 			page 4


   5:.\src/standalone.c ****  *      Author: Mariano
   6:.\src/standalone.c ****  */
   7:.\src/standalone.c **** 
   8:.\src/standalone.c **** #include "standalone.h"
   9:.\src/standalone.c **** #include "lcd.h"
  10:.\src/standalone.c **** #include "main_menu.h"
  11:.\src/standalone.c **** #include "hard.h"
  12:.\src/standalone.c **** #include "stm32f0xx.h"
  13:.\src/standalone.c **** 
  14:.\src/standalone.c **** #include <stdio.h>
  15:.\src/standalone.c **** #include <string.h>
  16:.\src/standalone.c **** 
  17:.\src/standalone.c **** #include "stm32f0x_gpio.h"
  18:.\src/standalone.c **** 
  19:.\src/standalone.c **** 
  20:.\src/standalone.c **** /* Externals variables ---------------------------------------------------------*/
  21:.\src/standalone.c **** extern volatile unsigned short standalone_timer;
  22:.\src/standalone.c **** extern volatile unsigned short standalone_enable_menu_timer;
  23:.\src/standalone.c **** 
  24:.\src/standalone.c **** extern const char * s_blank_line [];
  25:.\src/standalone.c **** 
  26:.\src/standalone.c **** extern StandAlone_Typedef StandAloneStruct_constant;
  27:.\src/standalone.c **** 
  28:.\src/standalone.c **** /* Global variables ------------------------------------------------------------*/
  29:.\src/standalone.c **** unsigned char standalone_state = 0;
  30:.\src/standalone.c **** unsigned char standalone_selections = 0;
  31:.\src/standalone.c **** unsigned short standalone_ii = 0;
  32:.\src/standalone.c **** //unsigned short standalone_dimming_top = 0;
  33:.\src/standalone.c **** 
  34:.\src/standalone.c **** unsigned char standalone_dimming_last_value = 0;
  35:.\src/standalone.c **** unsigned char standalone_dimming_last_slope = 0;
  36:.\src/standalone.c **** 
  37:.\src/standalone.c **** unsigned char standalone_menu_state = 0;
  38:.\src/standalone.c **** unsigned char standalone_show_conf = 0;
  39:.\src/standalone.c **** 
  40:.\src/standalone.c **** 
  41:.\src/standalone.c **** 
  42:.\src/standalone.c **** const unsigned char s_sel [] = { 0x02, 0x08, 0x0f };
  43:.\src/standalone.c **** 
  44:.\src/standalone.c **** StandAlone_Typedef StandAloneStruct_local;
  45:.\src/standalone.c **** #define standalone_dimming_top StandAloneStruct_local.max_dimmer_value_dmx
  46:.\src/standalone.c **** 
  47:.\src/standalone.c **** //-------- Functions -------------
  48:.\src/standalone.c **** 
  49:.\src/standalone.c **** //muestro el menu y hago funciones (pero sin mostrar nada) hasta que pasen 30 segs
  50:.\src/standalone.c **** //con standalone_menu_show
  51:.\src/standalone.c **** unsigned char FuncStandAlone (void)
  52:.\src/standalone.c **** {
 137              		.loc 1 52 0
 138              		.cfi_startproc
 139 0000 10B5     		push	{r4, lr}	@
 140              	.LCFI0:
 141              		.cfi_def_cfa_offset 8
 142              		.cfi_offset 4, -8
 143              		.cfi_offset 14, -4
 144 0002 82B0     		sub	sp, sp, #8	@,,
 145              	.LCFI1:
ARM GAS  C:\Users\Mariano\AppData\Local\Temp\cco1kxoW.s 			page 5


 146              		.cfi_def_cfa_offset 16
  53:.\src/standalone.c **** 	unsigned char resp = RESP_CONTINUE;
 147              		.loc 1 53 0
 148 0004 6B46     		mov	r3, sp	@ tmp244,
 149 0006 0733     		add	r3, r3, #7	@ tmp244,
 150 0008 0022     		mov	r2, #0	@ tmp245,
 151 000a 1A70     		strb	r2, [r3]	@ tmp246, resp
  54:.\src/standalone.c **** 	unsigned char resp_down = RESP_CONTINUE;
 152              		.loc 1 54 0
 153 000c 6B46     		mov	r3, sp	@ tmp247,
 154 000e 0633     		add	r3, r3, #6	@ tmp247,
 155 0010 0022     		mov	r2, #0	@ tmp248,
 156 0012 1A70     		strb	r2, [r3]	@ tmp249, resp_down
  55:.\src/standalone.c **** 
  56:.\src/standalone.c **** 	switch (standalone_state)
 157              		.loc 1 56 0
 158 0014 C44B     		ldr	r3, .L93	@ tmp250,
 159 0016 1B78     		ldrb	r3, [r3]	@ standalone_state.36, standalone_state
 160 0018 142B     		cmp	r3, #20	@ D.6091,
 161 001a 00D9     		bls	.LCB23	@
 162 001c 07E2     		b	.L2	@long jump	@
 163              	.LCB23:
 164 001e 9A00     		lsl	r2, r3, #2	@ tmp251, D.6091,
 165 0020 C24B     		ldr	r3, .L93+4	@ tmp253,
 166 0022 D318     		add	r3, r2, r3	@ tmp252, tmp251, tmp253
 167 0024 1B68     		ldr	r3, [r3]	@ tmp254,
 168 0026 9F46     		mov	pc, r3	@ tmp254
 169              		.section	.rodata.FuncStandAlone,"a",%progbits
 170              		.align	2
 171              	.L16:
 172 0000 28000000 		.word	.L3
 173 0004 62000000 		.word	.L4
 174 0008 A2000000 		.word	.L5
 175 000c BC000000 		.word	.L6
 176 0010 1E010000 		.word	.L7
 177 0014 90010000 		.word	.L8
 178 0018 0A020000 		.word	.L9
 179 001c 24020000 		.word	.L10
 180 0020 78020000 		.word	.L11
 181 0024 EE020000 		.word	.L12
 182 0028 06030000 		.word	.L13
 183 002c BC030000 		.word	.L14
 184 0030 2E040000 		.word	.L2
 185 0034 2E040000 		.word	.L2
 186 0038 2E040000 		.word	.L2
 187 003c 2E040000 		.word	.L2
 188 0040 2E040000 		.word	.L2
 189 0044 2E040000 		.word	.L2
 190 0048 2E040000 		.word	.L2
 191 004c 2E040000 		.word	.L2
 192 0050 88000000 		.word	.L15
 193              		.section	.text.FuncStandAlone
 194              	.L3:
  57:.\src/standalone.c **** 	{
  58:.\src/standalone.c **** 		case STAND_ALONE_INIT:
  59:.\src/standalone.c **** 			//un segundo la pantalla principal
  60:.\src/standalone.c **** 			standalone_timer = 1000;
ARM GAS  C:\Users\Mariano\AppData\Local\Temp\cco1kxoW.s 			page 6


 195              		.loc 1 60 0
 196 0028 C14B     		ldr	r3, .L93+8	@ tmp255,
 197 002a FA22     		mov	r2, #250	@ tmp598,
 198 002c 9200     		lsl	r2, r2, #2	@ tmp256, tmp598,
 199 002e 1A80     		strh	r2, [r3]	@ tmp257, standalone_timer
  61:.\src/standalone.c **** 			standalone_enable_menu_timer = TT_MENU_TIMEOUT;	//30 segs de menu standalone
 200              		.loc 1 61 0
 201 0030 C04B     		ldr	r3, .L93+12	@ tmp258,
 202 0032 C14A     		ldr	r2, .L93+16	@ tmp259,
 203 0034 1A80     		strh	r2, [r3]	@ tmp260, standalone_enable_menu_timer
  62:.\src/standalone.c **** 
  63:.\src/standalone.c **** 			//TODO: leer estructura y verificar funcion cargar valore sdefualt o ultimos seleccioneados
  64:.\src/standalone.c **** 			memcpy(&StandAloneStruct_local, &StandAloneStruct_constant, sizeof(StandAloneStruct_local));
 204              		.loc 1 64 0
 205 0036 C14A     		ldr	r2, .L93+20	@ tmp261,
 206 0038 C14B     		ldr	r3, .L93+24	@ tmp262,
 207 003a 111C     		mov	r1, r2	@ tmp263, tmp261
 208 003c 1A1C     		mov	r2, r3	@ tmp264, tmp262
 209 003e 0E23     		mov	r3, #14	@ tmp265,
 210 0040 081C     		mov	r0, r1	@, tmp263
 211 0042 111C     		mov	r1, r2	@, tmp264
 212 0044 1A1C     		mov	r2, r3	@, tmp265
 213 0046 FFF7FEFF 		bl	memcpy	@
  65:.\src/standalone.c **** 			MenuStandAloneReset();
 214              		.loc 1 65 0
 215 004a FFF7FEFF 		bl	MenuStandAloneReset	@
  66:.\src/standalone.c **** 			standalone_selections = MENU_OFF;
 216              		.loc 1 66 0
 217 004e BD4B     		ldr	r3, .L93+28	@ tmp268,
 218 0050 0222     		mov	r2, #2	@ tmp269,
 219 0052 1A70     		strb	r2, [r3]	@ tmp270, standalone_selections
  67:.\src/standalone.c **** 			standalone_state++;
 220              		.loc 1 67 0
 221 0054 B44B     		ldr	r3, .L93	@ tmp271,
 222 0056 1B78     		ldrb	r3, [r3]	@ standalone_state.37, standalone_state
 223 0058 0133     		add	r3, r3, #1	@ tmp272,
 224 005a DAB2     		uxtb	r2, r3	@ standalone_state.38, tmp272
 225 005c B24B     		ldr	r3, .L93	@ tmp273,
 226 005e 1A70     		strb	r2, [r3]	@ tmp274, standalone_state
  68:.\src/standalone.c **** 			break;
 227              		.loc 1 68 0
 228 0060 FCE1     		b	.L17	@
 229              	.L4:
  69:.\src/standalone.c **** 
  70:.\src/standalone.c **** 		case STAND_ALONE_SHOW_CONF:
  71:.\src/standalone.c **** 			resp_down = ShowConfStandAlone();
 230              		.loc 1 71 0
 231 0062 6C46     		mov	r4, sp	@ tmp275,
 232 0064 0634     		add	r4, r4, #6	@ tmp275,
 233 0066 FFF7FEFF 		bl	ShowConfStandAlone	@
 234 006a 031C     		mov	r3, r0	@ tmp276,
 235 006c 2370     		strb	r3, [r4]	@ tmp278, resp_down
  72:.\src/standalone.c **** 
  73:.\src/standalone.c **** 			if (resp_down == RESP_FINISH)
 236              		.loc 1 73 0
 237 006e 6B46     		mov	r3, sp	@ tmp279,
 238 0070 0633     		add	r3, r3, #6	@ tmp279,
ARM GAS  C:\Users\Mariano\AppData\Local\Temp\cco1kxoW.s 			page 7


 239 0072 1B78     		ldrb	r3, [r3]	@ tmp280, resp_down
 240 0074 0A2B     		cmp	r3, #10	@ tmp280,
 241 0076 00D0     		beq	.LCB74	@
 242 0078 DDE1     		b	.L79	@long jump	@
 243              	.LCB74:
  74:.\src/standalone.c **** 			{
  75:.\src/standalone.c **** 				standalone_state = STAND_ALONE_UPDATE;
 244              		.loc 1 75 0
 245 007a AB4B     		ldr	r3, .L93	@ tmp281,
 246 007c 1422     		mov	r2, #20	@ tmp282,
 247 007e 1A70     		strb	r2, [r3]	@ tmp283, standalone_state
  76:.\src/standalone.c **** 				standalone_selections = MENU_ON;
 248              		.loc 1 76 0
 249 0080 B04B     		ldr	r3, .L93+28	@ tmp284,
 250 0082 0022     		mov	r2, #0	@ tmp285,
 251 0084 1A70     		strb	r2, [r3]	@ tmp286, standalone_selections
  77:.\src/standalone.c **** 			}
  78:.\src/standalone.c **** 			break;
 252              		.loc 1 78 0
 253 0086 D6E1     		b	.L79	@
 254              	.L15:
  79:.\src/standalone.c **** 
  80:.\src/standalone.c **** 		case STAND_ALONE_UPDATE:
  81:.\src/standalone.c **** 			EXTIOff ();
 255              		.loc 1 81 0
 256 0088 FFF7FEFF 		bl	EXTIOff	@
  82:.\src/standalone.c **** 			standalone_dimming_last_slope = DIM_DOWN;
 257              		.loc 1 82 0
 258 008c AE4B     		ldr	r3, .L93+32	@ tmp287,
 259 008e 0122     		mov	r2, #1	@ tmp288,
 260 0090 1A70     		strb	r2, [r3]	@ tmp289, standalone_dimming_last_slope
  83:.\src/standalone.c **** 			standalone_dimming_last_value = StandAloneStruct_local.max_dimmer_value_dmx;
 261              		.loc 1 83 0
 262 0092 AA4B     		ldr	r3, .L93+20	@ tmp290,
 263 0094 1A79     		ldrb	r2, [r3, #4]	@ standalone_dimming_last_value.39,
 264 0096 AD4B     		ldr	r3, .L93+36	@ tmp291,
 265 0098 1A70     		strb	r2, [r3]	@ tmp292, standalone_dimming_last_value
  84:.\src/standalone.c **** 			standalone_state = STAND_ALONE_OFF;
 266              		.loc 1 84 0
 267 009a A34B     		ldr	r3, .L93	@ tmp293,
 268 009c 0222     		mov	r2, #2	@ tmp294,
 269 009e 1A70     		strb	r2, [r3]	@ tmp295, standalone_state
  85:.\src/standalone.c **** 			break;
 270              		.loc 1 85 0
 271 00a0 DCE1     		b	.L17	@
 272              	.L5:
  86:.\src/standalone.c **** 
  87:.\src/standalone.c **** 		case STAND_ALONE_OFF:
  88:.\src/standalone.c **** 			if (CheckACSw() > S_NO)	//estan prendiendo o queriendo dimerizar
 273              		.loc 1 88 0
 274 00a2 FFF7FEFF 		bl	CheckACSw	@
 275 00a6 031C     		mov	r3, r0	@ tmp296,
 276 00a8 002B     		cmp	r3, #0	@ D.6097,
 277 00aa 00D1     		bne	.LCB103	@
 278 00ac C5E1     		b	.L80	@long jump	@
 279              	.LCB103:
  89:.\src/standalone.c **** 			{
ARM GAS  C:\Users\Mariano\AppData\Local\Temp\cco1kxoW.s 			page 8


  90:.\src/standalone.c **** 				standalone_timer = 1500;
 280              		.loc 1 90 0
 281 00ae A04B     		ldr	r3, .L93+8	@ tmp298,
 282 00b0 A74A     		ldr	r2, .L93+40	@ tmp299,
 283 00b2 1A80     		strh	r2, [r3]	@ tmp300, standalone_timer
  91:.\src/standalone.c **** 				standalone_state = STAND_ALONE_OFF_1;
 284              		.loc 1 91 0
 285 00b4 9C4B     		ldr	r3, .L93	@ tmp301,
 286 00b6 0322     		mov	r2, #3	@ tmp302,
 287 00b8 1A70     		strb	r2, [r3]	@ tmp303, standalone_state
  92:.\src/standalone.c **** 			}
  93:.\src/standalone.c **** 			break;
 288              		.loc 1 93 0
 289 00ba BEE1     		b	.L80	@
 290              	.L6:
  94:.\src/standalone.c **** 
  95:.\src/standalone.c **** 		case STAND_ALONE_OFF_1:
  96:.\src/standalone.c **** 			if (CheckACSw() == S_NO)	//liberaron el sw
 291              		.loc 1 96 0
 292 00bc FFF7FEFF 		bl	CheckACSw	@
 293 00c0 031C     		mov	r3, r0	@ tmp304,
 294 00c2 002B     		cmp	r3, #0	@ D.6100,
 295 00c4 00D0     		beq	.LCB117	@
 296 00c6 BAE1     		b	.L81	@long jump	@
 297              	.LCB117:
  97:.\src/standalone.c **** 			{
  98:.\src/standalone.c **** 				RELAY_ON;
 298              		.loc 1 98 0
 299 00c8 9023     		mov	r3, #144	@ tmp596,
 300 00ca DB05     		lsl	r3, r3, #23	@ D.6103, tmp596,
 301 00cc 8022     		mov	r2, #128	@ tmp597,
 302 00ce 1201     		lsl	r2, r2, #4	@ tmp306, tmp597,
 303 00d0 9A61     		str	r2, [r3, #24]	@ tmp306, D.6103_12->BSRR
  99:.\src/standalone.c **** 				if (standalone_selections == MENU_OFF)
 304              		.loc 1 99 0
 305 00d2 9C4B     		ldr	r3, .L93+28	@ tmp307,
 306 00d4 1B78     		ldrb	r3, [r3]	@ standalone_selections.40, standalone_selections
 307 00d6 022B     		cmp	r3, #2	@ standalone_selections.40,
 308 00d8 06D1     		bne	.L21	@,
 100:.\src/standalone.c **** 				{
 101:.\src/standalone.c **** 					LCD_1ER_RENGLON;
 309              		.loc 1 101 0
 310 00da 0020     		mov	r0, #0	@,
 311 00dc FFF7FEFF 		bl	Lcd_SetDDRAM	@
 102:.\src/standalone.c **** 					LCDTransmitStr((const char *) "Switching ON... ");
 312              		.loc 1 102 0
 313 00e0 9C4B     		ldr	r3, .L93+44	@ tmp308,
 314 00e2 181C     		mov	r0, r3	@, tmp308
 315 00e4 FFF7FEFF 		bl	LCDTransmitStr	@
 316              	.L21:
 103:.\src/standalone.c **** 				}
 104:.\src/standalone.c **** 
 105:.\src/standalone.c **** 				if (standalone_dimming_last_value >= ONE_TEN_INITIAL)
 317              		.loc 1 105 0
 318 00e8 984B     		ldr	r3, .L93+36	@ tmp309,
 319 00ea 1B78     		ldrb	r3, [r3]	@ standalone_dimming_last_value.41, standalone_dimming_last_value
 320 00ec 322B     		cmp	r3, #50	@ standalone_dimming_last_value.41,
ARM GAS  C:\Users\Mariano\AppData\Local\Temp\cco1kxoW.s 			page 9


 321 00ee 06D9     		bls	.L22	@,
 106:.\src/standalone.c **** 				{
 107:.\src/standalone.c **** 					standalone_state = STAND_ALONE_RISING;
 322              		.loc 1 107 0
 323 00f0 8D4B     		ldr	r3, .L93	@ tmp310,
 324 00f2 0522     		mov	r2, #5	@ tmp311,
 325 00f4 1A70     		strb	r2, [r3]	@ tmp312, standalone_state
 108:.\src/standalone.c **** 					standalone_timer = 0;
 326              		.loc 1 108 0
 327 00f6 8E4B     		ldr	r3, .L93+8	@ tmp313,
 328 00f8 0022     		mov	r2, #0	@ tmp314,
 329 00fa 1A80     		strh	r2, [r3]	@ tmp315, standalone_timer
 109:.\src/standalone.c **** 				}
 110:.\src/standalone.c **** 				else
 111:.\src/standalone.c **** 				{
 112:.\src/standalone.c **** 					standalone_ii = ONE_TEN_INITIAL;
 113:.\src/standalone.c **** 					Update_TIM3_CH1 (standalone_ii);
 114:.\src/standalone.c **** 					standalone_timer = TT_STARTING;	//tarda 940 msegs en arrancar la fuente
 115:.\src/standalone.c **** 					standalone_state = STAND_ALONE_OFF_2;
 116:.\src/standalone.c **** 				}
 117:.\src/standalone.c **** 			}
 118:.\src/standalone.c **** 			break;
 330              		.loc 1 118 0
 331 00fc 9FE1     		b	.L81	@
 332              	.L22:
 112:.\src/standalone.c **** 					standalone_ii = ONE_TEN_INITIAL;
 333              		.loc 1 112 0
 334 00fe 964B     		ldr	r3, .L93+48	@ tmp316,
 335 0100 3322     		mov	r2, #51	@ tmp317,
 336 0102 1A80     		strh	r2, [r3]	@ tmp318, standalone_ii
 113:.\src/standalone.c **** 					Update_TIM3_CH1 (standalone_ii);
 337              		.loc 1 113 0
 338 0104 944B     		ldr	r3, .L93+48	@ tmp319,
 339 0106 1B88     		ldrh	r3, [r3]	@ standalone_ii.42, standalone_ii
 340 0108 181C     		mov	r0, r3	@, standalone_ii.42
 341 010a FFF7FEFF 		bl	Update_TIM3_CH1	@
 114:.\src/standalone.c **** 					standalone_timer = TT_STARTING;	//tarda 940 msegs en arrancar la fuente
 342              		.loc 1 114 0
 343 010e 884B     		ldr	r3, .L93+8	@ tmp320,
 344 0110 C822     		mov	r2, #200	@ tmp595,
 345 0112 5200     		lsl	r2, r2, #1	@ tmp321, tmp595,
 346 0114 1A80     		strh	r2, [r3]	@ tmp322, standalone_timer
 115:.\src/standalone.c **** 					standalone_state = STAND_ALONE_OFF_2;
 347              		.loc 1 115 0
 348 0116 844B     		ldr	r3, .L93	@ tmp323,
 349 0118 0422     		mov	r2, #4	@ tmp324,
 350 011a 1A70     		strb	r2, [r3]	@ tmp325, standalone_state
 351              		.loc 1 118 0
 352 011c 8FE1     		b	.L81	@
 353              	.L7:
 119:.\src/standalone.c **** 
 120:.\src/standalone.c **** 		case STAND_ALONE_OFF_2:
 121:.\src/standalone.c **** 			if (!standalone_timer)
 354              		.loc 1 121 0
 355 011e 844B     		ldr	r3, .L93+8	@ tmp326,
 356 0120 1B88     		ldrh	r3, [r3]	@ tmp327, standalone_timer
 357 0122 9BB2     		uxth	r3, r3	@ standalone_timer.43, tmp327
ARM GAS  C:\Users\Mariano\AppData\Local\Temp\cco1kxoW.s 			page 10


 358 0124 002B     		cmp	r3, #0	@ standalone_timer.43,
 359 0126 00D0     		beq	.LCB170	@
 360 0128 8BE1     		b	.L82	@long jump	@
 361              	.LCB170:
 122:.\src/standalone.c **** 			{
 123:.\src/standalone.c **** 				//standalone_timer = TT_RISING_FALLING;
 124:.\src/standalone.c **** 				standalone_timer = TT_RISING_FALLING_FIRST_TIME;
 362              		.loc 1 124 0
 363 012a 814B     		ldr	r3, .L93+8	@ tmp328,
 364 012c 0122     		mov	r2, #1	@ tmp329,
 365 012e 1A80     		strh	r2, [r3]	@ tmp330, standalone_timer
 125:.\src/standalone.c **** 				if (standalone_ii != standalone_dimming_last_value)
 366              		.loc 1 125 0
 367 0130 864B     		ldr	r3, .L93+36	@ tmp331,
 368 0132 1B78     		ldrb	r3, [r3]	@ standalone_dimming_last_value.44, standalone_dimming_last_value
 369 0134 1A1C     		mov	r2, r3	@ D.6116, standalone_dimming_last_value.44
 370 0136 884B     		ldr	r3, .L93+48	@ tmp332,
 371 0138 1B88     		ldrh	r3, [r3]	@ standalone_ii.45, standalone_ii
 372 013a 9A42     		cmp	r2, r3	@ D.6116, standalone_ii.45
 373 013c 19D0     		beq	.L24	@,
 126:.\src/standalone.c **** 				{
 127:.\src/standalone.c **** 					if (standalone_ii < standalone_dimming_last_value)
 374              		.loc 1 127 0
 375 013e 834B     		ldr	r3, .L93+36	@ tmp333,
 376 0140 1B78     		ldrb	r3, [r3]	@ standalone_dimming_last_value.46, standalone_dimming_last_value
 377 0142 1A1C     		mov	r2, r3	@ D.6121, standalone_dimming_last_value.46
 378 0144 844B     		ldr	r3, .L93+48	@ tmp334,
 379 0146 1B88     		ldrh	r3, [r3]	@ standalone_ii.47, standalone_ii
 380 0148 9A42     		cmp	r2, r3	@ D.6121, standalone_ii.47
 381 014a 06D9     		bls	.L25	@,
 128:.\src/standalone.c **** 						standalone_ii++;
 382              		.loc 1 128 0
 383 014c 824B     		ldr	r3, .L93+48	@ tmp335,
 384 014e 1B88     		ldrh	r3, [r3]	@ standalone_ii.48, standalone_ii
 385 0150 0133     		add	r3, r3, #1	@ tmp336,
 386 0152 9AB2     		uxth	r2, r3	@ standalone_ii.49, tmp336
 387 0154 804B     		ldr	r3, .L93+48	@ tmp337,
 388 0156 1A80     		strh	r2, [r3]	@ tmp338, standalone_ii
 389 0158 05E0     		b	.L26	@
 390              	.L25:
 129:.\src/standalone.c **** 					else
 130:.\src/standalone.c **** 						standalone_ii--;
 391              		.loc 1 130 0
 392 015a 7F4B     		ldr	r3, .L93+48	@ tmp339,
 393 015c 1B88     		ldrh	r3, [r3]	@ standalone_ii.50, standalone_ii
 394 015e 013B     		sub	r3, r3, #1	@ tmp340,
 395 0160 9AB2     		uxth	r2, r3	@ standalone_ii.51, tmp340
 396 0162 7D4B     		ldr	r3, .L93+48	@ tmp341,
 397 0164 1A80     		strh	r2, [r3]	@ tmp342, standalone_ii
 398              	.L26:
 131:.\src/standalone.c **** 
 132:.\src/standalone.c **** 					Update_TIM3_CH1 (standalone_ii);
 399              		.loc 1 132 0
 400 0166 7C4B     		ldr	r3, .L93+48	@ tmp343,
 401 0168 1B88     		ldrh	r3, [r3]	@ standalone_ii.52, standalone_ii
 402 016a 181C     		mov	r0, r3	@, standalone_ii.52
 403 016c FFF7FEFF 		bl	Update_TIM3_CH1	@
ARM GAS  C:\Users\Mariano\AppData\Local\Temp\cco1kxoW.s 			page 11


 133:.\src/standalone.c **** 				}
 134:.\src/standalone.c **** 				else
 135:.\src/standalone.c **** 				{
 136:.\src/standalone.c **** 					if (standalone_selections == MENU_OFF)
 137:.\src/standalone.c **** 					{
 138:.\src/standalone.c **** 						LCD_1ER_RENGLON;
 139:.\src/standalone.c **** 						LCDTransmitStr((const char *) "  Lights ON     ");
 140:.\src/standalone.c **** 					}
 141:.\src/standalone.c **** 					standalone_state = STAND_ALONE_ON;
 142:.\src/standalone.c **** 				}
 143:.\src/standalone.c **** 			}
 144:.\src/standalone.c **** 			break;
 404              		.loc 1 144 0
 405 0170 67E1     		b	.L82	@
 406              	.L24:
 136:.\src/standalone.c **** 					if (standalone_selections == MENU_OFF)
 407              		.loc 1 136 0
 408 0172 744B     		ldr	r3, .L93+28	@ tmp344,
 409 0174 1B78     		ldrb	r3, [r3]	@ standalone_selections.53, standalone_selections
 410 0176 022B     		cmp	r3, #2	@ standalone_selections.53,
 411 0178 06D1     		bne	.L27	@,
 138:.\src/standalone.c **** 						LCD_1ER_RENGLON;
 412              		.loc 1 138 0
 413 017a 0020     		mov	r0, #0	@,
 414 017c FFF7FEFF 		bl	Lcd_SetDDRAM	@
 139:.\src/standalone.c **** 						LCDTransmitStr((const char *) "  Lights ON     ");
 415              		.loc 1 139 0
 416 0180 764B     		ldr	r3, .L93+52	@ tmp345,
 417 0182 181C     		mov	r0, r3	@, tmp345
 418 0184 FFF7FEFF 		bl	LCDTransmitStr	@
 419              	.L27:
 141:.\src/standalone.c **** 					standalone_state = STAND_ALONE_ON;
 420              		.loc 1 141 0
 421 0188 674B     		ldr	r3, .L93	@ tmp346,
 422 018a 0622     		mov	r2, #6	@ tmp347,
 423 018c 1A70     		strb	r2, [r3]	@ tmp348, standalone_state
 424              		.loc 1 144 0
 425 018e 58E1     		b	.L82	@
 426              	.L8:
 145:.\src/standalone.c **** 
 146:.\src/standalone.c **** 		case STAND_ALONE_RISING:
 147:.\src/standalone.c **** 			if (!standalone_timer)
 427              		.loc 1 147 0
 428 0190 674B     		ldr	r3, .L93+8	@ tmp349,
 429 0192 1B88     		ldrh	r3, [r3]	@ tmp350, standalone_timer
 430 0194 9BB2     		uxth	r3, r3	@ standalone_timer.54, tmp350
 431 0196 002B     		cmp	r3, #0	@ standalone_timer.54,
 432 0198 00D0     		beq	.LCB236	@
 433 019a 54E1     		b	.L83	@long jump	@
 434              	.LCB236:
 148:.\src/standalone.c **** 			{
 149:.\src/standalone.c **** 				if (StandAloneStruct_local.power_up_timer_value > 255)
 435              		.loc 1 149 0
 436 019c 674B     		ldr	r3, .L93+20	@ tmp351,
 437 019e 1B89     		ldrh	r3, [r3, #8]	@ D.6138,
 438 01a0 FF2B     		cmp	r3, #255	@ D.6138,
 439 01a2 06D9     		bls	.L29	@,
ARM GAS  C:\Users\Mariano\AppData\Local\Temp\cco1kxoW.s 			page 12


 150:.\src/standalone.c **** 					standalone_timer = (StandAloneStruct_local.power_up_timer_value >> 8);
 440              		.loc 1 150 0
 441 01a4 654B     		ldr	r3, .L93+20	@ tmp352,
 442 01a6 1B89     		ldrh	r3, [r3, #8]	@ D.6141,
 443 01a8 1B0A     		lsr	r3, r3, #8	@ tmp353, D.6141,
 444 01aa 9AB2     		uxth	r2, r3	@ standalone_timer.55, tmp353
 445 01ac 604B     		ldr	r3, .L93+8	@ tmp354,
 446 01ae 1A80     		strh	r2, [r3]	@ tmp355, standalone_timer
 447 01b0 02E0     		b	.L30	@
 448              	.L29:
 151:.\src/standalone.c **** 				else
 152:.\src/standalone.c **** 					standalone_timer = TT_RISING_FALLING_FIRST_TIME;
 449              		.loc 1 152 0
 450 01b2 5F4B     		ldr	r3, .L93+8	@ tmp356,
 451 01b4 0122     		mov	r2, #1	@ tmp357,
 452 01b6 1A80     		strh	r2, [r3]	@ tmp358, standalone_timer
 453              	.L30:
 153:.\src/standalone.c **** 
 154:.\src/standalone.c **** 				if ((standalone_ii < standalone_dimming_last_value) && (standalone_ii < StandAloneStruct_local.
 454              		.loc 1 154 0
 455 01b8 644B     		ldr	r3, .L93+36	@ tmp359,
 456 01ba 1B78     		ldrb	r3, [r3]	@ standalone_dimming_last_value.56, standalone_dimming_last_value
 457 01bc 1A1C     		mov	r2, r3	@ D.6147, standalone_dimming_last_value.56
 458 01be 664B     		ldr	r3, .L93+48	@ tmp360,
 459 01c0 1B88     		ldrh	r3, [r3]	@ standalone_ii.57, standalone_ii
 460 01c2 9A42     		cmp	r2, r3	@ D.6147, standalone_ii.57
 461 01c4 12D9     		bls	.L31	@,
 462              		.loc 1 154 0 is_stmt 0 discriminator 1
 463 01c6 5D4B     		ldr	r3, .L93+20	@ tmp361,
 464 01c8 1B79     		ldrb	r3, [r3, #4]	@ D.6150,
 465 01ca 1A1C     		mov	r2, r3	@ D.6151, D.6150
 466 01cc 624B     		ldr	r3, .L93+48	@ tmp362,
 467 01ce 1B88     		ldrh	r3, [r3]	@ standalone_ii.58, standalone_ii
 468 01d0 9A42     		cmp	r2, r3	@ D.6151, standalone_ii.58
 469 01d2 0BD9     		bls	.L31	@,
 155:.\src/standalone.c **** 				{
 156:.\src/standalone.c **** 					Update_TIM3_CH1 (standalone_ii);
 470              		.loc 1 156 0 is_stmt 1
 471 01d4 604B     		ldr	r3, .L93+48	@ tmp363,
 472 01d6 1B88     		ldrh	r3, [r3]	@ standalone_ii.59, standalone_ii
 473 01d8 181C     		mov	r0, r3	@, standalone_ii.59
 474 01da FFF7FEFF 		bl	Update_TIM3_CH1	@
 157:.\src/standalone.c **** 					standalone_ii++;
 475              		.loc 1 157 0
 476 01de 5E4B     		ldr	r3, .L93+48	@ tmp364,
 477 01e0 1B88     		ldrh	r3, [r3]	@ standalone_ii.60, standalone_ii
 478 01e2 0133     		add	r3, r3, #1	@ tmp365,
 479 01e4 9AB2     		uxth	r2, r3	@ standalone_ii.61, tmp365
 480 01e6 5C4B     		ldr	r3, .L93+48	@ tmp366,
 481 01e8 1A80     		strh	r2, [r3]	@ tmp367, standalone_ii
 158:.\src/standalone.c **** 				}
 159:.\src/standalone.c **** 				else
 160:.\src/standalone.c **** 				{
 161:.\src/standalone.c **** 					if (standalone_selections == MENU_OFF)
 162:.\src/standalone.c **** 					{
 163:.\src/standalone.c **** 						LCD_1ER_RENGLON;
 164:.\src/standalone.c **** 						LCDTransmitStr((const char *) "  Lights ON     ");
ARM GAS  C:\Users\Mariano\AppData\Local\Temp\cco1kxoW.s 			page 13


 165:.\src/standalone.c **** 					}
 166:.\src/standalone.c **** 
 167:.\src/standalone.c **** 					standalone_state = STAND_ALONE_ON;
 168:.\src/standalone.c **** 				}
 169:.\src/standalone.c **** 			}
 170:.\src/standalone.c **** 			break;
 482              		.loc 1 170 0
 483 01ea 2CE1     		b	.L83	@
 484              	.L31:
 161:.\src/standalone.c **** 					if (standalone_selections == MENU_OFF)
 485              		.loc 1 161 0
 486 01ec 554B     		ldr	r3, .L93+28	@ tmp368,
 487 01ee 1B78     		ldrb	r3, [r3]	@ standalone_selections.62, standalone_selections
 488 01f0 022B     		cmp	r3, #2	@ standalone_selections.62,
 489 01f2 06D1     		bne	.L32	@,
 163:.\src/standalone.c **** 						LCD_1ER_RENGLON;
 490              		.loc 1 163 0
 491 01f4 0020     		mov	r0, #0	@,
 492 01f6 FFF7FEFF 		bl	Lcd_SetDDRAM	@
 164:.\src/standalone.c **** 						LCDTransmitStr((const char *) "  Lights ON     ");
 493              		.loc 1 164 0
 494 01fa 584B     		ldr	r3, .L93+52	@ tmp369,
 495 01fc 181C     		mov	r0, r3	@, tmp369
 496 01fe FFF7FEFF 		bl	LCDTransmitStr	@
 497              	.L32:
 167:.\src/standalone.c **** 					standalone_state = STAND_ALONE_ON;
 498              		.loc 1 167 0
 499 0202 494B     		ldr	r3, .L93	@ tmp370,
 500 0204 0622     		mov	r2, #6	@ tmp371,
 501 0206 1A70     		strb	r2, [r3]	@ tmp372, standalone_state
 502              		.loc 1 170 0
 503 0208 1DE1     		b	.L83	@
 504              	.L9:
 171:.\src/standalone.c **** 
 172:.\src/standalone.c **** 		case STAND_ALONE_ON:
 173:.\src/standalone.c **** 			if (CheckACSw() > S_NO)	//estan apagando o queriendo dimerizar
 505              		.loc 1 173 0
 506 020a FFF7FEFF 		bl	CheckACSw	@
 507 020e 031C     		mov	r3, r0	@ tmp373,
 508 0210 002B     		cmp	r3, #0	@ D.6160,
 509 0212 00D1     		bne	.LCB305	@
 510 0214 19E1     		b	.L84	@long jump	@
 511              	.LCB305:
 174:.\src/standalone.c **** 			{
 175:.\src/standalone.c **** 				standalone_timer = 1500;
 512              		.loc 1 175 0
 513 0216 464B     		ldr	r3, .L93+8	@ tmp375,
 514 0218 4D4A     		ldr	r2, .L93+40	@ tmp376,
 515 021a 1A80     		strh	r2, [r3]	@ tmp377, standalone_timer
 176:.\src/standalone.c **** 				standalone_state = STAND_ALONE_ON_1;
 516              		.loc 1 176 0
 517 021c 424B     		ldr	r3, .L93	@ tmp378,
 518 021e 0722     		mov	r2, #7	@ tmp379,
 519 0220 1A70     		strb	r2, [r3]	@ tmp380, standalone_state
 177:.\src/standalone.c **** 			}
 178:.\src/standalone.c **** 			break;
 520              		.loc 1 178 0
ARM GAS  C:\Users\Mariano\AppData\Local\Temp\cco1kxoW.s 			page 14


 521 0222 12E1     		b	.L84	@
 522              	.L10:
 179:.\src/standalone.c **** 
 180:.\src/standalone.c **** 		case STAND_ALONE_ON_1:
 181:.\src/standalone.c **** 			if (CheckACSw() == S_NO)	//liberaron el sw
 523              		.loc 1 181 0
 524 0224 FFF7FEFF 		bl	CheckACSw	@
 525 0228 031C     		mov	r3, r0	@ tmp381,
 526 022a 002B     		cmp	r3, #0	@ D.6163,
 527 022c 1AD1     		bne	.L34	@,
 182:.\src/standalone.c **** 			{
 183:.\src/standalone.c **** 				if (standalone_timer)	//apagaron
 528              		.loc 1 183 0
 529 022e 404B     		ldr	r3, .L93+8	@ tmp383,
 530 0230 1B88     		ldrh	r3, [r3]	@ tmp384, standalone_timer
 531 0232 9BB2     		uxth	r3, r3	@ standalone_timer.63, tmp384
 532 0234 002B     		cmp	r3, #0	@ standalone_timer.63,
 533 0236 15D0     		beq	.L34	@,
 184:.\src/standalone.c **** 				{
 185:.\src/standalone.c **** 					standalone_dimming_last_value = standalone_ii;
 534              		.loc 1 185 0
 535 0238 474B     		ldr	r3, .L93+48	@ tmp385,
 536 023a 1B88     		ldrh	r3, [r3]	@ standalone_ii.64, standalone_ii
 537 023c DAB2     		uxtb	r2, r3	@ standalone_dimming_last_value.65, standalone_ii.64
 538 023e 434B     		ldr	r3, .L93+36	@ tmp386,
 539 0240 1A70     		strb	r2, [r3]	@ tmp387, standalone_dimming_last_value
 186:.\src/standalone.c **** 					if (standalone_selections == MENU_OFF)
 540              		.loc 1 186 0
 541 0242 404B     		ldr	r3, .L93+28	@ tmp388,
 542 0244 1B78     		ldrb	r3, [r3]	@ standalone_selections.66, standalone_selections
 543 0246 022B     		cmp	r3, #2	@ standalone_selections.66,
 544 0248 06D1     		bne	.L35	@,
 187:.\src/standalone.c **** 					{
 188:.\src/standalone.c **** 						LCD_1ER_RENGLON;
 545              		.loc 1 188 0
 546 024a 0020     		mov	r0, #0	@,
 547 024c FFF7FEFF 		bl	Lcd_SetDDRAM	@
 189:.\src/standalone.c **** 						LCDTransmitStr((const char *) "Switching OFF...");
 548              		.loc 1 189 0
 549 0250 434B     		ldr	r3, .L93+56	@ tmp389,
 550 0252 181C     		mov	r0, r3	@, tmp389
 551 0254 FFF7FEFF 		bl	LCDTransmitStr	@
 552              	.L35:
 190:.\src/standalone.c **** 
 191:.\src/standalone.c **** 						//me fijo si estoy muy cerca del limite bajo
 192:.\src/standalone.c **** //						local = StandAloneStruct_local.min_dimmer_value_dmx - standalone_ii;
 193:.\src/standalone.c **** //						if ((local < 10) && (local > -10))
 194:.\src/standalone.c **** //							standalone_dimming_last_slope = DIM_UP;
 195:.\src/standalone.c **** 					}
 196:.\src/standalone.c **** 					standalone_state = STAND_ALONE_FALLING;
 553              		.loc 1 196 0
 554 0258 334B     		ldr	r3, .L93	@ tmp390,
 555 025a 0822     		mov	r2, #8	@ tmp391,
 556 025c 1A70     		strb	r2, [r3]	@ tmp392, standalone_state
 197:.\src/standalone.c **** 					standalone_timer = TT_RISING_FALLING;		//TODO guarda que me bloque el if de abajo
 557              		.loc 1 197 0
 558 025e 344B     		ldr	r3, .L93+8	@ tmp393,
ARM GAS  C:\Users\Mariano\AppData\Local\Temp\cco1kxoW.s 			page 15


 559 0260 0122     		mov	r2, #1	@ tmp394,
 560 0262 1A80     		strh	r2, [r3]	@ tmp395, standalone_timer
 561              	.L34:
 198:.\src/standalone.c **** 				}
 199:.\src/standalone.c **** 			}
 200:.\src/standalone.c **** 
 201:.\src/standalone.c **** 			if (!standalone_timer)		//estan dimerizando!!!
 562              		.loc 1 201 0
 563 0264 324B     		ldr	r3, .L93+8	@ tmp396,
 564 0266 1B88     		ldrh	r3, [r3]	@ tmp397, standalone_timer
 565 0268 9BB2     		uxth	r3, r3	@ standalone_timer.67, tmp397
 566 026a 002B     		cmp	r3, #0	@ standalone_timer.67,
 567 026c 00D0     		beq	.LCB353	@
 568 026e EEE0     		b	.L85	@long jump	@
 569              	.LCB353:
 202:.\src/standalone.c **** 				standalone_state = STAND_ALONE_DIMMING_LAST;
 570              		.loc 1 202 0
 571 0270 2D4B     		ldr	r3, .L93	@ tmp398,
 572 0272 0922     		mov	r2, #9	@ tmp399,
 573 0274 1A70     		strb	r2, [r3]	@ tmp400, standalone_state
 203:.\src/standalone.c **** 
 204:.\src/standalone.c **** 			break;
 574              		.loc 1 204 0
 575 0276 EAE0     		b	.L85	@
 576              	.L11:
 205:.\src/standalone.c **** 
 206:.\src/standalone.c **** 		case STAND_ALONE_FALLING:
 207:.\src/standalone.c **** 			if (!standalone_timer)
 577              		.loc 1 207 0
 578 0278 2D4B     		ldr	r3, .L93+8	@ tmp401,
 579 027a 1B88     		ldrh	r3, [r3]	@ tmp402, standalone_timer
 580 027c 9BB2     		uxth	r3, r3	@ standalone_timer.68, tmp402
 581 027e 002B     		cmp	r3, #0	@ standalone_timer.68,
 582 0280 00D0     		beq	.LCB365	@
 583 0282 E6E0     		b	.L86	@long jump	@
 584              	.LCB365:
 208:.\src/standalone.c **** 			{
 209:.\src/standalone.c **** 				if (StandAloneStruct_local.power_up_timer_value > 255)
 585              		.loc 1 209 0
 586 0284 2D4B     		ldr	r3, .L93+20	@ tmp403,
 587 0286 1B89     		ldrh	r3, [r3, #8]	@ D.6180,
 588 0288 FF2B     		cmp	r3, #255	@ D.6180,
 589 028a 06D9     		bls	.L38	@,
 210:.\src/standalone.c **** 					standalone_timer = (StandAloneStruct_local.power_up_timer_value >> 8);
 590              		.loc 1 210 0
 591 028c 2B4B     		ldr	r3, .L93+20	@ tmp404,
 592 028e 1B89     		ldrh	r3, [r3, #8]	@ D.6183,
 593 0290 1B0A     		lsr	r3, r3, #8	@ tmp405, D.6183,
 594 0292 9AB2     		uxth	r2, r3	@ standalone_timer.69, tmp405
 595 0294 264B     		ldr	r3, .L93+8	@ tmp406,
 596 0296 1A80     		strh	r2, [r3]	@ tmp407, standalone_timer
 597 0298 02E0     		b	.L39	@
 598              	.L38:
 211:.\src/standalone.c **** 				else
 212:.\src/standalone.c **** 					standalone_timer = TT_RISING_FALLING_FIRST_TIME;
 599              		.loc 1 212 0
 600 029a 254B     		ldr	r3, .L93+8	@ tmp408,
ARM GAS  C:\Users\Mariano\AppData\Local\Temp\cco1kxoW.s 			page 16


 601 029c 0122     		mov	r2, #1	@ tmp409,
 602 029e 1A80     		strh	r2, [r3]	@ tmp410, standalone_timer
 603              	.L39:
 213:.\src/standalone.c **** 
 214:.\src/standalone.c **** 				if (standalone_ii > 0)
 604              		.loc 1 214 0
 605 02a0 2D4B     		ldr	r3, .L93+48	@ tmp411,
 606 02a2 1B88     		ldrh	r3, [r3]	@ standalone_ii.70, standalone_ii
 607 02a4 002B     		cmp	r3, #0	@ standalone_ii.70,
 608 02a6 0BD0     		beq	.L40	@,
 215:.\src/standalone.c **** 				{
 216:.\src/standalone.c **** 					Update_TIM3_CH1 (standalone_ii);
 609              		.loc 1 216 0
 610 02a8 2B4B     		ldr	r3, .L93+48	@ tmp412,
 611 02aa 1B88     		ldrh	r3, [r3]	@ standalone_ii.71, standalone_ii
 612 02ac 181C     		mov	r0, r3	@, standalone_ii.71
 613 02ae FFF7FEFF 		bl	Update_TIM3_CH1	@
 217:.\src/standalone.c **** 					standalone_ii--;
 614              		.loc 1 217 0
 615 02b2 294B     		ldr	r3, .L93+48	@ tmp413,
 616 02b4 1B88     		ldrh	r3, [r3]	@ standalone_ii.72, standalone_ii
 617 02b6 013B     		sub	r3, r3, #1	@ tmp414,
 618 02b8 9AB2     		uxth	r2, r3	@ standalone_ii.73, tmp414
 619 02ba 274B     		ldr	r3, .L93+48	@ tmp415,
 620 02bc 1A80     		strh	r2, [r3]	@ tmp416, standalone_ii
 218:.\src/standalone.c **** 				}
 219:.\src/standalone.c **** 				else
 220:.\src/standalone.c **** 				{
 221:.\src/standalone.c **** 					Update_TIM3_CH1 (0);
 222:.\src/standalone.c **** 					standalone_state = STAND_ALONE_OFF;
 223:.\src/standalone.c **** 					if (standalone_selections == MENU_OFF)
 224:.\src/standalone.c **** 					{
 225:.\src/standalone.c **** 						LCD_1ER_RENGLON;
 226:.\src/standalone.c **** 						LCDTransmitStr((const char *) "  Lights OFF    ");
 227:.\src/standalone.c **** 					}
 228:.\src/standalone.c **** 					RELAY_OFF;
 229:.\src/standalone.c **** 				}
 230:.\src/standalone.c **** 			}
 231:.\src/standalone.c **** 			break;
 621              		.loc 1 231 0
 622 02be C8E0     		b	.L86	@
 623              	.L40:
 221:.\src/standalone.c **** 					Update_TIM3_CH1 (0);
 624              		.loc 1 221 0
 625 02c0 0020     		mov	r0, #0	@,
 626 02c2 FFF7FEFF 		bl	Update_TIM3_CH1	@
 222:.\src/standalone.c **** 					standalone_state = STAND_ALONE_OFF;
 627              		.loc 1 222 0
 628 02c6 184B     		ldr	r3, .L93	@ tmp417,
 629 02c8 0222     		mov	r2, #2	@ tmp418,
 630 02ca 1A70     		strb	r2, [r3]	@ tmp419, standalone_state
 223:.\src/standalone.c **** 					if (standalone_selections == MENU_OFF)
 631              		.loc 1 223 0
 632 02cc 1D4B     		ldr	r3, .L93+28	@ tmp420,
 633 02ce 1B78     		ldrb	r3, [r3]	@ standalone_selections.74, standalone_selections
 634 02d0 022B     		cmp	r3, #2	@ standalone_selections.74,
 635 02d2 06D1     		bne	.L41	@,
ARM GAS  C:\Users\Mariano\AppData\Local\Temp\cco1kxoW.s 			page 17


 225:.\src/standalone.c **** 						LCD_1ER_RENGLON;
 636              		.loc 1 225 0
 637 02d4 0020     		mov	r0, #0	@,
 638 02d6 FFF7FEFF 		bl	Lcd_SetDDRAM	@
 226:.\src/standalone.c **** 						LCDTransmitStr((const char *) "  Lights OFF    ");
 639              		.loc 1 226 0
 640 02da 224B     		ldr	r3, .L93+60	@ tmp421,
 641 02dc 181C     		mov	r0, r3	@, tmp421
 642 02de FFF7FEFF 		bl	LCDTransmitStr	@
 643              	.L41:
 228:.\src/standalone.c **** 					RELAY_OFF;
 644              		.loc 1 228 0
 645 02e2 9023     		mov	r3, #144	@ tmp593,
 646 02e4 DB05     		lsl	r3, r3, #23	@ D.6196, tmp593,
 647 02e6 8022     		mov	r2, #128	@ tmp594,
 648 02e8 1205     		lsl	r2, r2, #20	@ tmp422, tmp594,
 649 02ea 9A61     		str	r2, [r3, #24]	@ tmp422, D.6196_59->BSRR
 650              		.loc 1 231 0
 651 02ec B1E0     		b	.L86	@
 652              	.L12:
 232:.\src/standalone.c **** 
 233:.\src/standalone.c **** 		case STAND_ALONE_DIMMING_LAST:
 234:.\src/standalone.c **** 			if (standalone_dimming_last_slope == DIM_UP)
 653              		.loc 1 234 0
 654 02ee 164B     		ldr	r3, .L93+32	@ tmp423,
 655 02f0 1B78     		ldrb	r3, [r3]	@ standalone_dimming_last_slope.75, standalone_dimming_last_slope
 656 02f2 002B     		cmp	r3, #0	@ standalone_dimming_last_slope.75,
 657 02f4 03D1     		bne	.L42	@,
 235:.\src/standalone.c **** 				standalone_state = STAND_ALONE_DIMMING_UP;
 658              		.loc 1 235 0
 659 02f6 0C4B     		ldr	r3, .L93	@ tmp424,
 660 02f8 0A22     		mov	r2, #10	@ tmp425,
 661 02fa 1A70     		strb	r2, [r3]	@ tmp426, standalone_state
 236:.\src/standalone.c **** 			else
 237:.\src/standalone.c **** 				standalone_state = STAND_ALONE_DIMMING_DOWN;
 238:.\src/standalone.c **** 
 239:.\src/standalone.c **** 			break;
 662              		.loc 1 239 0
 663 02fc AEE0     		b	.L17	@
 664              	.L42:
 237:.\src/standalone.c **** 				standalone_state = STAND_ALONE_DIMMING_DOWN;
 665              		.loc 1 237 0
 666 02fe 0A4B     		ldr	r3, .L93	@ tmp427,
 667 0300 0B22     		mov	r2, #11	@ tmp428,
 668 0302 1A70     		strb	r2, [r3]	@ tmp429, standalone_state
 669              		.loc 1 239 0
 670 0304 AAE0     		b	.L17	@
 671              	.L13:
 240:.\src/standalone.c **** 
 241:.\src/standalone.c **** 		case STAND_ALONE_DIMMING_UP:
 242:.\src/standalone.c **** 			if (!standalone_timer)
 672              		.loc 1 242 0
 673 0306 0A4B     		ldr	r3, .L93+8	@ tmp430,
 674 0308 1B88     		ldrh	r3, [r3]	@ tmp431, standalone_timer
 675 030a 9BB2     		uxth	r3, r3	@ standalone_timer.76, tmp431
 676 030c 002B     		cmp	r3, #0	@ standalone_timer.76,
 677 030e 00D0     		beq	.LCB450	@
ARM GAS  C:\Users\Mariano\AppData\Local\Temp\cco1kxoW.s 			page 18


 678 0310 A1E0     		b	.L87	@long jump	@
 679              	.LCB450:
 243:.\src/standalone.c **** 			{
 244:.\src/standalone.c **** 				if (StandAloneStruct_local.dimming_up_timer_value > 255)
 680              		.loc 1 244 0
 681 0312 0A4B     		ldr	r3, .L93+20	@ tmp432,
 682 0314 5B89     		ldrh	r3, [r3, #10]	@ D.6204,
 683 0316 FF2B     		cmp	r3, #255	@ D.6204,
 684 0318 26D9     		bls	.L45	@,
 245:.\src/standalone.c **** 					standalone_timer = (StandAloneStruct_local.dimming_up_timer_value >> 8);
 685              		.loc 1 245 0
 686 031a 084B     		ldr	r3, .L93+20	@ tmp433,
 687 031c 5B89     		ldrh	r3, [r3, #10]	@ D.6207,
 688 031e 1B0A     		lsr	r3, r3, #8	@ tmp434, D.6207,
 689 0320 9AB2     		uxth	r2, r3	@ standalone_timer.77, tmp434
 690 0322 034B     		ldr	r3, .L93+8	@ tmp435,
 691 0324 1A80     		strh	r2, [r3]	@ tmp436, standalone_timer
 692 0326 22E0     		b	.L46	@
 693              	.L94:
 694              		.align	2
 695              	.L93:
 696 0328 00000000 		.word	standalone_state
 697 032c 00000000 		.word	.L16
 698 0330 00000000 		.word	standalone_timer
 699 0334 00000000 		.word	standalone_enable_menu_timer
 700 0338 30750000 		.word	30000
 701 033c 00000000 		.word	StandAloneStruct_local
 702 0340 00000000 		.word	StandAloneStruct_constant
 703 0344 00000000 		.word	standalone_selections
 704 0348 00000000 		.word	standalone_dimming_last_slope
 705 034c 00000000 		.word	standalone_dimming_last_value
 706 0350 DC050000 		.word	1500
 707 0354 00000000 		.word	.LC9
 708 0358 00000000 		.word	standalone_ii
 709 035c 14000000 		.word	.LC12
 710 0360 28000000 		.word	.LC14
 711 0364 3C000000 		.word	.LC16
 712              	.L45:
 246:.\src/standalone.c **** 				else
 247:.\src/standalone.c **** 					standalone_timer = TT_RISING_FALLING;
 713              		.loc 1 247 0
 714 0368 B74B     		ldr	r3, .L95	@ tmp437,
 715 036a 0122     		mov	r2, #1	@ tmp438,
 716 036c 1A80     		strh	r2, [r3]	@ tmp439, standalone_timer
 717              	.L46:
 248:.\src/standalone.c **** 
 249:.\src/standalone.c **** 				if (CheckACSw() > S_NO)
 718              		.loc 1 249 0
 719 036e FFF7FEFF 		bl	CheckACSw	@
 720 0372 031C     		mov	r3, r0	@ tmp440,
 721 0374 002B     		cmp	r3, #0	@ D.6210,
 722 0376 13D0     		beq	.L47	@,
 250:.\src/standalone.c **** 				{
 251:.\src/standalone.c **** 					if (standalone_ii < StandAloneStruct_local.max_dimmer_value_dmx)
 723              		.loc 1 251 0
 724 0378 B44B     		ldr	r3, .L95+4	@ tmp442,
 725 037a 1B79     		ldrb	r3, [r3, #4]	@ D.6213,
ARM GAS  C:\Users\Mariano\AppData\Local\Temp\cco1kxoW.s 			page 19


 726 037c 1A1C     		mov	r2, r3	@ D.6214, D.6213
 727 037e B44B     		ldr	r3, .L95+8	@ tmp443,
 728 0380 1B88     		ldrh	r3, [r3]	@ standalone_ii.78, standalone_ii
 729 0382 9A42     		cmp	r2, r3	@ D.6214, standalone_ii.78
 730 0384 00D8     		bhi	.LCB501	@
 731 0386 66E0     		b	.L87	@long jump	@
 732              	.LCB501:
 252:.\src/standalone.c **** 					{
 253:.\src/standalone.c **** 						standalone_ii++;
 733              		.loc 1 253 0
 734 0388 B14B     		ldr	r3, .L95+8	@ tmp444,
 735 038a 1B88     		ldrh	r3, [r3]	@ standalone_ii.79, standalone_ii
 736 038c 0133     		add	r3, r3, #1	@ tmp445,
 737 038e 9AB2     		uxth	r2, r3	@ standalone_ii.80, tmp445
 738 0390 AF4B     		ldr	r3, .L95+8	@ tmp446,
 739 0392 1A80     		strh	r2, [r3]	@ tmp447, standalone_ii
 254:.\src/standalone.c **** 						Update_TIM3_CH1 (standalone_ii);
 740              		.loc 1 254 0
 741 0394 AE4B     		ldr	r3, .L95+8	@ tmp448,
 742 0396 1B88     		ldrh	r3, [r3]	@ standalone_ii.81, standalone_ii
 743 0398 181C     		mov	r0, r3	@, standalone_ii.81
 744 039a FFF7FEFF 		bl	Update_TIM3_CH1	@
 255:.\src/standalone.c **** 					}
 256:.\src/standalone.c **** 				}
 257:.\src/standalone.c **** 				else	//si liberaron y estoy en maximo lo doy vuelta
 258:.\src/standalone.c **** 				{
 259:.\src/standalone.c **** 					if (standalone_ii >= StandAloneStruct_local.max_dimmer_value_dmx)
 260:.\src/standalone.c **** 						standalone_dimming_last_slope = DIM_DOWN;
 261:.\src/standalone.c **** 					standalone_state = STAND_ALONE_ON;
 262:.\src/standalone.c **** 				}
 263:.\src/standalone.c **** 			}
 264:.\src/standalone.c **** 			break;
 745              		.loc 1 264 0
 746 039e 5AE0     		b	.L87	@
 747              	.L47:
 259:.\src/standalone.c **** 					if (standalone_ii >= StandAloneStruct_local.max_dimmer_value_dmx)
 748              		.loc 1 259 0
 749 03a0 AA4B     		ldr	r3, .L95+4	@ tmp449,
 750 03a2 1B79     		ldrb	r3, [r3, #4]	@ D.6222,
 751 03a4 1A1C     		mov	r2, r3	@ D.6223, D.6222
 752 03a6 AA4B     		ldr	r3, .L95+8	@ tmp450,
 753 03a8 1B88     		ldrh	r3, [r3]	@ standalone_ii.82, standalone_ii
 754 03aa 9A42     		cmp	r2, r3	@ D.6223, standalone_ii.82
 755 03ac 02D8     		bhi	.L48	@,
 260:.\src/standalone.c **** 						standalone_dimming_last_slope = DIM_DOWN;
 756              		.loc 1 260 0
 757 03ae A94B     		ldr	r3, .L95+12	@ tmp451,
 758 03b0 0122     		mov	r2, #1	@ tmp452,
 759 03b2 1A70     		strb	r2, [r3]	@ tmp453, standalone_dimming_last_slope
 760              	.L48:
 261:.\src/standalone.c **** 					standalone_state = STAND_ALONE_ON;
 761              		.loc 1 261 0
 762 03b4 A84B     		ldr	r3, .L95+16	@ tmp454,
 763 03b6 0622     		mov	r2, #6	@ tmp455,
 764 03b8 1A70     		strb	r2, [r3]	@ tmp456, standalone_state
 765              		.loc 1 264 0
 766 03ba 4CE0     		b	.L87	@
ARM GAS  C:\Users\Mariano\AppData\Local\Temp\cco1kxoW.s 			page 20


 767              	.L14:
 265:.\src/standalone.c **** 
 266:.\src/standalone.c **** 		case STAND_ALONE_DIMMING_DOWN:
 267:.\src/standalone.c **** 			if (!standalone_timer)
 768              		.loc 1 267 0
 769 03bc A24B     		ldr	r3, .L95	@ tmp457,
 770 03be 1B88     		ldrh	r3, [r3]	@ tmp458, standalone_timer
 771 03c0 9BB2     		uxth	r3, r3	@ standalone_timer.83, tmp458
 772 03c2 002B     		cmp	r3, #0	@ standalone_timer.83,
 773 03c4 49D1     		bne	.L88	@,
 268:.\src/standalone.c **** 			{
 269:.\src/standalone.c **** 				if (StandAloneStruct_local.dimming_up_timer_value > 255)
 774              		.loc 1 269 0
 775 03c6 A14B     		ldr	r3, .L95+4	@ tmp459,
 776 03c8 5B89     		ldrh	r3, [r3, #10]	@ D.6230,
 777 03ca FF2B     		cmp	r3, #255	@ D.6230,
 778 03cc 06D9     		bls	.L50	@,
 270:.\src/standalone.c **** 					standalone_timer = (StandAloneStruct_local.dimming_up_timer_value >> 8);
 779              		.loc 1 270 0
 780 03ce 9F4B     		ldr	r3, .L95+4	@ tmp460,
 781 03d0 5B89     		ldrh	r3, [r3, #10]	@ D.6233,
 782 03d2 1B0A     		lsr	r3, r3, #8	@ tmp461, D.6233,
 783 03d4 9AB2     		uxth	r2, r3	@ standalone_timer.84, tmp461
 784 03d6 9C4B     		ldr	r3, .L95	@ tmp462,
 785 03d8 1A80     		strh	r2, [r3]	@ tmp463, standalone_timer
 786 03da 02E0     		b	.L51	@
 787              	.L50:
 271:.\src/standalone.c **** 				else
 272:.\src/standalone.c **** 					standalone_timer = TT_RISING_FALLING;
 788              		.loc 1 272 0
 789 03dc 9A4B     		ldr	r3, .L95	@ tmp464,
 790 03de 0122     		mov	r2, #1	@ tmp465,
 791 03e0 1A80     		strh	r2, [r3]	@ tmp466, standalone_timer
 792              	.L51:
 273:.\src/standalone.c **** 
 274:.\src/standalone.c **** 				if (CheckACSw() > S_NO)
 793              		.loc 1 274 0
 794 03e2 FFF7FEFF 		bl	CheckACSw	@
 795 03e6 031C     		mov	r3, r0	@ tmp467,
 796 03e8 002B     		cmp	r3, #0	@ D.6236,
 797 03ea 12D0     		beq	.L52	@,
 275:.\src/standalone.c **** 				{
 276:.\src/standalone.c **** 					if (standalone_ii > StandAloneStruct_local.min_dimmer_value_dmx)
 798              		.loc 1 276 0
 799 03ec 974B     		ldr	r3, .L95+4	@ tmp469,
 800 03ee 9B79     		ldrb	r3, [r3, #6]	@ D.6239,
 801 03f0 1A1C     		mov	r2, r3	@ D.6240, D.6239
 802 03f2 974B     		ldr	r3, .L95+8	@ tmp470,
 803 03f4 1B88     		ldrh	r3, [r3]	@ standalone_ii.85, standalone_ii
 804 03f6 9A42     		cmp	r2, r3	@ D.6240, standalone_ii.85
 805 03f8 2FD2     		bcs	.L88	@,
 277:.\src/standalone.c **** 					{
 278:.\src/standalone.c **** 						standalone_ii--;
 806              		.loc 1 278 0
 807 03fa 954B     		ldr	r3, .L95+8	@ tmp471,
 808 03fc 1B88     		ldrh	r3, [r3]	@ standalone_ii.86, standalone_ii
 809 03fe 013B     		sub	r3, r3, #1	@ tmp472,
ARM GAS  C:\Users\Mariano\AppData\Local\Temp\cco1kxoW.s 			page 21


 810 0400 9AB2     		uxth	r2, r3	@ standalone_ii.87, tmp472
 811 0402 934B     		ldr	r3, .L95+8	@ tmp473,
 812 0404 1A80     		strh	r2, [r3]	@ tmp474, standalone_ii
 279:.\src/standalone.c **** 						Update_TIM3_CH1 (standalone_ii);
 813              		.loc 1 279 0
 814 0406 924B     		ldr	r3, .L95+8	@ tmp475,
 815 0408 1B88     		ldrh	r3, [r3]	@ standalone_ii.88, standalone_ii
 816 040a 181C     		mov	r0, r3	@, standalone_ii.88
 817 040c FFF7FEFF 		bl	Update_TIM3_CH1	@
 280:.\src/standalone.c **** 					}
 281:.\src/standalone.c **** 				}
 282:.\src/standalone.c **** 				else	//si liberaron y estoy en minimo lo doy vuelta
 283:.\src/standalone.c **** 				{
 284:.\src/standalone.c **** 					if (standalone_ii <= StandAloneStruct_local.min_dimmer_value_dmx)
 285:.\src/standalone.c **** 						standalone_dimming_last_slope = DIM_UP;
 286:.\src/standalone.c **** 					standalone_state = STAND_ALONE_ON;
 287:.\src/standalone.c **** 				}
 288:.\src/standalone.c **** 			}
 289:.\src/standalone.c **** 			break;
 818              		.loc 1 289 0
 819 0410 23E0     		b	.L88	@
 820              	.L52:
 284:.\src/standalone.c **** 					if (standalone_ii <= StandAloneStruct_local.min_dimmer_value_dmx)
 821              		.loc 1 284 0
 822 0412 8E4B     		ldr	r3, .L95+4	@ tmp476,
 823 0414 9B79     		ldrb	r3, [r3, #6]	@ D.6248,
 824 0416 1A1C     		mov	r2, r3	@ D.6249, D.6248
 825 0418 8D4B     		ldr	r3, .L95+8	@ tmp477,
 826 041a 1B88     		ldrh	r3, [r3]	@ standalone_ii.89, standalone_ii
 827 041c 9A42     		cmp	r2, r3	@ D.6249, standalone_ii.89
 828 041e 02D3     		bcc	.L53	@,
 285:.\src/standalone.c **** 						standalone_dimming_last_slope = DIM_UP;
 829              		.loc 1 285 0
 830 0420 8C4B     		ldr	r3, .L95+12	@ tmp478,
 831 0422 0022     		mov	r2, #0	@ tmp479,
 832 0424 1A70     		strb	r2, [r3]	@ tmp480, standalone_dimming_last_slope
 833              	.L53:
 286:.\src/standalone.c **** 					standalone_state = STAND_ALONE_ON;
 834              		.loc 1 286 0
 835 0426 8C4B     		ldr	r3, .L95+16	@ tmp481,
 836 0428 0622     		mov	r2, #6	@ tmp482,
 837 042a 1A70     		strb	r2, [r3]	@ tmp483, standalone_state
 838              		.loc 1 289 0
 839 042c 15E0     		b	.L88	@
 840              	.L2:
 290:.\src/standalone.c **** 
 291:.\src/standalone.c **** 		default:
 292:.\src/standalone.c **** 			standalone_state = STAND_ALONE_INIT;
 841              		.loc 1 292 0
 842 042e 8A4B     		ldr	r3, .L95+16	@ tmp484,
 843 0430 0022     		mov	r2, #0	@ tmp485,
 844 0432 1A70     		strb	r2, [r3]	@ tmp486, standalone_state
 293:.\src/standalone.c **** 			break;
 845              		.loc 1 293 0
 846 0434 12E0     		b	.L17	@
 847              	.L79:
  78:.\src/standalone.c **** 			break;
ARM GAS  C:\Users\Mariano\AppData\Local\Temp\cco1kxoW.s 			page 22


 848              		.loc 1 78 0
 849 0436 C046     		mov	r8, r8
 850 0438 10E0     		b	.L17	@
 851              	.L80:
  93:.\src/standalone.c **** 			break;
 852              		.loc 1 93 0
 853 043a C046     		mov	r8, r8
 854 043c 0EE0     		b	.L17	@
 855              	.L81:
 118:.\src/standalone.c **** 			break;
 856              		.loc 1 118 0
 857 043e C046     		mov	r8, r8
 858 0440 0CE0     		b	.L17	@
 859              	.L82:
 144:.\src/standalone.c **** 			break;
 860              		.loc 1 144 0
 861 0442 C046     		mov	r8, r8
 862 0444 0AE0     		b	.L17	@
 863              	.L83:
 170:.\src/standalone.c **** 			break;
 864              		.loc 1 170 0
 865 0446 C046     		mov	r8, r8
 866 0448 08E0     		b	.L17	@
 867              	.L84:
 178:.\src/standalone.c **** 			break;
 868              		.loc 1 178 0
 869 044a C046     		mov	r8, r8
 870 044c 06E0     		b	.L17	@
 871              	.L85:
 204:.\src/standalone.c **** 			break;
 872              		.loc 1 204 0
 873 044e C046     		mov	r8, r8
 874 0450 04E0     		b	.L17	@
 875              	.L86:
 231:.\src/standalone.c **** 			break;
 876              		.loc 1 231 0
 877 0452 C046     		mov	r8, r8
 878 0454 02E0     		b	.L17	@
 879              	.L87:
 264:.\src/standalone.c **** 			break;
 880              		.loc 1 264 0
 881 0456 C046     		mov	r8, r8
 882 0458 00E0     		b	.L17	@
 883              	.L88:
 289:.\src/standalone.c **** 			break;
 884              		.loc 1 289 0
 885 045a C046     		mov	r8, r8
 886              	.L17:
 294:.\src/standalone.c **** 	}
 295:.\src/standalone.c **** 
 296:.\src/standalone.c **** 
 297:.\src/standalone.c **** 	//veo el menu solo si alguien toca los botones o timeout
 298:.\src/standalone.c **** 	switch (standalone_selections)
 887              		.loc 1 298 0
 888 045c 7F4B     		ldr	r3, .L95+20	@ tmp487,
 889 045e 1B78     		ldrb	r3, [r3]	@ standalone_selections.90, standalone_selections
 890 0460 012B     		cmp	r3, #1	@ D.6254,
ARM GAS  C:\Users\Mariano\AppData\Local\Temp\cco1kxoW.s 			page 23


 891 0462 4DD0     		beq	.L56	@,
 892 0464 02DC     		bgt	.L59	@,
 893 0466 002B     		cmp	r3, #0	@ D.6254,
 894 0468 06D0     		beq	.L55	@,
 895 046a D3E0     		b	.L54	@
 896              	.L59:
 897 046c 022B     		cmp	r3, #2	@ D.6254,
 898 046e 60D0     		beq	.L57	@,
 899 0470 032B     		cmp	r3, #3	@ D.6254,
 900 0472 00D1     		bne	.LCB673	@
 901 0474 7FE0     		b	.L58	@long jump	@
 902              	.LCB673:
 903 0476 CDE0     		b	.L54	@
 904              	.L55:
 299:.\src/standalone.c **** 	{
 300:.\src/standalone.c **** 		case MENU_ON:
 301:.\src/standalone.c **** 			//estado normal
 302:.\src/standalone.c **** 			//resp_down = MenuStandAlone(MENU_NORMAL);
 303:.\src/standalone.c **** 			resp_down = MenuStandAlone();
 905              		.loc 1 303 0
 906 0478 6C46     		mov	r4, sp	@ tmp488,
 907 047a 0634     		add	r4, r4, #6	@ tmp488,
 908 047c FFF7FEFF 		bl	MenuStandAlone	@
 909 0480 031C     		mov	r3, r0	@ tmp489,
 910 0482 2370     		strb	r3, [r4]	@ tmp491, resp_down
 304:.\src/standalone.c **** 
 305:.\src/standalone.c **** 			if (resp_down == RESP_WORKING)	//alguien esta tratando de seleccionar algo, le doy tiempo
 911              		.loc 1 305 0
 912 0484 6B46     		mov	r3, sp	@ tmp492,
 913 0486 0633     		add	r3, r3, #6	@ tmp492,
 914 0488 1B78     		ldrb	r3, [r3]	@ tmp493, resp_down
 915 048a 042B     		cmp	r3, #4	@ tmp493,
 916 048c 02D1     		bne	.L60	@,
 306:.\src/standalone.c **** 				standalone_enable_menu_timer = TT_MENU_TIMEOUT;
 917              		.loc 1 306 0
 918 048e 744B     		ldr	r3, .L95+24	@ tmp494,
 919 0490 744A     		ldr	r2, .L95+28	@ tmp495,
 920 0492 1A80     		strh	r2, [r3]	@ tmp496, standalone_enable_menu_timer
 921              	.L60:
 307:.\src/standalone.c **** 
 308:.\src/standalone.c **** 			if (resp_down == RESP_SELECTED)	//se selecciono algo
 922              		.loc 1 308 0
 923 0494 6B46     		mov	r3, sp	@ tmp497,
 924 0496 0633     		add	r3, r3, #6	@ tmp497,
 925 0498 1B78     		ldrb	r3, [r3]	@ tmp498, resp_down
 926 049a 012B     		cmp	r3, #1	@ tmp498,
 927 049c 18D1     		bne	.L61	@,
 309:.\src/standalone.c **** 			{
 310:.\src/standalone.c **** 				standalone_enable_menu_timer = TT_MENU_TIMEOUT;
 928              		.loc 1 310 0
 929 049e 704B     		ldr	r3, .L95+24	@ tmp499,
 930 04a0 704A     		ldr	r2, .L95+28	@ tmp500,
 931 04a2 1A80     		strh	r2, [r3]	@ tmp501, standalone_enable_menu_timer
 311:.\src/standalone.c **** 				//standalone_state = STAND_ALONE_INIT;
 312:.\src/standalone.c **** 				if (RELAY)
 932              		.loc 1 312 0
 933 04a4 9023     		mov	r3, #144	@ tmp591,
ARM GAS  C:\Users\Mariano\AppData\Local\Temp\cco1kxoW.s 			page 24


 934 04a6 DB05     		lsl	r3, r3, #23	@ D.6259, tmp591,
 935 04a8 9B8A     		ldrh	r3, [r3, #20]	@ tmp502,
 936 04aa 9BB2     		uxth	r3, r3	@ D.6260, tmp502
 937 04ac 1A1C     		mov	r2, r3	@ D.6261, D.6260
 938 04ae 8023     		mov	r3, #128	@ tmp592,
 939 04b0 1B01     		lsl	r3, r3, #4	@ tmp503, tmp592,
 940 04b2 1340     		and	r3, r2	@ D.6262, D.6261
 941 04b4 03D0     		beq	.L62	@,
 313:.\src/standalone.c **** 					standalone_state = STAND_ALONE_ON;
 942              		.loc 1 313 0
 943 04b6 684B     		ldr	r3, .L95+16	@ tmp504,
 944 04b8 0622     		mov	r2, #6	@ tmp505,
 945 04ba 1A70     		strb	r2, [r3]	@ tmp506, standalone_state
 946 04bc 02E0     		b	.L63	@
 947              	.L62:
 314:.\src/standalone.c **** 				else
 315:.\src/standalone.c **** 					standalone_state = STAND_ALONE_OFF;
 948              		.loc 1 315 0
 949 04be 664B     		ldr	r3, .L95+16	@ tmp507,
 950 04c0 0222     		mov	r2, #2	@ tmp508,
 951 04c2 1A70     		strb	r2, [r3]	@ tmp509, standalone_state
 952              	.L63:
 316:.\src/standalone.c **** 				standalone_selections++;
 953              		.loc 1 316 0
 954 04c4 654B     		ldr	r3, .L95+20	@ tmp510,
 955 04c6 1B78     		ldrb	r3, [r3]	@ standalone_selections.91, standalone_selections
 956 04c8 0133     		add	r3, r3, #1	@ tmp511,
 957 04ca DAB2     		uxtb	r2, r3	@ standalone_selections.92, tmp511
 958 04cc 634B     		ldr	r3, .L95+20	@ tmp512,
 959 04ce 1A70     		strb	r2, [r3]	@ tmp513, standalone_selections
 960              	.L61:
 317:.\src/standalone.c **** 			}
 318:.\src/standalone.c **** 
 319:.\src/standalone.c **** 			if (!standalone_enable_menu_timer)	//ya mostre el menu mucho tiempo, lo apago
 961              		.loc 1 319 0
 962 04d0 634B     		ldr	r3, .L95+24	@ tmp514,
 963 04d2 1B88     		ldrh	r3, [r3]	@ tmp515, standalone_enable_menu_timer
 964 04d4 9BB2     		uxth	r3, r3	@ standalone_enable_menu_timer.93, tmp515
 965 04d6 002B     		cmp	r3, #0	@ standalone_enable_menu_timer.93,
 966 04d8 00D0     		beq	.LCB735	@
 967 04da 9FE0     		b	.L89	@long jump	@
 968              	.LCB735:
 320:.\src/standalone.c **** 			{
 321:.\src/standalone.c **** 				LCD_1ER_RENGLON;
 969              		.loc 1 321 0
 970 04dc 0020     		mov	r0, #0	@,
 971 04de FFF7FEFF 		bl	Lcd_SetDDRAM	@
 322:.\src/standalone.c **** 				LCDTransmitStr((const char *)s_blank_line);
 972              		.loc 1 322 0
 973 04e2 614B     		ldr	r3, .L95+32	@ tmp516,
 974 04e4 181C     		mov	r0, r3	@, tmp516
 975 04e6 FFF7FEFF 		bl	LCDTransmitStr	@
 323:.\src/standalone.c **** 				LCD_2DO_RENGLON;
 976              		.loc 1 323 0
 977 04ea 4020     		mov	r0, #64	@,
 978 04ec FFF7FEFF 		bl	Lcd_SetDDRAM	@
 324:.\src/standalone.c **** 				LCDTransmitStr((const char *)s_blank_line);
ARM GAS  C:\Users\Mariano\AppData\Local\Temp\cco1kxoW.s 			page 25


 979              		.loc 1 324 0
 980 04f0 5D4B     		ldr	r3, .L95+32	@ tmp517,
 981 04f2 181C     		mov	r0, r3	@, tmp517
 982 04f4 FFF7FEFF 		bl	LCDTransmitStr	@
 325:.\src/standalone.c **** 				standalone_selections = MENU_OFF;
 983              		.loc 1 325 0
 984 04f8 584B     		ldr	r3, .L95+20	@ tmp518,
 985 04fa 0222     		mov	r2, #2	@ tmp519,
 986 04fc 1A70     		strb	r2, [r3]	@ tmp520, standalone_selections
 326:.\src/standalone.c **** 			}
 327:.\src/standalone.c **** 			break;
 987              		.loc 1 327 0
 988 04fe 8DE0     		b	.L89	@
 989              	.L56:
 328:.\src/standalone.c **** 
 329:.\src/standalone.c **** 		case MENU_SELECTED:
 330:.\src/standalone.c **** 			//estado algo seleccionado espero update
 331:.\src/standalone.c **** 			resp_down = FuncShowBlink ((const char *) "Something Select", (const char *) "Updating Values", 
 990              		.loc 1 331 0
 991 0500 6C46     		mov	r4, sp	@ tmp521,
 992 0502 0634     		add	r4, r4, #6	@ tmp521,
 993 0504 594A     		ldr	r2, .L95+36	@ tmp522,
 994 0506 5A4B     		ldr	r3, .L95+40	@ tmp523,
 995 0508 101C     		mov	r0, r2	@, tmp522
 996 050a 191C     		mov	r1, r3	@, tmp523
 997 050c 0122     		mov	r2, #1	@,
 998 050e 0223     		mov	r3, #2	@,
 999 0510 FFF7FEFF 		bl	FuncShowBlink	@
 1000 0514 031C     		mov	r3, r0	@ tmp524,
 1001 0516 2370     		strb	r3, [r4]	@ tmp526, resp_down
 332:.\src/standalone.c **** 
 333:.\src/standalone.c **** 			if (resp_down == RESP_FINISH)
 1002              		.loc 1 333 0
 1003 0518 6B46     		mov	r3, sp	@ tmp527,
 1004 051a 0633     		add	r3, r3, #6	@ tmp527,
 1005 051c 1B78     		ldrb	r3, [r3]	@ tmp528, resp_down
 1006 051e 0A2B     		cmp	r3, #10	@ tmp528,
 1007 0520 00D0     		beq	.LCB768	@
 1008 0522 7DE0     		b	.L90	@long jump	@
 1009              	.LCB768:
 334:.\src/standalone.c **** 			{
 335:.\src/standalone.c **** 				standalone_state = STAND_ALONE_UPDATE;
 1010              		.loc 1 335 0
 1011 0524 4C4B     		ldr	r3, .L95+16	@ tmp529,
 1012 0526 1422     		mov	r2, #20	@ tmp530,
 1013 0528 1A70     		strb	r2, [r3]	@ tmp531, standalone_state
 336:.\src/standalone.c **** 				standalone_selections = MENU_ON;
 1014              		.loc 1 336 0
 1015 052a 4C4B     		ldr	r3, .L95+20	@ tmp532,
 1016 052c 0022     		mov	r2, #0	@ tmp533,
 1017 052e 1A70     		strb	r2, [r3]	@ tmp534, standalone_selections
 337:.\src/standalone.c **** 			}
 338:.\src/standalone.c **** 			break;
 1018              		.loc 1 338 0
 1019 0530 76E0     		b	.L90	@
 1020              	.L57:
 339:.\src/standalone.c **** 
ARM GAS  C:\Users\Mariano\AppData\Local\Temp\cco1kxoW.s 			page 26


 340:.\src/standalone.c **** 		case MENU_OFF:
 341:.\src/standalone.c **** 			//estado menu apagado
 342:.\src/standalone.c **** 			if ((CheckS1() > S_NO) || (CheckS2() > S_NO))
 1021              		.loc 1 342 0
 1022 0532 FFF7FEFF 		bl	CheckS1	@
 1023 0536 031C     		mov	r3, r0	@ tmp535,
 1024 0538 002B     		cmp	r3, #0	@ D.6275,
 1025 053a 05D1     		bne	.L67	@,
 1026              		.loc 1 342 0 is_stmt 0 discriminator 1
 1027 053c FFF7FEFF 		bl	CheckS2	@
 1028 0540 031C     		mov	r3, r0	@ tmp537,
 1029 0542 002B     		cmp	r3, #0	@ D.6277,
 1030 0544 00D1     		bne	.LCB786	@
 1031 0546 6DE0     		b	.L91	@long jump	@
 1032              	.LCB786:
 1033              	.L67:
 343:.\src/standalone.c **** 			{
 344:.\src/standalone.c **** 				standalone_enable_menu_timer = TT_MENU_TIMEOUT;			//vuelvo a mostrar
 1034              		.loc 1 344 0 is_stmt 1
 1035 0548 454B     		ldr	r3, .L95+24	@ tmp539,
 1036 054a 464A     		ldr	r2, .L95+28	@ tmp540,
 1037 054c 1A80     		strh	r2, [r3]	@ tmp541, standalone_enable_menu_timer
 345:.\src/standalone.c **** 				LCD_1ER_RENGLON;
 1038              		.loc 1 345 0
 1039 054e 0020     		mov	r0, #0	@,
 1040 0550 FFF7FEFF 		bl	Lcd_SetDDRAM	@
 346:.\src/standalone.c **** 				LCDTransmitStr((const char *) "wait to free    ");
 1041              		.loc 1 346 0
 1042 0554 474B     		ldr	r3, .L95+44	@ tmp542,
 1043 0556 181C     		mov	r0, r3	@, tmp542
 1044 0558 FFF7FEFF 		bl	LCDTransmitStr	@
 347:.\src/standalone.c **** 
 348:.\src/standalone.c **** 				standalone_selections++;
 1045              		.loc 1 348 0
 1046 055c 3F4B     		ldr	r3, .L95+20	@ tmp543,
 1047 055e 1B78     		ldrb	r3, [r3]	@ standalone_selections.94, standalone_selections
 1048 0560 0133     		add	r3, r3, #1	@ tmp544,
 1049 0562 DAB2     		uxtb	r2, r3	@ standalone_selections.95, tmp544
 1050 0564 3D4B     		ldr	r3, .L95+20	@ tmp545,
 1051 0566 1A70     		strb	r2, [r3]	@ tmp546, standalone_selections
 349:.\src/standalone.c **** 
 350:.\src/standalone.c **** 				if (standalone_state == STAND_ALONE_SHOW_CONF)
 1052              		.loc 1 350 0
 1053 0568 3B4B     		ldr	r3, .L95+16	@ tmp547,
 1054 056a 1B78     		ldrb	r3, [r3]	@ standalone_state.96, standalone_state
 1055 056c 012B     		cmp	r3, #1	@ standalone_state.96,
 1056 056e 59D1     		bne	.L91	@,
 351:.\src/standalone.c **** 					ShowConfStandAloneResetEnd();
 1057              		.loc 1 351 0
 1058 0570 FFF7FEFF 		bl	ShowConfStandAloneResetEnd	@
 352:.\src/standalone.c **** 			}
 353:.\src/standalone.c **** 			break;
 1059              		.loc 1 353 0
 1060 0574 56E0     		b	.L91	@
 1061              	.L58:
 354:.\src/standalone.c **** 
 355:.\src/standalone.c **** 		case MENU_WAIT_FREE:
ARM GAS  C:\Users\Mariano\AppData\Local\Temp\cco1kxoW.s 			page 27


 356:.\src/standalone.c **** 			if ((CheckS1() == S_NO) && (CheckS2() == S_NO))
 1062              		.loc 1 356 0
 1063 0576 FFF7FEFF 		bl	CheckS1	@
 1064 057a 031C     		mov	r3, r0	@ tmp548,
 1065 057c 002B     		cmp	r3, #0	@ D.6283,
 1066 057e 53D1     		bne	.L92	@,
 1067              		.loc 1 356 0 is_stmt 0 discriminator 1
 1068 0580 FFF7FEFF 		bl	CheckS2	@
 1069 0584 031C     		mov	r3, r0	@ tmp550,
 1070 0586 002B     		cmp	r3, #0	@ D.6286,
 1071 0588 4ED1     		bne	.L92	@,
 357:.\src/standalone.c **** 			{
 358:.\src/standalone.c **** 				standalone_selections = MENU_ON;
 1072              		.loc 1 358 0 is_stmt 1
 1073 058a 344B     		ldr	r3, .L95+20	@ tmp552,
 1074 058c 0022     		mov	r2, #0	@ tmp553,
 1075 058e 1A70     		strb	r2, [r3]	@ tmp554, standalone_selections
 359:.\src/standalone.c **** 				//voy a activar el Menu
 360:.\src/standalone.c **** 				//me fijo en ue parte del Menu estaba
 361:.\src/standalone.c **** 				//TODO ES UNA CHANCHADA, PERO BUENO...
 362:.\src/standalone.c **** 				if (standalone_menu_state <= STAND_ALONE_MENU_RAMP_ON_DIMMING)
 1076              		.loc 1 362 0
 1077 0590 394B     		ldr	r3, .L95+48	@ tmp555,
 1078 0592 1B78     		ldrb	r3, [r3]	@ standalone_menu_state.97, standalone_menu_state
 1079 0594 062B     		cmp	r3, #6	@ standalone_menu_state.97,
 1080 0596 07D8     		bhi	.L70	@,
 363:.\src/standalone.c **** 				{
 364:.\src/standalone.c **** 					//salgo directo
 365:.\src/standalone.c **** 					LCD_2DO_RENGLON;
 1081              		.loc 1 365 0
 1082 0598 4020     		mov	r0, #64	@,
 1083 059a FFF7FEFF 		bl	Lcd_SetDDRAM	@
 366:.\src/standalone.c **** 					LCDTransmitStr((const char *) "Cont.     Select");
 1084              		.loc 1 366 0
 1085 059e 374B     		ldr	r3, .L95+52	@ tmp556,
 1086 05a0 181C     		mov	r0, r3	@, tmp556
 1087 05a2 FFF7FEFF 		bl	LCDTransmitStr	@
 367:.\src/standalone.c **** 				}
 368:.\src/standalone.c **** 				else
 369:.\src/standalone.c **** 				{
 370:.\src/standalone.c **** 					if (standalone_menu_state <= STAND_ALONE_MENU_MOV_SENS_SELECTED_2)
 371:.\src/standalone.c **** 					{
 372:.\src/standalone.c **** 						standalone_menu_state = STAND_ALONE_MENU_MOV_SENS;
 373:.\src/standalone.c **** 					}
 374:.\src/standalone.c **** 					else if (standalone_menu_state <= STAND_ALONE_MENU_LDR_SELECTED_5)
 375:.\src/standalone.c **** 					{
 376:.\src/standalone.c **** 						standalone_menu_state = STAND_ALONE_MENU_LDR;
 377:.\src/standalone.c **** 					}
 378:.\src/standalone.c **** 					else if (standalone_menu_state <= STAND_ALONE_MENU_MAX_DIMMING_SELECTED_1)
 379:.\src/standalone.c **** 					{
 380:.\src/standalone.c **** 						standalone_menu_state = STAND_ALONE_MENU_MAX_DIMMING;
 381:.\src/standalone.c **** 					}
 382:.\src/standalone.c **** 					else if (standalone_menu_state <= STAND_ALONE_MENU_MIN_DIMMING_SELECTED_1)
 383:.\src/standalone.c **** 					{
 384:.\src/standalone.c **** 						standalone_menu_state = STAND_ALONE_MENU_MIN_DIMMING;
 385:.\src/standalone.c **** 					}
 386:.\src/standalone.c **** 					else if (standalone_menu_state <= STAND_ALONE_MENU_RAMP_ON_START_SELECTED_1)
ARM GAS  C:\Users\Mariano\AppData\Local\Temp\cco1kxoW.s 			page 28


 387:.\src/standalone.c **** 					{
 388:.\src/standalone.c **** 						standalone_menu_state =STAND_ALONE_MENU_RAMP_ON_START;
 389:.\src/standalone.c **** 					}
 390:.\src/standalone.c **** 					else if (standalone_menu_state <= STAND_ALONE_MENU_RAMP_ON_DIMMING_SELECTED_1)
 391:.\src/standalone.c **** 					{
 392:.\src/standalone.c **** 						standalone_menu_state = STAND_ALONE_MENU_RAMP_ON_DIMMING;
 393:.\src/standalone.c **** 					}
 394:.\src/standalone.c **** 					FuncOptionsReset ();
 395:.\src/standalone.c **** 					FuncShowSelectv2Reset ();
 396:.\src/standalone.c **** 					FuncChangeReset ();
 397:.\src/standalone.c **** 				}
 398:.\src/standalone.c **** 			}
 399:.\src/standalone.c **** 			break;
 1088              		.loc 1 399 0
 1089 05a6 3FE0     		b	.L92	@
 1090              	.L70:
 370:.\src/standalone.c **** 					if (standalone_menu_state <= STAND_ALONE_MENU_MOV_SENS_SELECTED_2)
 1091              		.loc 1 370 0
 1092 05a8 334B     		ldr	r3, .L95+48	@ tmp557,
 1093 05aa 1B78     		ldrb	r3, [r3]	@ standalone_menu_state.98, standalone_menu_state
 1094 05ac 0C2B     		cmp	r3, #12	@ standalone_menu_state.98,
 1095 05ae 03D8     		bhi	.L71	@,
 372:.\src/standalone.c **** 						standalone_menu_state = STAND_ALONE_MENU_MOV_SENS;
 1096              		.loc 1 372 0
 1097 05b0 314B     		ldr	r3, .L95+48	@ tmp558,
 1098 05b2 0122     		mov	r2, #1	@ tmp559,
 1099 05b4 1A70     		strb	r2, [r3]	@ tmp560, standalone_menu_state
 1100 05b6 26E0     		b	.L72	@
 1101              	.L71:
 374:.\src/standalone.c **** 					else if (standalone_menu_state <= STAND_ALONE_MENU_LDR_SELECTED_5)
 1102              		.loc 1 374 0
 1103 05b8 2F4B     		ldr	r3, .L95+48	@ tmp561,
 1104 05ba 1B78     		ldrb	r3, [r3]	@ standalone_menu_state.99, standalone_menu_state
 1105 05bc 122B     		cmp	r3, #18	@ standalone_menu_state.99,
 1106 05be 03D8     		bhi	.L73	@,
 376:.\src/standalone.c **** 						standalone_menu_state = STAND_ALONE_MENU_LDR;
 1107              		.loc 1 376 0
 1108 05c0 2D4B     		ldr	r3, .L95+48	@ tmp562,
 1109 05c2 0222     		mov	r2, #2	@ tmp563,
 1110 05c4 1A70     		strb	r2, [r3]	@ tmp564, standalone_menu_state
 1111 05c6 1EE0     		b	.L72	@
 1112              	.L73:
 378:.\src/standalone.c **** 					else if (standalone_menu_state <= STAND_ALONE_MENU_MAX_DIMMING_SELECTED_1)
 1113              		.loc 1 378 0
 1114 05c8 2B4B     		ldr	r3, .L95+48	@ tmp565,
 1115 05ca 1B78     		ldrb	r3, [r3]	@ standalone_menu_state.100, standalone_menu_state
 1116 05cc 142B     		cmp	r3, #20	@ standalone_menu_state.100,
 1117 05ce 03D8     		bhi	.L74	@,
 380:.\src/standalone.c **** 						standalone_menu_state = STAND_ALONE_MENU_MAX_DIMMING;
 1118              		.loc 1 380 0
 1119 05d0 294B     		ldr	r3, .L95+48	@ tmp566,
 1120 05d2 0322     		mov	r2, #3	@ tmp567,
 1121 05d4 1A70     		strb	r2, [r3]	@ tmp568, standalone_menu_state
 1122 05d6 16E0     		b	.L72	@
 1123              	.L74:
 382:.\src/standalone.c **** 					else if (standalone_menu_state <= STAND_ALONE_MENU_MIN_DIMMING_SELECTED_1)
 1124              		.loc 1 382 0
ARM GAS  C:\Users\Mariano\AppData\Local\Temp\cco1kxoW.s 			page 29


 1125 05d8 274B     		ldr	r3, .L95+48	@ tmp569,
 1126 05da 1B78     		ldrb	r3, [r3]	@ standalone_menu_state.101, standalone_menu_state
 1127 05dc 162B     		cmp	r3, #22	@ standalone_menu_state.101,
 1128 05de 03D8     		bhi	.L75	@,
 384:.\src/standalone.c **** 						standalone_menu_state = STAND_ALONE_MENU_MIN_DIMMING;
 1129              		.loc 1 384 0
 1130 05e0 254B     		ldr	r3, .L95+48	@ tmp570,
 1131 05e2 0422     		mov	r2, #4	@ tmp571,
 1132 05e4 1A70     		strb	r2, [r3]	@ tmp572, standalone_menu_state
 1133 05e6 0EE0     		b	.L72	@
 1134              	.L75:
 386:.\src/standalone.c **** 					else if (standalone_menu_state <= STAND_ALONE_MENU_RAMP_ON_START_SELECTED_1)
 1135              		.loc 1 386 0
 1136 05e8 234B     		ldr	r3, .L95+48	@ tmp573,
 1137 05ea 1B78     		ldrb	r3, [r3]	@ standalone_menu_state.102, standalone_menu_state
 1138 05ec 182B     		cmp	r3, #24	@ standalone_menu_state.102,
 1139 05ee 03D8     		bhi	.L76	@,
 388:.\src/standalone.c **** 						standalone_menu_state =STAND_ALONE_MENU_RAMP_ON_START;
 1140              		.loc 1 388 0
 1141 05f0 214B     		ldr	r3, .L95+48	@ tmp574,
 1142 05f2 0522     		mov	r2, #5	@ tmp575,
 1143 05f4 1A70     		strb	r2, [r3]	@ tmp576, standalone_menu_state
 1144 05f6 06E0     		b	.L72	@
 1145              	.L76:
 390:.\src/standalone.c **** 					else if (standalone_menu_state <= STAND_ALONE_MENU_RAMP_ON_DIMMING_SELECTED_1)
 1146              		.loc 1 390 0
 1147 05f8 1F4B     		ldr	r3, .L95+48	@ tmp577,
 1148 05fa 1B78     		ldrb	r3, [r3]	@ standalone_menu_state.103, standalone_menu_state
 1149 05fc 1A2B     		cmp	r3, #26	@ standalone_menu_state.103,
 1150 05fe 02D8     		bhi	.L72	@,
 392:.\src/standalone.c **** 						standalone_menu_state = STAND_ALONE_MENU_RAMP_ON_DIMMING;
 1151              		.loc 1 392 0
 1152 0600 1D4B     		ldr	r3, .L95+48	@ tmp578,
 1153 0602 0622     		mov	r2, #6	@ tmp579,
 1154 0604 1A70     		strb	r2, [r3]	@ tmp580, standalone_menu_state
 1155              	.L72:
 394:.\src/standalone.c **** 					FuncOptionsReset ();
 1156              		.loc 1 394 0
 1157 0606 FFF7FEFF 		bl	FuncOptionsReset	@
 395:.\src/standalone.c **** 					FuncShowSelectv2Reset ();
 1158              		.loc 1 395 0
 1159 060a FFF7FEFF 		bl	FuncShowSelectv2Reset	@
 396:.\src/standalone.c **** 					FuncChangeReset ();
 1160              		.loc 1 396 0
 1161 060e FFF7FEFF 		bl	FuncChangeReset	@
 1162              		.loc 1 399 0
 1163 0612 09E0     		b	.L92	@
 1164              	.L54:
 400:.\src/standalone.c **** 
 401:.\src/standalone.c **** 		default:
 402:.\src/standalone.c **** 			standalone_selections = 0;
 1165              		.loc 1 402 0
 1166 0614 114B     		ldr	r3, .L95+20	@ tmp581,
 1167 0616 0022     		mov	r2, #0	@ tmp582,
 1168 0618 1A70     		strb	r2, [r3]	@ tmp583, standalone_selections
 403:.\src/standalone.c **** 			break;
 1169              		.loc 1 403 0
ARM GAS  C:\Users\Mariano\AppData\Local\Temp\cco1kxoW.s 			page 30


 1170 061a 06E0     		b	.L65	@
 1171              	.L89:
 327:.\src/standalone.c **** 			break;
 1172              		.loc 1 327 0
 1173 061c C046     		mov	r8, r8
 1174 061e 04E0     		b	.L65	@
 1175              	.L90:
 338:.\src/standalone.c **** 			break;
 1176              		.loc 1 338 0
 1177 0620 C046     		mov	r8, r8
 1178 0622 02E0     		b	.L65	@
 1179              	.L91:
 353:.\src/standalone.c **** 			break;
 1180              		.loc 1 353 0
 1181 0624 C046     		mov	r8, r8
 1182 0626 00E0     		b	.L65	@
 1183              	.L92:
 399:.\src/standalone.c **** 			break;
 1184              		.loc 1 399 0
 1185 0628 C046     		mov	r8, r8
 1186              	.L65:
 404:.\src/standalone.c **** 	}
 405:.\src/standalone.c **** 
 406:.\src/standalone.c **** 	if (CheckS1() > S_HALF)
 1187              		.loc 1 406 0
 1188 062a FFF7FEFF 		bl	CheckS1	@
 1189 062e 031C     		mov	r3, r0	@ tmp584,
 1190 0630 032B     		cmp	r3, #3	@ D.6316,
 1191 0632 03D9     		bls	.L77	@,
 407:.\src/standalone.c **** 		resp = RESP_CHANGE_ALL_UP;
 1192              		.loc 1 407 0
 1193 0634 6B46     		mov	r3, sp	@ tmp586,
 1194 0636 0733     		add	r3, r3, #7	@ tmp586,
 1195 0638 0322     		mov	r2, #3	@ tmp587,
 1196 063a 1A70     		strb	r2, [r3]	@ tmp588, resp
 1197              	.L77:
 408:.\src/standalone.c **** 
 409:.\src/standalone.c **** 	return resp;
 1198              		.loc 1 409 0
 1199 063c 6B46     		mov	r3, sp	@ tmp589,
 1200 063e 0733     		add	r3, r3, #7	@ tmp589,
 1201 0640 1B78     		ldrb	r3, [r3]	@ D.6319, resp
 410:.\src/standalone.c **** }
 1202              		.loc 1 410 0
 1203 0642 181C     		mov	r0, r3	@, <retval>
 1204 0644 02B0     		add	sp, sp, #8	@,,
 1205              		@ sp needed for prologue	@
 1206 0646 10BD     		pop	{r4, pc}
 1207              	.L96:
 1208              		.align	2
 1209              	.L95:
 1210 0648 00000000 		.word	standalone_timer
 1211 064c 00000000 		.word	StandAloneStruct_local
 1212 0650 00000000 		.word	standalone_ii
 1213 0654 00000000 		.word	standalone_dimming_last_slope
 1214 0658 00000000 		.word	standalone_state
 1215 065c 00000000 		.word	standalone_selections
ARM GAS  C:\Users\Mariano\AppData\Local\Temp\cco1kxoW.s 			page 31


 1216 0660 00000000 		.word	standalone_enable_menu_timer
 1217 0664 30750000 		.word	30000
 1218 0668 00000000 		.word	s_blank_line
 1219 066c 50000000 		.word	.LC19
 1220 0670 64000000 		.word	.LC21
 1221 0674 74000000 		.word	.LC23
 1222 0678 00000000 		.word	standalone_menu_state
 1223 067c 88000000 		.word	.LC26
 1224              		.cfi_endproc
 1225              	.LFE20:
 1226              		.size	FuncStandAlone, .-FuncStandAlone
 1227              		.section	.rodata
 1228 0099 000000   		.align	2
 1229              	.LC30:
 1230 009c 53746172 		.ascii	"Starting StandAlone\000"
 1230      74696E67 
 1230      20537461 
 1230      6E64416C 
 1230      6F6E6500 
 1231              		.align	2
 1232              	.LC32:
 1233 00b0 53656C65 		.ascii	"Selections\000"
 1233      6374696F 
 1233      6E7300
 1234 00bb 00       		.align	2
 1235              	.LC34:
 1236 00bc 4D6F7665 		.ascii	"Move Sensor Conf\000"
 1236      2053656E 
 1236      736F7220 
 1236      436F6E66 
 1236      00
 1237 00cd 000000   		.align	2
 1238              	.LC36:
 1239 00d0 456E6572 		.ascii	"Energy Harv Conf\000"
 1239      67792048 
 1239      61727620 
 1239      436F6E66 
 1239      00
 1240 00e1 000000   		.align	2
 1241              	.LC38:
 1242 00e4 4D617820 		.ascii	"Max Dimming Conf\000"
 1242      44696D6D 
 1242      696E6720 
 1242      436F6E66 
 1242      00
 1243 00f5 000000   		.align	2
 1244              	.LC40:
 1245 00f8 4D696E20 		.ascii	"Min Dimming Conf\000"
 1245      44696D6D 
 1245      696E6720 
 1245      436F6E66 
 1245      00
 1246 0109 000000   		.align	2
 1247              	.LC42:
 1248 010c 52616D70 		.ascii	"Ramp ON/OFF Conf\000"
 1248      204F4E2F 
 1248      4F464620 
ARM GAS  C:\Users\Mariano\AppData\Local\Temp\cco1kxoW.s 			page 32


 1248      436F6E66 
 1248      00
 1249 011d 000000   		.align	2
 1250              	.LC44:
 1251 0120 52616D70 		.ascii	"Ramp on Dim Conf\000"
 1251      206F6E20 
 1251      44696D20 
 1251      436F6E66 
 1251      00
 1252 0131 000000   		.align	2
 1253              	.LC47:
 1254 0134 6F6E2020 		.ascii	"on   off   back \000"
 1254      206F6666 
 1254      20202062 
 1254      61636B20 
 1254      00
 1255              		.global	__aeabi_uidiv
 1256              		.section	.text.MenuStandAlone,"ax",%progbits
 1257              		.align	2
 1258              		.global	MenuStandAlone
 1259              		.code	16
 1260              		.thumb_func
 1261              		.type	MenuStandAlone, %function
 1262              	MenuStandAlone:
 1263              	.LFB21:
 411:.\src/standalone.c **** 
 412:.\src/standalone.c **** 
 413:.\src/standalone.c **** unsigned char MenuStandAlone(void)
 414:.\src/standalone.c **** {
 1264              		.loc 1 414 0
 1265              		.cfi_startproc
 1266 0000 10B5     		push	{r4, lr}	@
 1267              	.LCFI2:
 1268              		.cfi_def_cfa_offset 8
 1269              		.cfi_offset 4, -8
 1270              		.cfi_offset 14, -4
 1271 0002 84B0     		sub	sp, sp, #16	@,,
 1272              	.LCFI3:
 1273              		.cfi_def_cfa_offset 24
 415:.\src/standalone.c **** 	unsigned char resp = RESP_CONTINUE;
 1274              		.loc 1 415 0
 1275 0004 6B46     		mov	r3, sp	@ tmp194,
 1276 0006 0F33     		add	r3, r3, #15	@ tmp194,
 1277 0008 0022     		mov	r2, #0	@ tmp195,
 1278 000a 1A70     		strb	r2, [r3]	@ tmp196, resp
 416:.\src/standalone.c **** 	unsigned char resp_down = RESP_CONTINUE;
 1279              		.loc 1 416 0
 1280 000c 6B46     		mov	r3, sp	@ tmp197,
 1281 000e 0E33     		add	r3, r3, #14	@ tmp197,
 1282 0010 0022     		mov	r2, #0	@ tmp198,
 1283 0012 1A70     		strb	r2, [r3]	@ tmp199, resp_down
 417:.\src/standalone.c **** 	unsigned char dummy = 0;
 1284              		.loc 1 417 0
 1285 0014 6B46     		mov	r3, sp	@ tmp200,
 1286 0016 0933     		add	r3, r3, #9	@ tmp200,
 1287 0018 0022     		mov	r2, #0	@ tmp201,
 1288 001a 1A70     		strb	r2, [r3]	@ tmp202, dummy
ARM GAS  C:\Users\Mariano\AppData\Local\Temp\cco1kxoW.s 			page 33


 418:.\src/standalone.c **** 
 419:.\src/standalone.c **** 	switch (standalone_menu_state)
 1289              		.loc 1 419 0
 1290 001c CD4B     		ldr	r3, .L185	@ tmp203,
 1291 001e 1B78     		ldrb	r3, [r3]	@ standalone_menu_state.13, standalone_menu_state
 1292 0020 1A2B     		cmp	r3, #26	@ D.5939,
 1293 0022 01D9     		bls	.LCB1000	@
 1294 0024 00F0B7FB 		bl	.L98	@far jump	@
 1295              	.LCB1000:
 1296 0028 9A00     		lsl	r2, r3, #2	@ tmp204, D.5939,
 1297 002a CB4B     		ldr	r3, .L185+4	@ tmp206,
 1298 002c D318     		add	r3, r2, r3	@ tmp205, tmp204, tmp206
 1299 002e 1B68     		ldr	r3, [r3]	@ tmp207,
 1300 0030 9F46     		mov	pc, r3	@ tmp207
 1301              		.section	.rodata.MenuStandAlone,"a",%progbits
 1302              		.align	2
 1303              	.L123:
 1304 0000 32000000 		.word	.L99
 1305 0004 68000000 		.word	.L100
 1306 0008 AE000000 		.word	.L101
 1307 000c F4000000 		.word	.L102
 1308 0010 3A010000 		.word	.L103
 1309 0014 80010000 		.word	.L104
 1310 0018 C6010000 		.word	.L105
 1311 001c 96070000 		.word	.L98
 1312 0020 96070000 		.word	.L98
 1313 0024 96070000 		.word	.L98
 1314 0028 0C020000 		.word	.L106
 1315 002c 4E020000 		.word	.L107
 1316 0030 F8020000 		.word	.L108
 1317 0034 12030000 		.word	.L109
 1318 0038 90030000 		.word	.L110
 1319 003c 4E040000 		.word	.L111
 1320 0040 6E040000 		.word	.L112
 1321 0044 9E040000 		.word	.L113
 1322 0048 B8040000 		.word	.L114
 1323 004c DC040000 		.word	.L115
 1324 0050 44050000 		.word	.L116
 1325 0054 90050000 		.word	.L117
 1326 0058 00060000 		.word	.L118
 1327 005c 4C060000 		.word	.L119
 1328 0060 B8060000 		.word	.L120
 1329 0064 08070000 		.word	.L121
 1330 0068 74070000 		.word	.L122
 1331              		.section	.text.MenuStandAlone
 1332              	.L99:
 420:.\src/standalone.c **** 	{
 421:.\src/standalone.c **** 		case STAND_ALONE_MENU_INIT:
 422:.\src/standalone.c **** 			//empiezo con las selecciones
 423:.\src/standalone.c **** 			resp_down = FuncShowBlink ((const char *) "Starting StandAlone", (const char *) "Selections", 1,
 1333              		.loc 1 423 0
 1334 0032 6C46     		mov	r4, sp	@ tmp208,
 1335 0034 0E34     		add	r4, r4, #14	@ tmp208,
 1336 0036 C94A     		ldr	r2, .L185+8	@ tmp209,
 1337 0038 C94B     		ldr	r3, .L185+12	@ tmp210,
 1338 003a 101C     		mov	r0, r2	@, tmp209
 1339 003c 191C     		mov	r1, r3	@, tmp210
ARM GAS  C:\Users\Mariano\AppData\Local\Temp\cco1kxoW.s 			page 34


 1340 003e 0122     		mov	r2, #1	@,
 1341 0040 0223     		mov	r3, #2	@,
 1342 0042 FFF7FEFF 		bl	FuncShowBlink	@
 1343 0046 031C     		mov	r3, r0	@ tmp211,
 1344 0048 2370     		strb	r3, [r4]	@ tmp213, resp_down
 424:.\src/standalone.c **** 
 425:.\src/standalone.c **** 			if (resp_down == RESP_FINISH)
 1345              		.loc 1 425 0
 1346 004a 6B46     		mov	r3, sp	@ tmp214,
 1347 004c 0E33     		add	r3, r3, #14	@ tmp214,
 1348 004e 1B78     		ldrb	r3, [r3]	@ tmp215, resp_down
 1349 0050 0A2B     		cmp	r3, #10	@ tmp215,
 1350 0052 01D0     		beq	.LCB1027	@
 1351 0054 00F0A3FB 		bl	.L171	@far jump	@
 1352              	.LCB1027:
 426:.\src/standalone.c **** 				standalone_menu_state++;
 1353              		.loc 1 426 0
 1354 0058 BE4B     		ldr	r3, .L185	@ tmp216,
 1355 005a 1B78     		ldrb	r3, [r3]	@ standalone_menu_state.14, standalone_menu_state
 1356 005c 0133     		add	r3, r3, #1	@ tmp217,
 1357 005e DAB2     		uxtb	r2, r3	@ standalone_menu_state.15, tmp217
 1358 0060 BC4B     		ldr	r3, .L185	@ tmp218,
 1359 0062 1A70     		strb	r2, [r3]	@ tmp219, standalone_menu_state
 427:.\src/standalone.c **** 			break;
 1360              		.loc 1 427 0
 1361 0064 00F09BFB 		bl	.L171	@ far jump	@
 1362              	.L100:
 428:.\src/standalone.c **** 
 429:.\src/standalone.c **** 		case STAND_ALONE_MENU_MOV_SENS:
 430:.\src/standalone.c **** 			resp_down = FuncShowSelectv2 ((const char * ) "Move Sensor Conf");
 1363              		.loc 1 430 0
 1364 0068 6C46     		mov	r4, sp	@ tmp220,
 1365 006a 0E34     		add	r4, r4, #14	@ tmp220,
 1366 006c BD4B     		ldr	r3, .L185+16	@ tmp221,
 1367 006e 181C     		mov	r0, r3	@, tmp221
 1368 0070 FFF7FEFF 		bl	FuncShowSelectv2	@
 1369 0074 031C     		mov	r3, r0	@ tmp222,
 1370 0076 2370     		strb	r3, [r4]	@ tmp224, resp_down
 431:.\src/standalone.c **** 
 432:.\src/standalone.c **** 			if (resp_down == RESP_CHANGE)	//cambio de menu
 1371              		.loc 1 432 0
 1372 0078 6B46     		mov	r3, sp	@ tmp225,
 1373 007a 0E33     		add	r3, r3, #14	@ tmp225,
 1374 007c 1B78     		ldrb	r3, [r3]	@ tmp226, resp_down
 1375 007e 022B     		cmp	r3, #2	@ tmp226,
 1376 0080 02D1     		bne	.L126	@,
 433:.\src/standalone.c **** 				standalone_menu_state = STAND_ALONE_MENU_LDR;
 1377              		.loc 1 433 0
 1378 0082 B44B     		ldr	r3, .L185	@ tmp227,
 1379 0084 0222     		mov	r2, #2	@ tmp228,
 1380 0086 1A70     		strb	r2, [r3]	@ tmp229, standalone_menu_state
 1381              	.L126:
 434:.\src/standalone.c **** 
 435:.\src/standalone.c **** 			if (resp_down == RESP_SELECTED)	//se eligio el menu
 1382              		.loc 1 435 0
 1383 0088 6B46     		mov	r3, sp	@ tmp230,
 1384 008a 0E33     		add	r3, r3, #14	@ tmp230,
ARM GAS  C:\Users\Mariano\AppData\Local\Temp\cco1kxoW.s 			page 35


 1385 008c 1B78     		ldrb	r3, [r3]	@ tmp231, resp_down
 1386 008e 012B     		cmp	r3, #1	@ tmp231,
 1387 0090 02D1     		bne	.L127	@,
 436:.\src/standalone.c **** 				standalone_menu_state = STAND_ALONE_MENU_MOV_SENS_SELECTED;
 1388              		.loc 1 436 0
 1389 0092 B04B     		ldr	r3, .L185	@ tmp232,
 1390 0094 0A22     		mov	r2, #10	@ tmp233,
 1391 0096 1A70     		strb	r2, [r3]	@ tmp234, standalone_menu_state
 1392              	.L127:
 437:.\src/standalone.c **** 
 438:.\src/standalone.c **** 			if (resp_down != RESP_CONTINUE)
 1393              		.loc 1 438 0
 1394 0098 6B46     		mov	r3, sp	@ tmp235,
 1395 009a 0E33     		add	r3, r3, #14	@ tmp235,
 1396 009c 1B78     		ldrb	r3, [r3]	@ tmp236, resp_down
 1397 009e 002B     		cmp	r3, #0	@ tmp236,
 1398 00a0 00D1     		bne	.LCB1069	@
 1399 00a2 7EE3     		b	.L172	@long jump	@
 1400              	.LCB1069:
 439:.\src/standalone.c **** 				resp = RESP_WORKING;
 1401              		.loc 1 439 0
 1402 00a4 6B46     		mov	r3, sp	@ tmp237,
 1403 00a6 0F33     		add	r3, r3, #15	@ tmp237,
 1404 00a8 0422     		mov	r2, #4	@ tmp238,
 1405 00aa 1A70     		strb	r2, [r3]	@ tmp239, resp
 440:.\src/standalone.c **** 
 441:.\src/standalone.c **** 			break;
 1406              		.loc 1 441 0
 1407 00ac 79E3     		b	.L172	@
 1408              	.L101:
 442:.\src/standalone.c **** 
 443:.\src/standalone.c **** 		case STAND_ALONE_MENU_LDR:
 444:.\src/standalone.c **** 			resp_down = FuncShowSelectv2 ((const char * ) "Energy Harv Conf");
 1409              		.loc 1 444 0
 1410 00ae 6C46     		mov	r4, sp	@ tmp240,
 1411 00b0 0E34     		add	r4, r4, #14	@ tmp240,
 1412 00b2 AD4B     		ldr	r3, .L185+20	@ tmp241,
 1413 00b4 181C     		mov	r0, r3	@, tmp241
 1414 00b6 FFF7FEFF 		bl	FuncShowSelectv2	@
 1415 00ba 031C     		mov	r3, r0	@ tmp242,
 1416 00bc 2370     		strb	r3, [r4]	@ tmp244, resp_down
 445:.\src/standalone.c **** 
 446:.\src/standalone.c **** 			if (resp_down == RESP_CHANGE)	//cambio de menu
 1417              		.loc 1 446 0
 1418 00be 6B46     		mov	r3, sp	@ tmp245,
 1419 00c0 0E33     		add	r3, r3, #14	@ tmp245,
 1420 00c2 1B78     		ldrb	r3, [r3]	@ tmp246, resp_down
 1421 00c4 022B     		cmp	r3, #2	@ tmp246,
 1422 00c6 02D1     		bne	.L129	@,
 447:.\src/standalone.c **** 				standalone_menu_state = STAND_ALONE_MENU_MAX_DIMMING;
 1423              		.loc 1 447 0
 1424 00c8 A24B     		ldr	r3, .L185	@ tmp247,
 1425 00ca 0322     		mov	r2, #3	@ tmp248,
 1426 00cc 1A70     		strb	r2, [r3]	@ tmp249, standalone_menu_state
 1427              	.L129:
 448:.\src/standalone.c **** 
 449:.\src/standalone.c **** 
ARM GAS  C:\Users\Mariano\AppData\Local\Temp\cco1kxoW.s 			page 36


 450:.\src/standalone.c **** 			if (resp_down == RESP_SELECTED)	//se eligio el menu
 1428              		.loc 1 450 0
 1429 00ce 6B46     		mov	r3, sp	@ tmp250,
 1430 00d0 0E33     		add	r3, r3, #14	@ tmp250,
 1431 00d2 1B78     		ldrb	r3, [r3]	@ tmp251, resp_down
 1432 00d4 012B     		cmp	r3, #1	@ tmp251,
 1433 00d6 02D1     		bne	.L130	@,
 451:.\src/standalone.c **** 				standalone_menu_state = STAND_ALONE_MENU_LDR_SELECTED;
 1434              		.loc 1 451 0
 1435 00d8 9E4B     		ldr	r3, .L185	@ tmp252,
 1436 00da 0D22     		mov	r2, #13	@ tmp253,
 1437 00dc 1A70     		strb	r2, [r3]	@ tmp254, standalone_menu_state
 1438              	.L130:
 452:.\src/standalone.c **** 
 453:.\src/standalone.c **** 			if (resp_down != RESP_CONTINUE)
 1439              		.loc 1 453 0
 1440 00de 6B46     		mov	r3, sp	@ tmp255,
 1441 00e0 0E33     		add	r3, r3, #14	@ tmp255,
 1442 00e2 1B78     		ldrb	r3, [r3]	@ tmp256, resp_down
 1443 00e4 002B     		cmp	r3, #0	@ tmp256,
 1444 00e6 00D1     		bne	.LCB1109	@
 1445 00e8 5DE3     		b	.L173	@long jump	@
 1446              	.LCB1109:
 454:.\src/standalone.c **** 				resp = RESP_WORKING;
 1447              		.loc 1 454 0
 1448 00ea 6B46     		mov	r3, sp	@ tmp257,
 1449 00ec 0F33     		add	r3, r3, #15	@ tmp257,
 1450 00ee 0422     		mov	r2, #4	@ tmp258,
 1451 00f0 1A70     		strb	r2, [r3]	@ tmp259, resp
 455:.\src/standalone.c **** 
 456:.\src/standalone.c **** 			break;
 1452              		.loc 1 456 0
 1453 00f2 58E3     		b	.L173	@
 1454              	.L102:
 457:.\src/standalone.c **** 
 458:.\src/standalone.c **** 		case STAND_ALONE_MENU_MAX_DIMMING:
 459:.\src/standalone.c **** 			resp_down = FuncShowSelectv2 ((const char * ) "Max Dimming Conf");
 1455              		.loc 1 459 0
 1456 00f4 6C46     		mov	r4, sp	@ tmp260,
 1457 00f6 0E34     		add	r4, r4, #14	@ tmp260,
 1458 00f8 9C4B     		ldr	r3, .L185+24	@ tmp261,
 1459 00fa 181C     		mov	r0, r3	@, tmp261
 1460 00fc FFF7FEFF 		bl	FuncShowSelectv2	@
 1461 0100 031C     		mov	r3, r0	@ tmp262,
 1462 0102 2370     		strb	r3, [r4]	@ tmp264, resp_down
 460:.\src/standalone.c **** 
 461:.\src/standalone.c **** 			if (resp_down == RESP_CHANGE)	//cambio de menu
 1463              		.loc 1 461 0
 1464 0104 6B46     		mov	r3, sp	@ tmp265,
 1465 0106 0E33     		add	r3, r3, #14	@ tmp265,
 1466 0108 1B78     		ldrb	r3, [r3]	@ tmp266, resp_down
 1467 010a 022B     		cmp	r3, #2	@ tmp266,
 1468 010c 02D1     		bne	.L132	@,
 462:.\src/standalone.c **** 				standalone_menu_state = STAND_ALONE_MENU_MIN_DIMMING;
 1469              		.loc 1 462 0
 1470 010e 914B     		ldr	r3, .L185	@ tmp267,
 1471 0110 0422     		mov	r2, #4	@ tmp268,
ARM GAS  C:\Users\Mariano\AppData\Local\Temp\cco1kxoW.s 			page 37


 1472 0112 1A70     		strb	r2, [r3]	@ tmp269, standalone_menu_state
 1473              	.L132:
 463:.\src/standalone.c **** 
 464:.\src/standalone.c **** 			if (resp_down == RESP_SELECTED)	//se eligio el menu
 1474              		.loc 1 464 0
 1475 0114 6B46     		mov	r3, sp	@ tmp270,
 1476 0116 0E33     		add	r3, r3, #14	@ tmp270,
 1477 0118 1B78     		ldrb	r3, [r3]	@ tmp271, resp_down
 1478 011a 012B     		cmp	r3, #1	@ tmp271,
 1479 011c 02D1     		bne	.L133	@,
 465:.\src/standalone.c **** 				standalone_menu_state = STAND_ALONE_MENU_MAX_DIMMING_SELECTED;
 1480              		.loc 1 465 0
 1481 011e 8D4B     		ldr	r3, .L185	@ tmp272,
 1482 0120 1322     		mov	r2, #19	@ tmp273,
 1483 0122 1A70     		strb	r2, [r3]	@ tmp274, standalone_menu_state
 1484              	.L133:
 466:.\src/standalone.c **** 
 467:.\src/standalone.c **** 			if (resp_down != RESP_CONTINUE)
 1485              		.loc 1 467 0
 1486 0124 6B46     		mov	r3, sp	@ tmp275,
 1487 0126 0E33     		add	r3, r3, #14	@ tmp275,
 1488 0128 1B78     		ldrb	r3, [r3]	@ tmp276, resp_down
 1489 012a 002B     		cmp	r3, #0	@ tmp276,
 1490 012c 00D1     		bne	.LCB1149	@
 1491 012e 3CE3     		b	.L174	@long jump	@
 1492              	.LCB1149:
 468:.\src/standalone.c **** 				resp = RESP_WORKING;
 1493              		.loc 1 468 0
 1494 0130 6B46     		mov	r3, sp	@ tmp277,
 1495 0132 0F33     		add	r3, r3, #15	@ tmp277,
 1496 0134 0422     		mov	r2, #4	@ tmp278,
 1497 0136 1A70     		strb	r2, [r3]	@ tmp279, resp
 469:.\src/standalone.c **** 
 470:.\src/standalone.c **** 			break;
 1498              		.loc 1 470 0
 1499 0138 37E3     		b	.L174	@
 1500              	.L103:
 471:.\src/standalone.c **** 
 472:.\src/standalone.c **** 		case STAND_ALONE_MENU_MIN_DIMMING:
 473:.\src/standalone.c **** 			resp_down = FuncShowSelectv2 ((const char * ) "Min Dimming Conf");
 1501              		.loc 1 473 0
 1502 013a 6C46     		mov	r4, sp	@ tmp280,
 1503 013c 0E34     		add	r4, r4, #14	@ tmp280,
 1504 013e 8C4B     		ldr	r3, .L185+28	@ tmp281,
 1505 0140 181C     		mov	r0, r3	@, tmp281
 1506 0142 FFF7FEFF 		bl	FuncShowSelectv2	@
 1507 0146 031C     		mov	r3, r0	@ tmp282,
 1508 0148 2370     		strb	r3, [r4]	@ tmp284, resp_down
 474:.\src/standalone.c **** 
 475:.\src/standalone.c **** 			if (resp_down == RESP_CHANGE)	//cambio de menu
 1509              		.loc 1 475 0
 1510 014a 6B46     		mov	r3, sp	@ tmp285,
 1511 014c 0E33     		add	r3, r3, #14	@ tmp285,
 1512 014e 1B78     		ldrb	r3, [r3]	@ tmp286, resp_down
 1513 0150 022B     		cmp	r3, #2	@ tmp286,
 1514 0152 02D1     		bne	.L135	@,
 476:.\src/standalone.c **** 				standalone_menu_state = STAND_ALONE_MENU_RAMP_ON_START;
ARM GAS  C:\Users\Mariano\AppData\Local\Temp\cco1kxoW.s 			page 38


 1515              		.loc 1 476 0
 1516 0154 7F4B     		ldr	r3, .L185	@ tmp287,
 1517 0156 0522     		mov	r2, #5	@ tmp288,
 1518 0158 1A70     		strb	r2, [r3]	@ tmp289, standalone_menu_state
 1519              	.L135:
 477:.\src/standalone.c **** 
 478:.\src/standalone.c **** 			if (resp_down == RESP_SELECTED)	//se eligio el menu
 1520              		.loc 1 478 0
 1521 015a 6B46     		mov	r3, sp	@ tmp290,
 1522 015c 0E33     		add	r3, r3, #14	@ tmp290,
 1523 015e 1B78     		ldrb	r3, [r3]	@ tmp291, resp_down
 1524 0160 012B     		cmp	r3, #1	@ tmp291,
 1525 0162 02D1     		bne	.L136	@,
 479:.\src/standalone.c **** 				standalone_menu_state = STAND_ALONE_MENU_MIN_DIMMING_SELECTED;
 1526              		.loc 1 479 0
 1527 0164 7B4B     		ldr	r3, .L185	@ tmp292,
 1528 0166 1522     		mov	r2, #21	@ tmp293,
 1529 0168 1A70     		strb	r2, [r3]	@ tmp294, standalone_menu_state
 1530              	.L136:
 480:.\src/standalone.c **** 
 481:.\src/standalone.c **** 			if (resp_down != RESP_CONTINUE)
 1531              		.loc 1 481 0
 1532 016a 6B46     		mov	r3, sp	@ tmp295,
 1533 016c 0E33     		add	r3, r3, #14	@ tmp295,
 1534 016e 1B78     		ldrb	r3, [r3]	@ tmp296, resp_down
 1535 0170 002B     		cmp	r3, #0	@ tmp296,
 1536 0172 00D1     		bne	.LCB1189	@
 1537 0174 1BE3     		b	.L175	@long jump	@
 1538              	.LCB1189:
 482:.\src/standalone.c **** 				resp = RESP_WORKING;
 1539              		.loc 1 482 0
 1540 0176 6B46     		mov	r3, sp	@ tmp297,
 1541 0178 0F33     		add	r3, r3, #15	@ tmp297,
 1542 017a 0422     		mov	r2, #4	@ tmp298,
 1543 017c 1A70     		strb	r2, [r3]	@ tmp299, resp
 483:.\src/standalone.c **** 
 484:.\src/standalone.c **** 			break;
 1544              		.loc 1 484 0
 1545 017e 16E3     		b	.L175	@
 1546              	.L104:
 485:.\src/standalone.c **** 
 486:.\src/standalone.c **** 		case STAND_ALONE_MENU_RAMP_ON_START:
 487:.\src/standalone.c **** 			resp_down = FuncShowSelectv2 ((const char * ) "Ramp ON/OFF Conf");
 1547              		.loc 1 487 0
 1548 0180 6C46     		mov	r4, sp	@ tmp300,
 1549 0182 0E34     		add	r4, r4, #14	@ tmp300,
 1550 0184 7B4B     		ldr	r3, .L185+32	@ tmp301,
 1551 0186 181C     		mov	r0, r3	@, tmp301
 1552 0188 FFF7FEFF 		bl	FuncShowSelectv2	@
 1553 018c 031C     		mov	r3, r0	@ tmp302,
 1554 018e 2370     		strb	r3, [r4]	@ tmp304, resp_down
 488:.\src/standalone.c **** 
 489:.\src/standalone.c **** 			if (resp_down == RESP_CHANGE)	//cambio de menu
 1555              		.loc 1 489 0
 1556 0190 6B46     		mov	r3, sp	@ tmp305,
 1557 0192 0E33     		add	r3, r3, #14	@ tmp305,
 1558 0194 1B78     		ldrb	r3, [r3]	@ tmp306, resp_down
ARM GAS  C:\Users\Mariano\AppData\Local\Temp\cco1kxoW.s 			page 39


 1559 0196 022B     		cmp	r3, #2	@ tmp306,
 1560 0198 02D1     		bne	.L138	@,
 490:.\src/standalone.c **** 				standalone_menu_state = STAND_ALONE_MENU_RAMP_ON_DIMMING;
 1561              		.loc 1 490 0
 1562 019a 6E4B     		ldr	r3, .L185	@ tmp307,
 1563 019c 0622     		mov	r2, #6	@ tmp308,
 1564 019e 1A70     		strb	r2, [r3]	@ tmp309, standalone_menu_state
 1565              	.L138:
 491:.\src/standalone.c **** 
 492:.\src/standalone.c **** 			if (resp_down == RESP_SELECTED)	//se eligio el menu
 1566              		.loc 1 492 0
 1567 01a0 6B46     		mov	r3, sp	@ tmp310,
 1568 01a2 0E33     		add	r3, r3, #14	@ tmp310,
 1569 01a4 1B78     		ldrb	r3, [r3]	@ tmp311, resp_down
 1570 01a6 012B     		cmp	r3, #1	@ tmp311,
 1571 01a8 02D1     		bne	.L139	@,
 493:.\src/standalone.c **** 				standalone_menu_state = STAND_ALONE_MENU_RAMP_ON_START_SELECTED;
 1572              		.loc 1 493 0
 1573 01aa 6A4B     		ldr	r3, .L185	@ tmp312,
 1574 01ac 1722     		mov	r2, #23	@ tmp313,
 1575 01ae 1A70     		strb	r2, [r3]	@ tmp314, standalone_menu_state
 1576              	.L139:
 494:.\src/standalone.c **** 
 495:.\src/standalone.c **** 			if (resp_down != RESP_CONTINUE)
 1577              		.loc 1 495 0
 1578 01b0 6B46     		mov	r3, sp	@ tmp315,
 1579 01b2 0E33     		add	r3, r3, #14	@ tmp315,
 1580 01b4 1B78     		ldrb	r3, [r3]	@ tmp316, resp_down
 1581 01b6 002B     		cmp	r3, #0	@ tmp316,
 1582 01b8 00D1     		bne	.LCB1229	@
 1583 01ba FAE2     		b	.L176	@long jump	@
 1584              	.LCB1229:
 496:.\src/standalone.c **** 				resp = RESP_WORKING;
 1585              		.loc 1 496 0
 1586 01bc 6B46     		mov	r3, sp	@ tmp317,
 1587 01be 0F33     		add	r3, r3, #15	@ tmp317,
 1588 01c0 0422     		mov	r2, #4	@ tmp318,
 1589 01c2 1A70     		strb	r2, [r3]	@ tmp319, resp
 497:.\src/standalone.c **** 
 498:.\src/standalone.c **** 			break;
 1590              		.loc 1 498 0
 1591 01c4 F5E2     		b	.L176	@
 1592              	.L105:
 499:.\src/standalone.c **** 
 500:.\src/standalone.c **** 		case STAND_ALONE_MENU_RAMP_ON_DIMMING:
 501:.\src/standalone.c **** 			resp_down = FuncShowSelectv2 ((const char * ) "Ramp on Dim Conf");
 1593              		.loc 1 501 0
 1594 01c6 6C46     		mov	r4, sp	@ tmp320,
 1595 01c8 0E34     		add	r4, r4, #14	@ tmp320,
 1596 01ca 6B4B     		ldr	r3, .L185+36	@ tmp321,
 1597 01cc 181C     		mov	r0, r3	@, tmp321
 1598 01ce FFF7FEFF 		bl	FuncShowSelectv2	@
 1599 01d2 031C     		mov	r3, r0	@ tmp322,
 1600 01d4 2370     		strb	r3, [r4]	@ tmp324, resp_down
 502:.\src/standalone.c **** 
 503:.\src/standalone.c **** 			if (resp_down == RESP_CHANGE)	//cambio de menu
 1601              		.loc 1 503 0
ARM GAS  C:\Users\Mariano\AppData\Local\Temp\cco1kxoW.s 			page 40


 1602 01d6 6B46     		mov	r3, sp	@ tmp325,
 1603 01d8 0E33     		add	r3, r3, #14	@ tmp325,
 1604 01da 1B78     		ldrb	r3, [r3]	@ tmp326, resp_down
 1605 01dc 022B     		cmp	r3, #2	@ tmp326,
 1606 01de 02D1     		bne	.L141	@,
 504:.\src/standalone.c **** 				standalone_menu_state = STAND_ALONE_MENU_MOV_SENS;
 1607              		.loc 1 504 0
 1608 01e0 5C4B     		ldr	r3, .L185	@ tmp327,
 1609 01e2 0122     		mov	r2, #1	@ tmp328,
 1610 01e4 1A70     		strb	r2, [r3]	@ tmp329, standalone_menu_state
 1611              	.L141:
 505:.\src/standalone.c **** 
 506:.\src/standalone.c **** 			if (resp_down == RESP_SELECTED)	//se eligio el menu
 1612              		.loc 1 506 0
 1613 01e6 6B46     		mov	r3, sp	@ tmp330,
 1614 01e8 0E33     		add	r3, r3, #14	@ tmp330,
 1615 01ea 1B78     		ldrb	r3, [r3]	@ tmp331, resp_down
 1616 01ec 012B     		cmp	r3, #1	@ tmp331,
 1617 01ee 02D1     		bne	.L142	@,
 507:.\src/standalone.c **** 				standalone_menu_state = STAND_ALONE_MENU_RAMP_ON_DIMMING_SELECTED;
 1618              		.loc 1 507 0
 1619 01f0 584B     		ldr	r3, .L185	@ tmp332,
 1620 01f2 1922     		mov	r2, #25	@ tmp333,
 1621 01f4 1A70     		strb	r2, [r3]	@ tmp334, standalone_menu_state
 1622              	.L142:
 508:.\src/standalone.c **** 
 509:.\src/standalone.c **** 			if (resp_down != RESP_CONTINUE)
 1623              		.loc 1 509 0
 1624 01f6 6B46     		mov	r3, sp	@ tmp335,
 1625 01f8 0E33     		add	r3, r3, #14	@ tmp335,
 1626 01fa 1B78     		ldrb	r3, [r3]	@ tmp336, resp_down
 1627 01fc 002B     		cmp	r3, #0	@ tmp336,
 1628 01fe 00D1     		bne	.LCB1269	@
 1629 0200 D9E2     		b	.L177	@long jump	@
 1630              	.LCB1269:
 510:.\src/standalone.c **** 				resp = RESP_WORKING;
 1631              		.loc 1 510 0
 1632 0202 6B46     		mov	r3, sp	@ tmp337,
 1633 0204 0F33     		add	r3, r3, #15	@ tmp337,
 1634 0206 0422     		mov	r2, #4	@ tmp338,
 1635 0208 1A70     		strb	r2, [r3]	@ tmp339, resp
 511:.\src/standalone.c **** 
 512:.\src/standalone.c **** 			break;
 1636              		.loc 1 512 0
 1637 020a D4E2     		b	.L177	@
 1638              	.L106:
 513:.\src/standalone.c **** 
 514:.\src/standalone.c **** 		case STAND_ALONE_MENU_MOV_SENS_SELECTED:
 515:.\src/standalone.c **** 			if (StandAloneStruct_local.move_sensor_enable)
 1639              		.loc 1 515 0
 1640 020c 5B4B     		ldr	r3, .L185+40	@ tmp340,
 1641 020e 1B78     		ldrb	r3, [r3]	@ D.5980,
 1642 0210 002B     		cmp	r3, #0	@ D.5980,
 1643 0212 04D0     		beq	.L144	@,
 516:.\src/standalone.c **** 				resp_down = 0x80;
 1644              		.loc 1 516 0
 1645 0214 6B46     		mov	r3, sp	@ tmp341,
ARM GAS  C:\Users\Mariano\AppData\Local\Temp\cco1kxoW.s 			page 41


 1646 0216 0E33     		add	r3, r3, #14	@ tmp341,
 1647 0218 8022     		mov	r2, #128	@ tmp342,
 1648 021a 1A70     		strb	r2, [r3]	@ tmp343, resp_down
 1649 021c 03E0     		b	.L145	@
 1650              	.L144:
 517:.\src/standalone.c **** 			else
 518:.\src/standalone.c **** 				resp_down = 0x81;
 1651              		.loc 1 518 0
 1652 021e 6B46     		mov	r3, sp	@ tmp344,
 1653 0220 0E33     		add	r3, r3, #14	@ tmp344,
 1654 0222 8122     		mov	r2, #129	@ tmp345,
 1655 0224 1A70     		strb	r2, [r3]	@ tmp346, resp_down
 1656              	.L145:
 519:.\src/standalone.c **** 
 520:.\src/standalone.c **** 			FuncOptions ((const char *) "on   off   back ",(const char *) s_blank_line, (unsigned char *)s_s
 1657              		.loc 1 520 0
 1658 0226 5649     		ldr	r1, .L185+44	@ tmp347,
 1659 0228 564A     		ldr	r2, .L185+48	@ tmp348,
 1660 022a 574B     		ldr	r3, .L185+52	@ tmp349,
 1661 022c 6846     		mov	r0, sp	@ tmp350,
 1662 022e 0E30     		add	r0, r0, #14	@ tmp350,
 1663 0230 0078     		ldrb	r0, [r0]	@ tmp351, resp_down
 1664 0232 0090     		str	r0, [sp]	@ tmp351,
 1665 0234 081C     		mov	r0, r1	@, tmp347
 1666 0236 111C     		mov	r1, r2	@, tmp348
 1667 0238 1A1C     		mov	r2, r3	@, tmp349
 1668 023a 0323     		mov	r3, #3	@,
 1669 023c FFF7FEFF 		bl	FuncOptions	@
 521:.\src/standalone.c **** 			standalone_menu_state++;
 1670              		.loc 1 521 0
 1671 0240 444B     		ldr	r3, .L185	@ tmp352,
 1672 0242 1B78     		ldrb	r3, [r3]	@ standalone_menu_state.16, standalone_menu_state
 1673 0244 0133     		add	r3, r3, #1	@ tmp353,
 1674 0246 DAB2     		uxtb	r2, r3	@ standalone_menu_state.17, tmp353
 1675 0248 424B     		ldr	r3, .L185	@ tmp354,
 1676 024a 1A70     		strb	r2, [r3]	@ tmp355, standalone_menu_state
 522:.\src/standalone.c **** 			break;
 1677              		.loc 1 522 0
 1678 024c C2E2     		b	.L125	@
 1679              	.L107:
 523:.\src/standalone.c **** 
 524:.\src/standalone.c **** 		case STAND_ALONE_MENU_MOV_SENS_SELECTED_1:
 525:.\src/standalone.c **** 			resp_down = FuncOptions ((const char *) "on   off   back ",(const char *) s_blank_line, (unsigne
 1680              		.loc 1 525 0
 1681 024e 6C46     		mov	r4, sp	@ tmp356,
 1682 0250 0E34     		add	r4, r4, #14	@ tmp356,
 1683 0252 4B49     		ldr	r1, .L185+44	@ tmp357,
 1684 0254 4B4A     		ldr	r2, .L185+48	@ tmp358,
 1685 0256 4C4B     		ldr	r3, .L185+52	@ tmp359,
 1686 0258 0020     		mov	r0, #0	@ tmp360,
 1687 025a 0090     		str	r0, [sp]	@ tmp360,
 1688 025c 081C     		mov	r0, r1	@, tmp357
 1689 025e 111C     		mov	r1, r2	@, tmp358
 1690 0260 1A1C     		mov	r2, r3	@, tmp359
 1691 0262 0323     		mov	r3, #3	@,
 1692 0264 FFF7FEFF 		bl	FuncOptions	@
 1693 0268 031C     		mov	r3, r0	@ tmp361,
ARM GAS  C:\Users\Mariano\AppData\Local\Temp\cco1kxoW.s 			page 42


 1694 026a 2370     		strb	r3, [r4]	@ tmp363, resp_down
 526:.\src/standalone.c **** 
 527:.\src/standalone.c **** 			if ((resp_down & 0x0f) == RESP_SELECTED)
 1695              		.loc 1 527 0
 1696 026c 6B46     		mov	r3, sp	@ tmp364,
 1697 026e 0E33     		add	r3, r3, #14	@ tmp364,
 1698 0270 1A78     		ldrb	r2, [r3]	@ D.5986, resp_down
 1699 0272 0F23     		mov	r3, #15	@ tmp365,
 1700 0274 1340     		and	r3, r2	@ D.5987, D.5986
 1701 0276 012B     		cmp	r3, #1	@ D.5987,
 1702 0278 00D0     		beq	.LCB1338	@
 1703 027a 9EE2     		b	.L178	@long jump	@
 1704              	.LCB1338:
 528:.\src/standalone.c **** 			{
 529:.\src/standalone.c **** 				resp_down = resp_down & 0xf0;
 1705              		.loc 1 529 0
 1706 027c 6B46     		mov	r3, sp	@ tmp366,
 1707 027e 0E33     		add	r3, r3, #14	@ tmp366,
 1708 0280 6A46     		mov	r2, sp	@ tmp367,
 1709 0282 0E32     		add	r2, r2, #14	@ tmp367,
 1710 0284 1278     		ldrb	r2, [r2]	@ tmp368, resp_down
 1711 0286 0F21     		mov	r1, #15	@ tmp370,
 1712 0288 8A43     		bic	r2, r1	@ tmp369, tmp370
 1713 028a 1A70     		strb	r2, [r3]	@ tmp371, resp_down
 530:.\src/standalone.c **** 				resp_down >>= 4;
 1714              		.loc 1 530 0
 1715 028c 6B46     		mov	r3, sp	@ tmp372,
 1716 028e 0E33     		add	r3, r3, #14	@ tmp372,
 1717 0290 6A46     		mov	r2, sp	@ tmp373,
 1718 0292 0E32     		add	r2, r2, #14	@ tmp373,
 1719 0294 1278     		ldrb	r2, [r2]	@ tmp374, resp_down
 1720 0296 1209     		lsr	r2, r2, #4	@ tmp375, tmp374,
 1721 0298 1A70     		strb	r2, [r3]	@ tmp376, resp_down
 531:.\src/standalone.c **** 				if (resp_down == 0)
 1722              		.loc 1 531 0
 1723 029a 6B46     		mov	r3, sp	@ tmp377,
 1724 029c 0E33     		add	r3, r3, #14	@ tmp377,
 1725 029e 1B78     		ldrb	r3, [r3]	@ tmp378, resp_down
 1726 02a0 002B     		cmp	r3, #0	@ tmp378,
 1727 02a2 02D1     		bne	.L147	@,
 532:.\src/standalone.c **** 				{
 533:.\src/standalone.c **** 					StandAloneStruct_local.move_sensor_enable = 1;
 1728              		.loc 1 533 0
 1729 02a4 354B     		ldr	r3, .L185+40	@ tmp379,
 1730 02a6 0122     		mov	r2, #1	@ tmp380,
 1731 02a8 1A70     		strb	r2, [r3]	@ tmp381, StandAloneStruct_local.move_sensor_enable
 1732              	.L147:
 534:.\src/standalone.c **** 				}
 535:.\src/standalone.c **** 
 536:.\src/standalone.c **** 				if (resp_down == 1)
 1733              		.loc 1 536 0
 1734 02aa 6B46     		mov	r3, sp	@ tmp382,
 1735 02ac 0E33     		add	r3, r3, #14	@ tmp382,
 1736 02ae 1B78     		ldrb	r3, [r3]	@ tmp383, resp_down
 1737 02b0 012B     		cmp	r3, #1	@ tmp383,
 1738 02b2 02D1     		bne	.L148	@,
 537:.\src/standalone.c **** 				{
ARM GAS  C:\Users\Mariano\AppData\Local\Temp\cco1kxoW.s 			page 43


 538:.\src/standalone.c **** 					StandAloneStruct_local.move_sensor_enable = 0;
 1739              		.loc 1 538 0
 1740 02b4 314B     		ldr	r3, .L185+40	@ tmp384,
 1741 02b6 0022     		mov	r2, #0	@ tmp385,
 1742 02b8 1A70     		strb	r2, [r3]	@ tmp386, StandAloneStruct_local.move_sensor_enable
 1743              	.L148:
 539:.\src/standalone.c **** 				}
 540:.\src/standalone.c **** 
 541:.\src/standalone.c **** 				if (resp_down == 2)
 1744              		.loc 1 541 0
 1745 02ba 6B46     		mov	r3, sp	@ tmp387,
 1746 02bc 0E33     		add	r3, r3, #14	@ tmp387,
 1747 02be 1B78     		ldrb	r3, [r3]	@ tmp388, resp_down
 1748 02c0 022B     		cmp	r3, #2	@ tmp388,
 1749 02c2 11D1     		bne	.L149	@,
 542:.\src/standalone.c **** 				{
 543:.\src/standalone.c **** 					resp = RESP_WORKING;
 1750              		.loc 1 543 0
 1751 02c4 6B46     		mov	r3, sp	@ tmp389,
 1752 02c6 0F33     		add	r3, r3, #15	@ tmp389,
 1753 02c8 0422     		mov	r2, #4	@ tmp390,
 1754 02ca 1A70     		strb	r2, [r3]	@ tmp391, resp
 544:.\src/standalone.c **** 					standalone_menu_state++;
 1755              		.loc 1 544 0
 1756 02cc 214B     		ldr	r3, .L185	@ tmp392,
 1757 02ce 1B78     		ldrb	r3, [r3]	@ standalone_menu_state.18, standalone_menu_state
 1758 02d0 0133     		add	r3, r3, #1	@ tmp393,
 1759 02d2 DAB2     		uxtb	r2, r3	@ standalone_menu_state.19, tmp393
 1760 02d4 1F4B     		ldr	r3, .L185	@ tmp394,
 1761 02d6 1A70     		strb	r2, [r3]	@ tmp395, standalone_menu_state
 545:.\src/standalone.c **** 					LCD_1ER_RENGLON;
 1762              		.loc 1 545 0
 1763 02d8 0020     		mov	r0, #0	@,
 1764 02da FFF7FEFF 		bl	Lcd_SetDDRAM	@
 546:.\src/standalone.c **** 					LCDTransmitStr((const char *) "wait to free    ");
 1765              		.loc 1 546 0
 1766 02de 2B4B     		ldr	r3, .L185+56	@ tmp396,
 1767 02e0 181C     		mov	r0, r3	@, tmp396
 1768 02e2 FFF7FEFF 		bl	LCDTransmitStr	@
 547:.\src/standalone.c **** 				}
 548:.\src/standalone.c **** 				else
 549:.\src/standalone.c **** 				{
 550:.\src/standalone.c **** 					resp = RESP_SELECTED;
 551:.\src/standalone.c **** 					standalone_menu_state = STAND_ALONE_MENU_MOV_SENS;
 552:.\src/standalone.c **** 				}
 553:.\src/standalone.c **** 			}
 554:.\src/standalone.c **** 			break;
 1769              		.loc 1 554 0
 1770 02e6 68E2     		b	.L178	@
 1771              	.L149:
 550:.\src/standalone.c **** 					resp = RESP_SELECTED;
 1772              		.loc 1 550 0
 1773 02e8 6B46     		mov	r3, sp	@ tmp397,
 1774 02ea 0F33     		add	r3, r3, #15	@ tmp397,
 1775 02ec 0122     		mov	r2, #1	@ tmp398,
 1776 02ee 1A70     		strb	r2, [r3]	@ tmp399, resp
 551:.\src/standalone.c **** 					standalone_menu_state = STAND_ALONE_MENU_MOV_SENS;
ARM GAS  C:\Users\Mariano\AppData\Local\Temp\cco1kxoW.s 			page 44


 1777              		.loc 1 551 0
 1778 02f0 184B     		ldr	r3, .L185	@ tmp400,
 1779 02f2 0122     		mov	r2, #1	@ tmp401,
 1780 02f4 1A70     		strb	r2, [r3]	@ tmp402, standalone_menu_state
 1781              		.loc 1 554 0
 1782 02f6 60E2     		b	.L178	@
 1783              	.L108:
 555:.\src/standalone.c **** 
 556:.\src/standalone.c **** 		case STAND_ALONE_MENU_MOV_SENS_SELECTED_2:
 557:.\src/standalone.c **** 			if (CheckS2() == S_NO)
 1784              		.loc 1 557 0
 1785 02f8 FFF7FEFF 		bl	CheckS2	@
 1786 02fc 031C     		mov	r3, r0	@ tmp403,
 1787 02fe 002B     		cmp	r3, #0	@ D.5999,
 1788 0300 02D1     		bne	.L150	@,
 558:.\src/standalone.c **** 				standalone_menu_state = STAND_ALONE_MENU_MOV_SENS;
 1789              		.loc 1 558 0
 1790 0302 144B     		ldr	r3, .L185	@ tmp405,
 1791 0304 0122     		mov	r2, #1	@ tmp406,
 1792 0306 1A70     		strb	r2, [r3]	@ tmp407, standalone_menu_state
 1793              	.L150:
 559:.\src/standalone.c **** 
 560:.\src/standalone.c **** 			resp = RESP_WORKING;
 1794              		.loc 1 560 0
 1795 0308 6B46     		mov	r3, sp	@ tmp408,
 1796 030a 0F33     		add	r3, r3, #15	@ tmp408,
 1797 030c 0422     		mov	r2, #4	@ tmp409,
 1798 030e 1A70     		strb	r2, [r3]	@ tmp410, resp
 561:.\src/standalone.c **** 			break;
 1799              		.loc 1 561 0
 1800 0310 60E2     		b	.L125	@
 1801              	.L109:
 562:.\src/standalone.c **** 
 563:.\src/standalone.c **** 		case STAND_ALONE_MENU_LDR_SELECTED:
 564:.\src/standalone.c **** 			if (StandAloneStruct_local.ldr_enable)
 1802              		.loc 1 564 0
 1803 0312 1A4B     		ldr	r3, .L185+40	@ tmp411,
 1804 0314 5B78     		ldrb	r3, [r3, #1]	@ D.6002,
 1805 0316 002B     		cmp	r3, #0	@ D.6002,
 1806 0318 04D0     		beq	.L151	@,
 565:.\src/standalone.c **** 				resp_down = 0x80;
 1807              		.loc 1 565 0
 1808 031a 6B46     		mov	r3, sp	@ tmp412,
 1809 031c 0E33     		add	r3, r3, #14	@ tmp412,
 1810 031e 8022     		mov	r2, #128	@ tmp413,
 1811 0320 1A70     		strb	r2, [r3]	@ tmp414, resp_down
 1812 0322 03E0     		b	.L152	@
 1813              	.L151:
 566:.\src/standalone.c **** 			else
 567:.\src/standalone.c **** 				resp_down = 0x81;
 1814              		.loc 1 567 0
 1815 0324 6B46     		mov	r3, sp	@ tmp415,
 1816 0326 0E33     		add	r3, r3, #14	@ tmp415,
 1817 0328 8122     		mov	r2, #129	@ tmp416,
 1818 032a 1A70     		strb	r2, [r3]	@ tmp417, resp_down
 1819              	.L152:
 568:.\src/standalone.c **** 
ARM GAS  C:\Users\Mariano\AppData\Local\Temp\cco1kxoW.s 			page 45


 569:.\src/standalone.c **** 			FuncOptions ((const char *) "on   off   back ",(const char *) s_blank_line, (unsigned char *)s_s
 1820              		.loc 1 569 0
 1821 032c 1449     		ldr	r1, .L185+44	@ tmp418,
 1822 032e 154A     		ldr	r2, .L185+48	@ tmp419,
 1823 0330 154B     		ldr	r3, .L185+52	@ tmp420,
 1824 0332 6846     		mov	r0, sp	@ tmp421,
 1825 0334 0E30     		add	r0, r0, #14	@ tmp421,
 1826 0336 0078     		ldrb	r0, [r0]	@ tmp422, resp_down
 1827 0338 0090     		str	r0, [sp]	@ tmp422,
 1828 033a 081C     		mov	r0, r1	@, tmp418
 1829 033c 111C     		mov	r1, r2	@, tmp419
 1830 033e 1A1C     		mov	r2, r3	@, tmp420
 1831 0340 0323     		mov	r3, #3	@,
 1832 0342 FFF7FEFF 		bl	FuncOptions	@
 570:.\src/standalone.c **** 			standalone_menu_state++;
 1833              		.loc 1 570 0
 1834 0346 034B     		ldr	r3, .L185	@ tmp423,
 1835 0348 1B78     		ldrb	r3, [r3]	@ standalone_menu_state.20, standalone_menu_state
 1836 034a 0133     		add	r3, r3, #1	@ tmp424,
 1837 034c DAB2     		uxtb	r2, r3	@ standalone_menu_state.21, tmp424
 1838 034e 014B     		ldr	r3, .L185	@ tmp425,
 1839 0350 1A70     		strb	r2, [r3]	@ tmp426, standalone_menu_state
 571:.\src/standalone.c **** 			break;
 1840              		.loc 1 571 0
 1841 0352 3FE2     		b	.L125	@
 1842              	.L186:
 1843              		.align	2
 1844              	.L185:
 1845 0354 00000000 		.word	standalone_menu_state
 1846 0358 00000000 		.word	.L123
 1847 035c 9C000000 		.word	.LC30
 1848 0360 B0000000 		.word	.LC32
 1849 0364 BC000000 		.word	.LC34
 1850 0368 D0000000 		.word	.LC36
 1851 036c E4000000 		.word	.LC38
 1852 0370 F8000000 		.word	.LC40
 1853 0374 0C010000 		.word	.LC42
 1854 0378 20010000 		.word	.LC44
 1855 037c 00000000 		.word	StandAloneStruct_local
 1856 0380 34010000 		.word	.LC47
 1857 0384 00000000 		.word	s_blank_line
 1858 0388 00000000 		.word	s_sel
 1859 038c 74000000 		.word	.LC23
 1860              	.L110:
 572:.\src/standalone.c **** 
 573:.\src/standalone.c **** 		case STAND_ALONE_MENU_LDR_SELECTED_1:
 574:.\src/standalone.c **** 			resp_down = FuncOptions ((const char *) "on   off   back ",(const char *) s_blank_line,(unsigned
 1861              		.loc 1 574 0
 1862 0390 6C46     		mov	r4, sp	@ tmp427,
 1863 0392 0E34     		add	r4, r4, #14	@ tmp427,
 1864 0394 D149     		ldr	r1, .L187	@ tmp428,
 1865 0396 D24A     		ldr	r2, .L187+4	@ tmp429,
 1866 0398 D24B     		ldr	r3, .L187+8	@ tmp430,
 1867 039a 0020     		mov	r0, #0	@ tmp431,
 1868 039c 0090     		str	r0, [sp]	@ tmp431,
 1869 039e 081C     		mov	r0, r1	@, tmp428
 1870 03a0 111C     		mov	r1, r2	@, tmp429
ARM GAS  C:\Users\Mariano\AppData\Local\Temp\cco1kxoW.s 			page 46


 1871 03a2 1A1C     		mov	r2, r3	@, tmp430
 1872 03a4 0323     		mov	r3, #3	@,
 1873 03a6 FFF7FEFF 		bl	FuncOptions	@
 1874 03aa 031C     		mov	r3, r0	@ tmp432,
 1875 03ac 2370     		strb	r3, [r4]	@ tmp434, resp_down
 575:.\src/standalone.c **** 
 576:.\src/standalone.c **** 			if ((resp_down & 0x0f) == RESP_SELECTED)
 1876              		.loc 1 576 0
 1877 03ae 6B46     		mov	r3, sp	@ tmp435,
 1878 03b0 0E33     		add	r3, r3, #14	@ tmp435,
 1879 03b2 1A78     		ldrb	r2, [r3]	@ D.6008, resp_down
 1880 03b4 0F23     		mov	r3, #15	@ tmp436,
 1881 03b6 1340     		and	r3, r2	@ D.6009, D.6008
 1882 03b8 012B     		cmp	r3, #1	@ D.6009,
 1883 03ba 00D0     		beq	.LCB1506	@
 1884 03bc FFE1     		b	.L179	@long jump	@
 1885              	.LCB1506:
 577:.\src/standalone.c **** 			{
 578:.\src/standalone.c **** 				resp_down = resp_down & 0xf0;
 1886              		.loc 1 578 0
 1887 03be 6B46     		mov	r3, sp	@ tmp437,
 1888 03c0 0E33     		add	r3, r3, #14	@ tmp437,
 1889 03c2 6A46     		mov	r2, sp	@ tmp438,
 1890 03c4 0E32     		add	r2, r2, #14	@ tmp438,
 1891 03c6 1278     		ldrb	r2, [r2]	@ tmp439, resp_down
 1892 03c8 0F21     		mov	r1, #15	@ tmp441,
 1893 03ca 8A43     		bic	r2, r1	@ tmp440, tmp441
 1894 03cc 1A70     		strb	r2, [r3]	@ tmp442, resp_down
 579:.\src/standalone.c **** 				resp_down >>= 4;
 1895              		.loc 1 579 0
 1896 03ce 6B46     		mov	r3, sp	@ tmp443,
 1897 03d0 0E33     		add	r3, r3, #14	@ tmp443,
 1898 03d2 6A46     		mov	r2, sp	@ tmp444,
 1899 03d4 0E32     		add	r2, r2, #14	@ tmp444,
 1900 03d6 1278     		ldrb	r2, [r2]	@ tmp445, resp_down
 1901 03d8 1209     		lsr	r2, r2, #4	@ tmp446, tmp445,
 1902 03da 1A70     		strb	r2, [r3]	@ tmp447, resp_down
 580:.\src/standalone.c **** 				if (resp_down == 0)
 1903              		.loc 1 580 0
 1904 03dc 6B46     		mov	r3, sp	@ tmp448,
 1905 03de 0E33     		add	r3, r3, #14	@ tmp448,
 1906 03e0 1B78     		ldrb	r3, [r3]	@ tmp449, resp_down
 1907 03e2 002B     		cmp	r3, #0	@ tmp449,
 1908 03e4 0FD1     		bne	.L154	@,
 581:.\src/standalone.c **** 				{
 582:.\src/standalone.c **** 					StandAloneStruct_local.ldr_enable = 1;
 1909              		.loc 1 582 0
 1910 03e6 C04B     		ldr	r3, .L187+12	@ tmp450,
 1911 03e8 0122     		mov	r2, #1	@ tmp451,
 1912 03ea 5A70     		strb	r2, [r3, #1]	@ tmp452, StandAloneStruct_local.ldr_enable
 583:.\src/standalone.c **** 					standalone_menu_state++;
 1913              		.loc 1 583 0
 1914 03ec BF4B     		ldr	r3, .L187+16	@ tmp453,
 1915 03ee 1B78     		ldrb	r3, [r3]	@ standalone_menu_state.22, standalone_menu_state
 1916 03f0 0133     		add	r3, r3, #1	@ tmp454,
 1917 03f2 DAB2     		uxtb	r2, r3	@ standalone_menu_state.23, tmp454
 1918 03f4 BD4B     		ldr	r3, .L187+16	@ tmp455,
ARM GAS  C:\Users\Mariano\AppData\Local\Temp\cco1kxoW.s 			page 47


 1919 03f6 1A70     		strb	r2, [r3]	@ tmp456, standalone_menu_state
 584:.\src/standalone.c **** 					LCD_1ER_RENGLON;
 1920              		.loc 1 584 0
 1921 03f8 0020     		mov	r0, #0	@,
 1922 03fa FFF7FEFF 		bl	Lcd_SetDDRAM	@
 585:.\src/standalone.c **** 					LCDTransmitStr((const char *) "wait to free    ");
 1923              		.loc 1 585 0
 1924 03fe BC4B     		ldr	r3, .L187+20	@ tmp457,
 1925 0400 181C     		mov	r0, r3	@, tmp457
 1926 0402 FFF7FEFF 		bl	LCDTransmitStr	@
 1927              	.L154:
 586:.\src/standalone.c **** 				}
 587:.\src/standalone.c **** 
 588:.\src/standalone.c **** 				if (resp_down == 1)
 1928              		.loc 1 588 0
 1929 0406 6B46     		mov	r3, sp	@ tmp458,
 1930 0408 0E33     		add	r3, r3, #14	@ tmp458,
 1931 040a 1B78     		ldrb	r3, [r3]	@ tmp459, resp_down
 1932 040c 012B     		cmp	r3, #1	@ tmp459,
 1933 040e 09D1     		bne	.L155	@,
 589:.\src/standalone.c **** 				{
 590:.\src/standalone.c **** 					StandAloneStruct_local.ldr_enable = 0;
 1934              		.loc 1 590 0
 1935 0410 B54B     		ldr	r3, .L187+12	@ tmp460,
 1936 0412 0022     		mov	r2, #0	@ tmp461,
 1937 0414 5A70     		strb	r2, [r3, #1]	@ tmp462, StandAloneStruct_local.ldr_enable
 591:.\src/standalone.c **** 					resp = RESP_SELECTED;
 1938              		.loc 1 591 0
 1939 0416 6B46     		mov	r3, sp	@ tmp463,
 1940 0418 0F33     		add	r3, r3, #15	@ tmp463,
 1941 041a 0122     		mov	r2, #1	@ tmp464,
 1942 041c 1A70     		strb	r2, [r3]	@ tmp465, resp
 592:.\src/standalone.c **** 					standalone_menu_state = STAND_ALONE_MENU_LDR;
 1943              		.loc 1 592 0
 1944 041e B34B     		ldr	r3, .L187+16	@ tmp466,
 1945 0420 0222     		mov	r2, #2	@ tmp467,
 1946 0422 1A70     		strb	r2, [r3]	@ tmp468, standalone_menu_state
 1947              	.L155:
 593:.\src/standalone.c **** 				}
 594:.\src/standalone.c **** 
 595:.\src/standalone.c **** 				if (resp_down == 2)
 1948              		.loc 1 595 0
 1949 0424 6B46     		mov	r3, sp	@ tmp469,
 1950 0426 0E33     		add	r3, r3, #14	@ tmp469,
 1951 0428 1B78     		ldrb	r3, [r3]	@ tmp470, resp_down
 1952 042a 022B     		cmp	r3, #2	@ tmp470,
 1953 042c 00D0     		beq	.LCB1564	@
 1954 042e C6E1     		b	.L179	@long jump	@
 1955              	.LCB1564:
 596:.\src/standalone.c **** 				{
 597:.\src/standalone.c **** 					resp = RESP_WORKING;
 1956              		.loc 1 597 0
 1957 0430 6B46     		mov	r3, sp	@ tmp471,
 1958 0432 0F33     		add	r3, r3, #15	@ tmp471,
 1959 0434 0422     		mov	r2, #4	@ tmp472,
 1960 0436 1A70     		strb	r2, [r3]	@ tmp473, resp
 598:.\src/standalone.c **** 					standalone_menu_state = STAND_ALONE_MENU_LDR_SELECTED_4;
ARM GAS  C:\Users\Mariano\AppData\Local\Temp\cco1kxoW.s 			page 48


 1961              		.loc 1 598 0
 1962 0438 AC4B     		ldr	r3, .L187+16	@ tmp474,
 1963 043a 1122     		mov	r2, #17	@ tmp475,
 1964 043c 1A70     		strb	r2, [r3]	@ tmp476, standalone_menu_state
 599:.\src/standalone.c **** 					LCD_1ER_RENGLON;
 1965              		.loc 1 599 0
 1966 043e 0020     		mov	r0, #0	@,
 1967 0440 FFF7FEFF 		bl	Lcd_SetDDRAM	@
 600:.\src/standalone.c **** 					LCDTransmitStr((const char *) "wait to free    ");
 1968              		.loc 1 600 0
 1969 0444 AA4B     		ldr	r3, .L187+20	@ tmp477,
 1970 0446 181C     		mov	r0, r3	@, tmp477
 1971 0448 FFF7FEFF 		bl	LCDTransmitStr	@
 601:.\src/standalone.c **** 				}
 602:.\src/standalone.c **** 			}
 603:.\src/standalone.c **** 			break;
 1972              		.loc 1 603 0
 1973 044c B7E1     		b	.L179	@
 1974              	.L111:
 604:.\src/standalone.c **** 
 605:.\src/standalone.c **** 		case STAND_ALONE_MENU_LDR_SELECTED_2:
 606:.\src/standalone.c **** 			if (CheckS2() == S_NO)
 1975              		.loc 1 606 0
 1976 044e FFF7FEFF 		bl	CheckS2	@
 1977 0452 031C     		mov	r3, r0	@ tmp478,
 1978 0454 002B     		cmp	r3, #0	@ D.6020,
 1979 0456 05D1     		bne	.L156	@,
 607:.\src/standalone.c **** 				standalone_menu_state++;
 1980              		.loc 1 607 0
 1981 0458 A44B     		ldr	r3, .L187+16	@ tmp480,
 1982 045a 1B78     		ldrb	r3, [r3]	@ standalone_menu_state.24, standalone_menu_state
 1983 045c 0133     		add	r3, r3, #1	@ tmp481,
 1984 045e DAB2     		uxtb	r2, r3	@ standalone_menu_state.25, tmp481
 1985 0460 A24B     		ldr	r3, .L187+16	@ tmp482,
 1986 0462 1A70     		strb	r2, [r3]	@ tmp483, standalone_menu_state
 1987              	.L156:
 608:.\src/standalone.c **** 
 609:.\src/standalone.c **** 			resp = RESP_WORKING;
 1988              		.loc 1 609 0
 1989 0464 6B46     		mov	r3, sp	@ tmp484,
 1990 0466 0F33     		add	r3, r3, #15	@ tmp484,
 1991 0468 0422     		mov	r2, #4	@ tmp485,
 1992 046a 1A70     		strb	r2, [r3]	@ tmp486, resp
 610:.\src/standalone.c **** 			break;
 1993              		.loc 1 610 0
 1994 046c B2E1     		b	.L125	@
 1995              	.L112:
 611:.\src/standalone.c **** 
 612:.\src/standalone.c **** 		case STAND_ALONE_MENU_LDR_SELECTED_3:
 613:.\src/standalone.c **** 			//resp_down = FuncChange (&StandAloneStruct_local.ldr_value);
 614:.\src/standalone.c **** 			resp_down = FuncChangePercent (&StandAloneStruct_local.ldr_value);
 1996              		.loc 1 614 0
 1997 046e 6C46     		mov	r4, sp	@ tmp487,
 1998 0470 0E34     		add	r4, r4, #14	@ tmp487,
 1999 0472 A04B     		ldr	r3, .L187+24	@ tmp488,
 2000 0474 181C     		mov	r0, r3	@, tmp488
 2001 0476 0021     		mov	r1, #0	@,
ARM GAS  C:\Users\Mariano\AppData\Local\Temp\cco1kxoW.s 			page 49


 2002 0478 0022     		mov	r2, #0	@,
 2003 047a 6423     		mov	r3, #100	@,
 2004 047c FFF7FEFF 		bl	FuncChange	@
 2005 0480 031C     		mov	r3, r0	@ tmp489,
 2006 0482 2370     		strb	r3, [r4]	@ tmp491, resp_down
 615:.\src/standalone.c **** 
 616:.\src/standalone.c **** 			if (resp_down == RESP_FINISH)
 2007              		.loc 1 616 0
 2008 0484 6B46     		mov	r3, sp	@ tmp492,
 2009 0486 0E33     		add	r3, r3, #14	@ tmp492,
 2010 0488 1B78     		ldrb	r3, [r3]	@ tmp493, resp_down
 2011 048a 0A2B     		cmp	r3, #10	@ tmp493,
 2012 048c 02D1     		bne	.L157	@,
 617:.\src/standalone.c **** 				standalone_menu_state = STAND_ALONE_MENU_LDR_SELECTED_5;
 2013              		.loc 1 617 0
 2014 048e 974B     		ldr	r3, .L187+16	@ tmp494,
 2015 0490 1222     		mov	r2, #18	@ tmp495,
 2016 0492 1A70     		strb	r2, [r3]	@ tmp496, standalone_menu_state
 2017              	.L157:
 618:.\src/standalone.c **** 
 619:.\src/standalone.c **** 			resp = RESP_WORKING;
 2018              		.loc 1 619 0
 2019 0494 6B46     		mov	r3, sp	@ tmp497,
 2020 0496 0F33     		add	r3, r3, #15	@ tmp497,
 2021 0498 0422     		mov	r2, #4	@ tmp498,
 2022 049a 1A70     		strb	r2, [r3]	@ tmp499, resp
 620:.\src/standalone.c **** 			break;
 2023              		.loc 1 620 0
 2024 049c 9AE1     		b	.L125	@
 2025              	.L113:
 621:.\src/standalone.c **** 
 622:.\src/standalone.c **** 		case STAND_ALONE_MENU_LDR_SELECTED_4:
 623:.\src/standalone.c **** 			if (CheckS2() == S_NO)
 2026              		.loc 1 623 0
 2027 049e FFF7FEFF 		bl	CheckS2	@
 2028 04a2 031C     		mov	r3, r0	@ tmp500,
 2029 04a4 002B     		cmp	r3, #0	@ D.6027,
 2030 04a6 02D1     		bne	.L158	@,
 624:.\src/standalone.c **** 				standalone_menu_state = STAND_ALONE_MENU_LDR;
 2031              		.loc 1 624 0
 2032 04a8 904B     		ldr	r3, .L187+16	@ tmp502,
 2033 04aa 0222     		mov	r2, #2	@ tmp503,
 2034 04ac 1A70     		strb	r2, [r3]	@ tmp504, standalone_menu_state
 2035              	.L158:
 625:.\src/standalone.c **** 
 626:.\src/standalone.c **** 			resp = RESP_WORKING;
 2036              		.loc 1 626 0
 2037 04ae 6B46     		mov	r3, sp	@ tmp505,
 2038 04b0 0F33     		add	r3, r3, #15	@ tmp505,
 2039 04b2 0422     		mov	r2, #4	@ tmp506,
 2040 04b4 1A70     		strb	r2, [r3]	@ tmp507, resp
 627:.\src/standalone.c **** 			break;
 2041              		.loc 1 627 0
 2042 04b6 8DE1     		b	.L125	@
 2043              	.L114:
 628:.\src/standalone.c **** 
 629:.\src/standalone.c **** 		case STAND_ALONE_MENU_LDR_SELECTED_5:
ARM GAS  C:\Users\Mariano\AppData\Local\Temp\cco1kxoW.s 			page 50


 630:.\src/standalone.c **** 			resp = RESP_WORKING;
 2044              		.loc 1 630 0
 2045 04b8 6B46     		mov	r3, sp	@ tmp508,
 2046 04ba 0F33     		add	r3, r3, #15	@ tmp508,
 2047 04bc 0422     		mov	r2, #4	@ tmp509,
 2048 04be 1A70     		strb	r2, [r3]	@ tmp510, resp
 631:.\src/standalone.c **** 			if (CheckS2() == S_NO)
 2049              		.loc 1 631 0
 2050 04c0 FFF7FEFF 		bl	CheckS2	@
 2051 04c4 031C     		mov	r3, r0	@ tmp511,
 2052 04c6 002B     		cmp	r3, #0	@ D.6030,
 2053 04c8 00D0     		beq	.LCB1653	@
 2054 04ca 7AE1     		b	.L180	@long jump	@
 2055              	.LCB1653:
 632:.\src/standalone.c **** 			{
 633:.\src/standalone.c **** 				standalone_menu_state = STAND_ALONE_MENU_LDR;
 2056              		.loc 1 633 0
 2057 04cc 874B     		ldr	r3, .L187+16	@ tmp513,
 2058 04ce 0222     		mov	r2, #2	@ tmp514,
 2059 04d0 1A70     		strb	r2, [r3]	@ tmp515, standalone_menu_state
 634:.\src/standalone.c **** 				resp = RESP_SELECTED;
 2060              		.loc 1 634 0
 2061 04d2 6B46     		mov	r3, sp	@ tmp516,
 2062 04d4 0F33     		add	r3, r3, #15	@ tmp516,
 2063 04d6 0122     		mov	r2, #1	@ tmp517,
 2064 04d8 1A70     		strb	r2, [r3]	@ tmp518, resp
 635:.\src/standalone.c **** 			}
 636:.\src/standalone.c **** 			break;
 2065              		.loc 1 636 0
 2066 04da 72E1     		b	.L180	@
 2067              	.L115:
 637:.\src/standalone.c **** 
 638:.\src/standalone.c **** 		case STAND_ALONE_MENU_MAX_DIMMING_SELECTED:
 639:.\src/standalone.c **** 			resp_down = FuncChangePercent (&StandAloneStruct_local.max_dimmer_value_percent);
 2068              		.loc 1 639 0
 2069 04dc 6C46     		mov	r4, sp	@ tmp519,
 2070 04de 0E34     		add	r4, r4, #14	@ tmp519,
 2071 04e0 854B     		ldr	r3, .L187+28	@ tmp520,
 2072 04e2 181C     		mov	r0, r3	@, tmp520
 2073 04e4 0021     		mov	r1, #0	@,
 2074 04e6 0022     		mov	r2, #0	@,
 2075 04e8 6423     		mov	r3, #100	@,
 2076 04ea FFF7FEFF 		bl	FuncChange	@
 2077 04ee 031C     		mov	r3, r0	@ tmp521,
 2078 04f0 2370     		strb	r3, [r4]	@ tmp523, resp_down
 640:.\src/standalone.c **** 
 641:.\src/standalone.c **** 			if (resp_down == RESP_FINISH)
 2079              		.loc 1 641 0
 2080 04f2 6B46     		mov	r3, sp	@ tmp524,
 2081 04f4 0E33     		add	r3, r3, #14	@ tmp524,
 2082 04f6 1B78     		ldrb	r3, [r3]	@ tmp525, resp_down
 2083 04f8 0A2B     		cmp	r3, #10	@ tmp525,
 2084 04fa 1ED1     		bne	.L160	@,
 2085              	.LBB2:
 642:.\src/standalone.c **** 			{
 643:.\src/standalone.c **** 				unsigned short local;
 644:.\src/standalone.c **** 				local = StandAloneStruct_local.max_dimmer_value_percent * 255;
ARM GAS  C:\Users\Mariano\AppData\Local\Temp\cco1kxoW.s 			page 51


 2086              		.loc 1 644 0
 2087 04fc 7A4B     		ldr	r3, .L187+12	@ tmp526,
 2088 04fe DB78     		ldrb	r3, [r3, #3]	@ D.6035,
 2089 0500 03AA     		add	r2, sp, #12	@ tmp527,,
 2090 0502 191C     		add	r1, r3, #0	@ tmp529, tmp528
 2091 0504 0902     		lsl	r1, r1, #8	@ tmp530, tmp529,
 2092 0506 CB1A     		sub	r3, r1, r3	@ tmp532, tmp531, tmp528
 2093 0508 1380     		strh	r3, [r2]	@ tmp533, local
 645:.\src/standalone.c **** 				local = local / 100;
 2094              		.loc 1 645 0
 2095 050a 03AC     		add	r4, sp, #12	@ tmp534,,
 2096 050c 03AB     		add	r3, sp, #12	@ tmp535,,
 2097 050e 1B88     		ldrh	r3, [r3]	@ tmp537, local
 2098 0510 181C     		mov	r0, r3	@, tmp537
 2099 0512 6421     		mov	r1, #100	@,
 2100 0514 FFF7FEFF 		bl	__aeabi_uidiv	@
 2101 0518 031C     		mov	r3, r0	@ tmp540,
 2102 051a 2380     		strh	r3, [r4]	@ tmp541, local
 646:.\src/standalone.c **** 				StandAloneStruct_local.max_dimmer_value_dmx = local;
 2103              		.loc 1 646 0
 2104 051c 03AB     		add	r3, sp, #12	@ tmp542,,
 2105 051e 1B88     		ldrh	r3, [r3]	@ tmp544, local
 2106 0520 DAB2     		uxtb	r2, r3	@ D.6037, tmp543
 2107 0522 714B     		ldr	r3, .L187+12	@ tmp545,
 2108 0524 1A71     		strb	r2, [r3, #4]	@ tmp546, StandAloneStruct_local.max_dimmer_value_dmx
 647:.\src/standalone.c **** 
 648:.\src/standalone.c **** 				standalone_menu_state = STAND_ALONE_MENU_MAX_DIMMING_SELECTED_1;
 2109              		.loc 1 648 0
 2110 0526 714B     		ldr	r3, .L187+16	@ tmp547,
 2111 0528 1422     		mov	r2, #20	@ tmp548,
 2112 052a 1A70     		strb	r2, [r3]	@ tmp549, standalone_menu_state
 649:.\src/standalone.c **** 				LCD_1ER_RENGLON;
 2113              		.loc 1 649 0
 2114 052c 0020     		mov	r0, #0	@,
 2115 052e FFF7FEFF 		bl	Lcd_SetDDRAM	@
 650:.\src/standalone.c **** 				LCDTransmitStr((const char *) "wait to free    ");
 2116              		.loc 1 650 0
 2117 0532 6F4B     		ldr	r3, .L187+20	@ tmp550,
 2118 0534 181C     		mov	r0, r3	@, tmp550
 2119 0536 FFF7FEFF 		bl	LCDTransmitStr	@
 2120              	.L160:
 2121              	.LBE2:
 651:.\src/standalone.c **** 			}
 652:.\src/standalone.c **** 
 653:.\src/standalone.c **** 			resp = RESP_WORKING;
 2122              		.loc 1 653 0
 2123 053a 6B46     		mov	r3, sp	@ tmp551,
 2124 053c 0F33     		add	r3, r3, #15	@ tmp551,
 2125 053e 0422     		mov	r2, #4	@ tmp552,
 2126 0540 1A70     		strb	r2, [r3]	@ tmp553, resp
 654:.\src/standalone.c **** 			break;
 2127              		.loc 1 654 0
 2128 0542 47E1     		b	.L125	@
 2129              	.L116:
 655:.\src/standalone.c **** 
 656:.\src/standalone.c **** 		case STAND_ALONE_MENU_MAX_DIMMING_SELECTED_1:
 657:.\src/standalone.c **** 			resp = RESP_WORKING;
ARM GAS  C:\Users\Mariano\AppData\Local\Temp\cco1kxoW.s 			page 52


 2130              		.loc 1 657 0
 2131 0544 6B46     		mov	r3, sp	@ tmp554,
 2132 0546 0F33     		add	r3, r3, #15	@ tmp554,
 2133 0548 0422     		mov	r2, #4	@ tmp555,
 2134 054a 1A70     		strb	r2, [r3]	@ tmp556, resp
 658:.\src/standalone.c **** 			if (CheckS2() == S_NO)
 2135              		.loc 1 658 0
 2136 054c FFF7FEFF 		bl	CheckS2	@
 2137 0550 031C     		mov	r3, r0	@ tmp557,
 2138 0552 002B     		cmp	r3, #0	@ D.6038,
 2139 0554 00D0     		beq	.LCB1727	@
 2140 0556 36E1     		b	.L181	@long jump	@
 2141              	.LCB1727:
 659:.\src/standalone.c **** 			{
 660:.\src/standalone.c **** 				//hago el update si corresponde
 661:.\src/standalone.c **** 				if (standalone_ii > StandAloneStruct_local.max_dimmer_value_dmx)
 2142              		.loc 1 661 0
 2143 0558 634B     		ldr	r3, .L187+12	@ tmp559,
 2144 055a 1B79     		ldrb	r3, [r3, #4]	@ D.6041,
 2145 055c 1A1C     		mov	r2, r3	@ D.6042, D.6041
 2146 055e 674B     		ldr	r3, .L187+32	@ tmp560,
 2147 0560 1B88     		ldrh	r3, [r3]	@ standalone_ii.26, standalone_ii
 2148 0562 9A42     		cmp	r2, r3	@ D.6042, standalone_ii.26
 2149 0564 0CD2     		bcs	.L162	@,
 662:.\src/standalone.c **** 				{
 663:.\src/standalone.c **** 					standalone_ii = StandAloneStruct_local.max_dimmer_value_dmx;
 2150              		.loc 1 663 0
 2151 0566 604B     		ldr	r3, .L187+12	@ tmp561,
 2152 0568 1B79     		ldrb	r3, [r3, #4]	@ D.6046,
 2153 056a 1A1C     		mov	r2, r3	@ standalone_ii.27, D.6046
 2154 056c 634B     		ldr	r3, .L187+32	@ tmp562,
 2155 056e 1A80     		strh	r2, [r3]	@ tmp563, standalone_ii
 664:.\src/standalone.c **** 					Update_TIM3_CH1 (standalone_ii);
 2156              		.loc 1 664 0
 2157 0570 624B     		ldr	r3, .L187+32	@ tmp564,
 2158 0572 1B88     		ldrh	r3, [r3]	@ standalone_ii.28, standalone_ii
 2159 0574 181C     		mov	r0, r3	@, standalone_ii.28
 2160 0576 FFF7FEFF 		bl	Update_TIM3_CH1	@
 665:.\src/standalone.c **** 					standalone_dimming_last_slope = DIM_DOWN;
 2161              		.loc 1 665 0
 2162 057a 614B     		ldr	r3, .L187+36	@ tmp565,
 2163 057c 0122     		mov	r2, #1	@ tmp566,
 2164 057e 1A70     		strb	r2, [r3]	@ tmp567, standalone_dimming_last_slope
 2165              	.L162:
 666:.\src/standalone.c **** 				}
 667:.\src/standalone.c **** 				standalone_menu_state = STAND_ALONE_MENU_MAX_DIMMING;
 2166              		.loc 1 667 0
 2167 0580 5A4B     		ldr	r3, .L187+16	@ tmp568,
 2168 0582 0322     		mov	r2, #3	@ tmp569,
 2169 0584 1A70     		strb	r2, [r3]	@ tmp570, standalone_menu_state
 668:.\src/standalone.c **** 				resp = RESP_SELECTED;
 2170              		.loc 1 668 0
 2171 0586 6B46     		mov	r3, sp	@ tmp571,
 2172 0588 0F33     		add	r3, r3, #15	@ tmp571,
 2173 058a 0122     		mov	r2, #1	@ tmp572,
 2174 058c 1A70     		strb	r2, [r3]	@ tmp573, resp
 669:.\src/standalone.c **** 			}
ARM GAS  C:\Users\Mariano\AppData\Local\Temp\cco1kxoW.s 			page 53


 670:.\src/standalone.c **** 			break;
 2175              		.loc 1 670 0
 2176 058e 1AE1     		b	.L181	@
 2177              	.L117:
 671:.\src/standalone.c **** 
 672:.\src/standalone.c **** 		case STAND_ALONE_MENU_MIN_DIMMING_SELECTED:
 673:.\src/standalone.c **** 			resp_down = FuncChangePercent (&StandAloneStruct_local.min_dimmer_value_percent);
 2178              		.loc 1 673 0
 2179 0590 6C46     		mov	r4, sp	@ tmp574,
 2180 0592 0E34     		add	r4, r4, #14	@ tmp574,
 2181 0594 5B4B     		ldr	r3, .L187+40	@ tmp575,
 2182 0596 181C     		mov	r0, r3	@, tmp575
 2183 0598 0021     		mov	r1, #0	@,
 2184 059a 0022     		mov	r2, #0	@,
 2185 059c 6423     		mov	r3, #100	@,
 2186 059e FFF7FEFF 		bl	FuncChange	@
 2187 05a2 031C     		mov	r3, r0	@ tmp576,
 2188 05a4 2370     		strb	r3, [r4]	@ tmp578, resp_down
 674:.\src/standalone.c **** 
 675:.\src/standalone.c **** 			if (resp_down == RESP_FINISH)
 2189              		.loc 1 675 0
 2190 05a6 6B46     		mov	r3, sp	@ tmp579,
 2191 05a8 0E33     		add	r3, r3, #14	@ tmp579,
 2192 05aa 1B78     		ldrb	r3, [r3]	@ tmp580, resp_down
 2193 05ac 0A2B     		cmp	r3, #10	@ tmp580,
 2194 05ae 22D1     		bne	.L163	@,
 2195              	.LBB3:
 676:.\src/standalone.c **** 			{
 677:.\src/standalone.c **** 				unsigned short local;
 678:.\src/standalone.c **** 				local = StandAloneStruct_local.min_dimmer_value_percent * 255;
 2196              		.loc 1 678 0
 2197 05b0 4D4B     		ldr	r3, .L187+12	@ tmp581,
 2198 05b2 5B79     		ldrb	r3, [r3, #5]	@ D.6051,
 2199 05b4 6A46     		mov	r2, sp	@ tmp582,
 2200 05b6 0A32     		add	r2, r2, #10	@ tmp582,
 2201 05b8 191C     		add	r1, r3, #0	@ tmp584, tmp583
 2202 05ba 0902     		lsl	r1, r1, #8	@ tmp585, tmp584,
 2203 05bc CB1A     		sub	r3, r1, r3	@ tmp587, tmp586, tmp583
 2204 05be 1380     		strh	r3, [r2]	@ tmp588, local
 679:.\src/standalone.c **** 				local = local / 100;
 2205              		.loc 1 679 0
 2206 05c0 6C46     		mov	r4, sp	@ tmp589,
 2207 05c2 0A34     		add	r4, r4, #10	@ tmp589,
 2208 05c4 6B46     		mov	r3, sp	@ tmp590,
 2209 05c6 0A33     		add	r3, r3, #10	@ tmp590,
 2210 05c8 1B88     		ldrh	r3, [r3]	@ tmp592, local
 2211 05ca 181C     		mov	r0, r3	@, tmp592
 2212 05cc 6421     		mov	r1, #100	@,
 2213 05ce FFF7FEFF 		bl	__aeabi_uidiv	@
 2214 05d2 031C     		mov	r3, r0	@ tmp595,
 2215 05d4 2380     		strh	r3, [r4]	@ tmp596, local
 680:.\src/standalone.c **** 				StandAloneStruct_local.min_dimmer_value_dmx = local;
 2216              		.loc 1 680 0
 2217 05d6 6B46     		mov	r3, sp	@ tmp597,
 2218 05d8 0A33     		add	r3, r3, #10	@ tmp597,
 2219 05da 1B88     		ldrh	r3, [r3]	@ tmp599, local
 2220 05dc DAB2     		uxtb	r2, r3	@ D.6053, tmp598
ARM GAS  C:\Users\Mariano\AppData\Local\Temp\cco1kxoW.s 			page 54


 2221 05de 424B     		ldr	r3, .L187+12	@ tmp600,
 2222 05e0 9A71     		strb	r2, [r3, #6]	@ tmp601, StandAloneStruct_local.min_dimmer_value_dmx
 681:.\src/standalone.c **** 
 682:.\src/standalone.c **** 				standalone_menu_state = STAND_ALONE_MENU_MIN_DIMMING_SELECTED_1;
 2223              		.loc 1 682 0
 2224 05e2 424B     		ldr	r3, .L187+16	@ tmp602,
 2225 05e4 1622     		mov	r2, #22	@ tmp603,
 2226 05e6 1A70     		strb	r2, [r3]	@ tmp604, standalone_menu_state
 683:.\src/standalone.c **** 				LCD_1ER_RENGLON;
 2227              		.loc 1 683 0
 2228 05e8 0020     		mov	r0, #0	@,
 2229 05ea FFF7FEFF 		bl	Lcd_SetDDRAM	@
 684:.\src/standalone.c **** 				LCDTransmitStr((const char *) "wait to free    ");
 2230              		.loc 1 684 0
 2231 05ee 404B     		ldr	r3, .L187+20	@ tmp605,
 2232 05f0 181C     		mov	r0, r3	@, tmp605
 2233 05f2 FFF7FEFF 		bl	LCDTransmitStr	@
 2234              	.L163:
 2235              	.LBE3:
 685:.\src/standalone.c **** 			}
 686:.\src/standalone.c **** 
 687:.\src/standalone.c **** 			resp = RESP_WORKING;
 2236              		.loc 1 687 0
 2237 05f6 6B46     		mov	r3, sp	@ tmp606,
 2238 05f8 0F33     		add	r3, r3, #15	@ tmp606,
 2239 05fa 0422     		mov	r2, #4	@ tmp607,
 2240 05fc 1A70     		strb	r2, [r3]	@ tmp608, resp
 688:.\src/standalone.c **** 			break;
 2241              		.loc 1 688 0
 2242 05fe E9E0     		b	.L125	@
 2243              	.L118:
 689:.\src/standalone.c **** 
 690:.\src/standalone.c **** 		case STAND_ALONE_MENU_MIN_DIMMING_SELECTED_1:
 691:.\src/standalone.c **** 			resp = RESP_WORKING;
 2244              		.loc 1 691 0
 2245 0600 6B46     		mov	r3, sp	@ tmp609,
 2246 0602 0F33     		add	r3, r3, #15	@ tmp609,
 2247 0604 0422     		mov	r2, #4	@ tmp610,
 2248 0606 1A70     		strb	r2, [r3]	@ tmp611, resp
 692:.\src/standalone.c **** 			if (CheckS2() == S_NO)
 2249              		.loc 1 692 0
 2250 0608 FFF7FEFF 		bl	CheckS2	@
 2251 060c 031C     		mov	r3, r0	@ tmp612,
 2252 060e 002B     		cmp	r3, #0	@ D.6054,
 2253 0610 00D0     		beq	.LCB1826	@
 2254 0612 DAE0     		b	.L182	@long jump	@
 2255              	.LCB1826:
 693:.\src/standalone.c **** 			{
 694:.\src/standalone.c **** 				//hago el update si corresponde
 695:.\src/standalone.c **** 				if (standalone_ii < StandAloneStruct_local.min_dimmer_value_dmx)
 2256              		.loc 1 695 0
 2257 0614 344B     		ldr	r3, .L187+12	@ tmp614,
 2258 0616 9B79     		ldrb	r3, [r3, #6]	@ D.6057,
 2259 0618 1A1C     		mov	r2, r3	@ D.6058, D.6057
 2260 061a 384B     		ldr	r3, .L187+32	@ tmp615,
 2261 061c 1B88     		ldrh	r3, [r3]	@ standalone_ii.29, standalone_ii
 2262 061e 9A42     		cmp	r2, r3	@ D.6058, standalone_ii.29
ARM GAS  C:\Users\Mariano\AppData\Local\Temp\cco1kxoW.s 			page 55


 2263 0620 0CD9     		bls	.L165	@,
 696:.\src/standalone.c **** 				{
 697:.\src/standalone.c **** 					standalone_ii = StandAloneStruct_local.min_dimmer_value_dmx;
 2264              		.loc 1 697 0
 2265 0622 314B     		ldr	r3, .L187+12	@ tmp616,
 2266 0624 9B79     		ldrb	r3, [r3, #6]	@ D.6062,
 2267 0626 1A1C     		mov	r2, r3	@ standalone_ii.30, D.6062
 2268 0628 344B     		ldr	r3, .L187+32	@ tmp617,
 2269 062a 1A80     		strh	r2, [r3]	@ tmp618, standalone_ii
 698:.\src/standalone.c **** 					Update_TIM3_CH1 (standalone_ii);
 2270              		.loc 1 698 0
 2271 062c 334B     		ldr	r3, .L187+32	@ tmp619,
 2272 062e 1B88     		ldrh	r3, [r3]	@ standalone_ii.31, standalone_ii
 2273 0630 181C     		mov	r0, r3	@, standalone_ii.31
 2274 0632 FFF7FEFF 		bl	Update_TIM3_CH1	@
 699:.\src/standalone.c **** 					standalone_dimming_last_slope = DIM_UP;
 2275              		.loc 1 699 0
 2276 0636 324B     		ldr	r3, .L187+36	@ tmp620,
 2277 0638 0022     		mov	r2, #0	@ tmp621,
 2278 063a 1A70     		strb	r2, [r3]	@ tmp622, standalone_dimming_last_slope
 2279              	.L165:
 700:.\src/standalone.c **** 				}
 701:.\src/standalone.c **** 
 702:.\src/standalone.c **** 				standalone_menu_state = STAND_ALONE_MENU_MIN_DIMMING;
 2280              		.loc 1 702 0
 2281 063c 2B4B     		ldr	r3, .L187+16	@ tmp623,
 2282 063e 0422     		mov	r2, #4	@ tmp624,
 2283 0640 1A70     		strb	r2, [r3]	@ tmp625, standalone_menu_state
 703:.\src/standalone.c **** 				resp = RESP_SELECTED;
 2284              		.loc 1 703 0
 2285 0642 6B46     		mov	r3, sp	@ tmp626,
 2286 0644 0F33     		add	r3, r3, #15	@ tmp626,
 2287 0646 0122     		mov	r2, #1	@ tmp627,
 2288 0648 1A70     		strb	r2, [r3]	@ tmp628, resp
 704:.\src/standalone.c **** 			}
 705:.\src/standalone.c **** 			break;
 2289              		.loc 1 705 0
 2290 064a BEE0     		b	.L182	@
 2291              	.L119:
 706:.\src/standalone.c **** 
 707:.\src/standalone.c **** 		case STAND_ALONE_MENU_RAMP_ON_START_SELECTED:
 708:.\src/standalone.c **** 			//ajusto el timer
 709:.\src/standalone.c **** 			dummy = StandAloneStruct_local.power_up_timer_value / 1000;
 2292              		.loc 1 709 0
 2293 064c 264B     		ldr	r3, .L187+12	@ tmp629,
 2294 064e 1B89     		ldrh	r3, [r3, #8]	@ D.6065,
 2295 0650 181C     		mov	r0, r3	@, D.6065
 2296 0652 FA23     		mov	r3, #250	@ tmp711,
 2297 0654 9900     		lsl	r1, r3, #2	@, tmp711,
 2298 0656 FFF7FEFF 		bl	__aeabi_uidiv	@
 2299 065a 031C     		mov	r3, r0	@ tmp633,
 2300 065c 9BB2     		uxth	r3, r3	@ D.6066, tmp633
 2301 065e DAB2     		uxtb	r2, r3	@ dummy.32, D.6066
 2302 0660 6B46     		mov	r3, sp	@ tmp634,
 2303 0662 0933     		add	r3, r3, #9	@ tmp634,
 2304 0664 1A70     		strb	r2, [r3]	@ tmp635, dummy
 710:.\src/standalone.c **** 			resp_down = FuncChangeSecs (&dummy);
ARM GAS  C:\Users\Mariano\AppData\Local\Temp\cco1kxoW.s 			page 56


 2305              		.loc 1 710 0
 2306 0666 6C46     		mov	r4, sp	@ tmp636,
 2307 0668 0E34     		add	r4, r4, #14	@ tmp636,
 2308 066a 6B46     		mov	r3, sp	@ tmp637,
 2309 066c 0933     		add	r3, r3, #9	@ tmp637,
 2310 066e 181C     		mov	r0, r3	@, tmp637
 2311 0670 0121     		mov	r1, #1	@,
 2312 0672 0022     		mov	r2, #0	@,
 2313 0674 0A23     		mov	r3, #10	@,
 2314 0676 FFF7FEFF 		bl	FuncChange	@
 2315 067a 031C     		mov	r3, r0	@ tmp638,
 2316 067c 2370     		strb	r3, [r4]	@ tmp640, resp_down
 711:.\src/standalone.c **** 
 712:.\src/standalone.c **** 			if (resp_down == RESP_FINISH)
 2317              		.loc 1 712 0
 2318 067e 6B46     		mov	r3, sp	@ tmp641,
 2319 0680 0E33     		add	r3, r3, #14	@ tmp641,
 2320 0682 1B78     		ldrb	r3, [r3]	@ tmp642, resp_down
 2321 0684 0A2B     		cmp	r3, #10	@ tmp642,
 2322 0686 12D1     		bne	.L166	@,
 713:.\src/standalone.c **** 			{
 714:.\src/standalone.c **** 				StandAloneStruct_local.power_up_timer_value = dummy * 1000;
 2323              		.loc 1 714 0
 2324 0688 6B46     		mov	r3, sp	@ tmp643,
 2325 068a 0933     		add	r3, r3, #9	@ tmp643,
 2326 068c 1B78     		ldrb	r3, [r3]	@ dummy.33, dummy
 2327 068e FA22     		mov	r2, #250	@ tmp710,
 2328 0690 9200     		lsl	r2, r2, #2	@ tmp645, tmp710,
 2329 0692 5343     		mul	r3, r2	@ tmp644, tmp645
 2330 0694 9AB2     		uxth	r2, r3	@ D.6072, tmp644
 2331 0696 144B     		ldr	r3, .L187+12	@ tmp646,
 2332 0698 1A81     		strh	r2, [r3, #8]	@ tmp647, StandAloneStruct_local.power_up_timer_value
 715:.\src/standalone.c **** 				standalone_menu_state = STAND_ALONE_MENU_RAMP_ON_START_SELECTED_1;
 2333              		.loc 1 715 0
 2334 069a 144B     		ldr	r3, .L187+16	@ tmp648,
 2335 069c 1822     		mov	r2, #24	@ tmp649,
 2336 069e 1A70     		strb	r2, [r3]	@ tmp650, standalone_menu_state
 716:.\src/standalone.c **** 				LCD_1ER_RENGLON;
 2337              		.loc 1 716 0
 2338 06a0 0020     		mov	r0, #0	@,
 2339 06a2 FFF7FEFF 		bl	Lcd_SetDDRAM	@
 717:.\src/standalone.c **** 				LCDTransmitStr((const char *) "wait to free    ");
 2340              		.loc 1 717 0
 2341 06a6 124B     		ldr	r3, .L187+20	@ tmp651,
 2342 06a8 181C     		mov	r0, r3	@, tmp651
 2343 06aa FFF7FEFF 		bl	LCDTransmitStr	@
 2344              	.L166:
 718:.\src/standalone.c **** 			}
 719:.\src/standalone.c **** 
 720:.\src/standalone.c **** 			resp = RESP_WORKING;
 2345              		.loc 1 720 0
 2346 06ae 6B46     		mov	r3, sp	@ tmp652,
 2347 06b0 0F33     		add	r3, r3, #15	@ tmp652,
 2348 06b2 0422     		mov	r2, #4	@ tmp653,
 2349 06b4 1A70     		strb	r2, [r3]	@ tmp654, resp
 721:.\src/standalone.c **** 			break;
 2350              		.loc 1 721 0
ARM GAS  C:\Users\Mariano\AppData\Local\Temp\cco1kxoW.s 			page 57


 2351 06b6 8DE0     		b	.L125	@
 2352              	.L120:
 722:.\src/standalone.c **** 
 723:.\src/standalone.c **** 		case STAND_ALONE_MENU_RAMP_ON_START_SELECTED_1:
 724:.\src/standalone.c **** 			resp = RESP_WORKING;
 2353              		.loc 1 724 0
 2354 06b8 6B46     		mov	r3, sp	@ tmp655,
 2355 06ba 0F33     		add	r3, r3, #15	@ tmp655,
 2356 06bc 0422     		mov	r2, #4	@ tmp656,
 2357 06be 1A70     		strb	r2, [r3]	@ tmp657, resp
 725:.\src/standalone.c **** 			if (CheckS2() == S_NO)
 2358              		.loc 1 725 0
 2359 06c0 FFF7FEFF 		bl	CheckS2	@
 2360 06c4 031C     		mov	r3, r0	@ tmp658,
 2361 06c6 002B     		cmp	r3, #0	@ D.6073,
 2362 06c8 00D0     		beq	.LCB1921	@
 2363 06ca 80E0     		b	.L183	@long jump	@
 2364              	.LCB1921:
 726:.\src/standalone.c **** 			{
 727:.\src/standalone.c **** 				standalone_menu_state = STAND_ALONE_MENU_RAMP_ON_START;
 2365              		.loc 1 727 0
 2366 06cc 074B     		ldr	r3, .L187+16	@ tmp660,
 2367 06ce 0522     		mov	r2, #5	@ tmp661,
 2368 06d0 1A70     		strb	r2, [r3]	@ tmp662, standalone_menu_state
 728:.\src/standalone.c **** 				resp = RESP_SELECTED;
 2369              		.loc 1 728 0
 2370 06d2 6B46     		mov	r3, sp	@ tmp663,
 2371 06d4 0F33     		add	r3, r3, #15	@ tmp663,
 2372 06d6 0122     		mov	r2, #1	@ tmp664,
 2373 06d8 1A70     		strb	r2, [r3]	@ tmp665, resp
 729:.\src/standalone.c **** 			}
 730:.\src/standalone.c **** 			break;
 2374              		.loc 1 730 0
 2375 06da 78E0     		b	.L183	@
 2376              	.L188:
 2377              		.align	2
 2378              	.L187:
 2379 06dc 34010000 		.word	.LC47
 2380 06e0 00000000 		.word	s_blank_line
 2381 06e4 00000000 		.word	s_sel
 2382 06e8 00000000 		.word	StandAloneStruct_local
 2383 06ec 00000000 		.word	standalone_menu_state
 2384 06f0 74000000 		.word	.LC23
 2385 06f4 02000000 		.word	StandAloneStruct_local+2
 2386 06f8 03000000 		.word	StandAloneStruct_local+3
 2387 06fc 00000000 		.word	standalone_ii
 2388 0700 00000000 		.word	standalone_dimming_last_slope
 2389 0704 05000000 		.word	StandAloneStruct_local+5
 2390              	.L121:
 731:.\src/standalone.c **** 
 732:.\src/standalone.c **** 		case STAND_ALONE_MENU_RAMP_ON_DIMMING_SELECTED:
 733:.\src/standalone.c **** 			//ajusto el timer
 734:.\src/standalone.c **** 			dummy = StandAloneStruct_local.dimming_up_timer_value / 1000;
 2391              		.loc 1 734 0
 2392 0708 354B     		ldr	r3, .L189	@ tmp666,
 2393 070a 5B89     		ldrh	r3, [r3, #10]	@ D.6076,
 2394 070c 181C     		mov	r0, r3	@, D.6076
ARM GAS  C:\Users\Mariano\AppData\Local\Temp\cco1kxoW.s 			page 58


 2395 070e FA23     		mov	r3, #250	@ tmp709,
 2396 0710 9900     		lsl	r1, r3, #2	@, tmp709,
 2397 0712 FFF7FEFF 		bl	__aeabi_uidiv	@
 2398 0716 031C     		mov	r3, r0	@ tmp670,
 2399 0718 9BB2     		uxth	r3, r3	@ D.6077, tmp670
 2400 071a DAB2     		uxtb	r2, r3	@ dummy.34, D.6077
 2401 071c 6B46     		mov	r3, sp	@ tmp671,
 2402 071e 0933     		add	r3, r3, #9	@ tmp671,
 2403 0720 1A70     		strb	r2, [r3]	@ tmp672, dummy
 735:.\src/standalone.c **** 			resp_down = FuncChangeSecs (&dummy);
 2404              		.loc 1 735 0
 2405 0722 6C46     		mov	r4, sp	@ tmp673,
 2406 0724 0E34     		add	r4, r4, #14	@ tmp673,
 2407 0726 6B46     		mov	r3, sp	@ tmp674,
 2408 0728 0933     		add	r3, r3, #9	@ tmp674,
 2409 072a 181C     		mov	r0, r3	@, tmp674
 2410 072c 0121     		mov	r1, #1	@,
 2411 072e 0022     		mov	r2, #0	@,
 2412 0730 0A23     		mov	r3, #10	@,
 2413 0732 FFF7FEFF 		bl	FuncChange	@
 2414 0736 031C     		mov	r3, r0	@ tmp675,
 2415 0738 2370     		strb	r3, [r4]	@ tmp677, resp_down
 736:.\src/standalone.c **** 
 737:.\src/standalone.c **** 			if (resp_down == RESP_FINISH)
 2416              		.loc 1 737 0
 2417 073a 6B46     		mov	r3, sp	@ tmp678,
 2418 073c 0E33     		add	r3, r3, #14	@ tmp678,
 2419 073e 1B78     		ldrb	r3, [r3]	@ tmp679, resp_down
 2420 0740 0A2B     		cmp	r3, #10	@ tmp679,
 2421 0742 12D1     		bne	.L168	@,
 738:.\src/standalone.c **** 			{
 739:.\src/standalone.c **** 				StandAloneStruct_local.dimming_up_timer_value = dummy * 1000;
 2422              		.loc 1 739 0
 2423 0744 6B46     		mov	r3, sp	@ tmp680,
 2424 0746 0933     		add	r3, r3, #9	@ tmp680,
 2425 0748 1B78     		ldrb	r3, [r3]	@ dummy.35, dummy
 2426 074a FA22     		mov	r2, #250	@ tmp708,
 2427 074c 9200     		lsl	r2, r2, #2	@ tmp682, tmp708,
 2428 074e 5343     		mul	r3, r2	@ tmp681, tmp682
 2429 0750 9AB2     		uxth	r2, r3	@ D.6083, tmp681
 2430 0752 234B     		ldr	r3, .L189	@ tmp683,
 2431 0754 5A81     		strh	r2, [r3, #10]	@ tmp684, StandAloneStruct_local.dimming_up_timer_value
 740:.\src/standalone.c **** 				standalone_menu_state = STAND_ALONE_MENU_RAMP_ON_DIMMING_SELECTED_1;
 2432              		.loc 1 740 0
 2433 0756 234B     		ldr	r3, .L189+4	@ tmp685,
 2434 0758 1A22     		mov	r2, #26	@ tmp686,
 2435 075a 1A70     		strb	r2, [r3]	@ tmp687, standalone_menu_state
 741:.\src/standalone.c **** 				LCD_1ER_RENGLON;
 2436              		.loc 1 741 0
 2437 075c 0020     		mov	r0, #0	@,
 2438 075e FFF7FEFF 		bl	Lcd_SetDDRAM	@
 742:.\src/standalone.c **** 				LCDTransmitStr((const char *) "wait to free    ");
 2439              		.loc 1 742 0
 2440 0762 214B     		ldr	r3, .L189+8	@ tmp688,
 2441 0764 181C     		mov	r0, r3	@, tmp688
 2442 0766 FFF7FEFF 		bl	LCDTransmitStr	@
 2443              	.L168:
ARM GAS  C:\Users\Mariano\AppData\Local\Temp\cco1kxoW.s 			page 59


 743:.\src/standalone.c **** 			}
 744:.\src/standalone.c **** 
 745:.\src/standalone.c **** 			resp = RESP_WORKING;
 2444              		.loc 1 745 0
 2445 076a 6B46     		mov	r3, sp	@ tmp689,
 2446 076c 0F33     		add	r3, r3, #15	@ tmp689,
 2447 076e 0422     		mov	r2, #4	@ tmp690,
 2448 0770 1A70     		strb	r2, [r3]	@ tmp691, resp
 746:.\src/standalone.c **** 			break;
 2449              		.loc 1 746 0
 2450 0772 2FE0     		b	.L125	@
 2451              	.L122:
 747:.\src/standalone.c **** 
 748:.\src/standalone.c **** 		case STAND_ALONE_MENU_RAMP_ON_DIMMING_SELECTED_1:
 749:.\src/standalone.c **** 			resp = RESP_WORKING;
 2452              		.loc 1 749 0
 2453 0774 6B46     		mov	r3, sp	@ tmp692,
 2454 0776 0F33     		add	r3, r3, #15	@ tmp692,
 2455 0778 0422     		mov	r2, #4	@ tmp693,
 2456 077a 1A70     		strb	r2, [r3]	@ tmp694, resp
 750:.\src/standalone.c **** 			if (CheckS2() == S_NO)
 2457              		.loc 1 750 0
 2458 077c FFF7FEFF 		bl	CheckS2	@
 2459 0780 031C     		mov	r3, r0	@ tmp695,
 2460 0782 002B     		cmp	r3, #0	@ D.6084,
 2461 0784 25D1     		bne	.L184	@,
 751:.\src/standalone.c **** 			{
 752:.\src/standalone.c **** 				standalone_menu_state = STAND_ALONE_MENU_RAMP_ON_DIMMING;
 2462              		.loc 1 752 0
 2463 0786 174B     		ldr	r3, .L189+4	@ tmp697,
 2464 0788 0622     		mov	r2, #6	@ tmp698,
 2465 078a 1A70     		strb	r2, [r3]	@ tmp699, standalone_menu_state
 753:.\src/standalone.c **** 				resp = RESP_SELECTED;
 2466              		.loc 1 753 0
 2467 078c 6B46     		mov	r3, sp	@ tmp700,
 2468 078e 0F33     		add	r3, r3, #15	@ tmp700,
 2469 0790 0122     		mov	r2, #1	@ tmp701,
 2470 0792 1A70     		strb	r2, [r3]	@ tmp702, resp
 754:.\src/standalone.c **** 			}
 755:.\src/standalone.c **** 			break;
 2471              		.loc 1 755 0
 2472 0794 1DE0     		b	.L184	@
 2473              	.L98:
 756:.\src/standalone.c **** 
 757:.\src/standalone.c **** 		default:
 758:.\src/standalone.c **** 			standalone_menu_state = STAND_ALONE_MENU_INIT;
 2474              		.loc 1 758 0
 2475 0796 134B     		ldr	r3, .L189+4	@ tmp703,
 2476 0798 0022     		mov	r2, #0	@ tmp704,
 2477 079a 1A70     		strb	r2, [r3]	@ tmp705, standalone_menu_state
 759:.\src/standalone.c **** 			break;
 2478              		.loc 1 759 0
 2479 079c 1AE0     		b	.L125	@
 2480              	.L171:
 427:.\src/standalone.c **** 			break;
 2481              		.loc 1 427 0
 2482 079e C046     		mov	r8, r8
ARM GAS  C:\Users\Mariano\AppData\Local\Temp\cco1kxoW.s 			page 60


 2483 07a0 18E0     		b	.L125	@
 2484              	.L172:
 441:.\src/standalone.c **** 			break;
 2485              		.loc 1 441 0
 2486 07a2 C046     		mov	r8, r8
 2487 07a4 16E0     		b	.L125	@
 2488              	.L173:
 456:.\src/standalone.c **** 			break;
 2489              		.loc 1 456 0
 2490 07a6 C046     		mov	r8, r8
 2491 07a8 14E0     		b	.L125	@
 2492              	.L174:
 470:.\src/standalone.c **** 			break;
 2493              		.loc 1 470 0
 2494 07aa C046     		mov	r8, r8
 2495 07ac 12E0     		b	.L125	@
 2496              	.L175:
 484:.\src/standalone.c **** 			break;
 2497              		.loc 1 484 0
 2498 07ae C046     		mov	r8, r8
 2499 07b0 10E0     		b	.L125	@
 2500              	.L176:
 498:.\src/standalone.c **** 			break;
 2501              		.loc 1 498 0
 2502 07b2 C046     		mov	r8, r8
 2503 07b4 0EE0     		b	.L125	@
 2504              	.L177:
 512:.\src/standalone.c **** 			break;
 2505              		.loc 1 512 0
 2506 07b6 C046     		mov	r8, r8
 2507 07b8 0CE0     		b	.L125	@
 2508              	.L178:
 554:.\src/standalone.c **** 			break;
 2509              		.loc 1 554 0
 2510 07ba C046     		mov	r8, r8
 2511 07bc 0AE0     		b	.L125	@
 2512              	.L179:
 603:.\src/standalone.c **** 			break;
 2513              		.loc 1 603 0
 2514 07be C046     		mov	r8, r8
 2515 07c0 08E0     		b	.L125	@
 2516              	.L180:
 636:.\src/standalone.c **** 			break;
 2517              		.loc 1 636 0
 2518 07c2 C046     		mov	r8, r8
 2519 07c4 06E0     		b	.L125	@
 2520              	.L181:
 670:.\src/standalone.c **** 			break;
 2521              		.loc 1 670 0
 2522 07c6 C046     		mov	r8, r8
 2523 07c8 04E0     		b	.L125	@
 2524              	.L182:
 705:.\src/standalone.c **** 			break;
 2525              		.loc 1 705 0
 2526 07ca C046     		mov	r8, r8
 2527 07cc 02E0     		b	.L125	@
 2528              	.L183:
ARM GAS  C:\Users\Mariano\AppData\Local\Temp\cco1kxoW.s 			page 61


 730:.\src/standalone.c **** 			break;
 2529              		.loc 1 730 0
 2530 07ce C046     		mov	r8, r8
 2531 07d0 00E0     		b	.L125	@
 2532              	.L184:
 755:.\src/standalone.c **** 			break;
 2533              		.loc 1 755 0
 2534 07d2 C046     		mov	r8, r8
 2535              	.L125:
 760:.\src/standalone.c **** 	}
 761:.\src/standalone.c **** 	return resp;
 2536              		.loc 1 761 0
 2537 07d4 6B46     		mov	r3, sp	@ tmp706,
 2538 07d6 0F33     		add	r3, r3, #15	@ tmp706,
 2539 07d8 1B78     		ldrb	r3, [r3]	@ D.6087, resp
 762:.\src/standalone.c **** }
 2540              		.loc 1 762 0
 2541 07da 181C     		mov	r0, r3	@, <retval>
 2542 07dc 04B0     		add	sp, sp, #16	@,,
 2543              		@ sp needed for prologue	@
 2544 07de 10BD     		pop	{r4, pc}
 2545              	.L190:
 2546              		.align	2
 2547              	.L189:
 2548 07e0 00000000 		.word	StandAloneStruct_local
 2549 07e4 00000000 		.word	standalone_menu_state
 2550 07e8 74000000 		.word	.LC23
 2551              		.cfi_endproc
 2552              	.LFE21:
 2553              		.size	MenuStandAlone, .-MenuStandAlone
 2554              		.section	.rodata
 2555 0145 000000   		.align	2
 2556              	.LC59:
 2557 0148 5374616E 		.ascii	"StandAlone Conf.\000"
 2557      64416C6F 
 2557      6E652043 
 2557      6F6E662E 
 2557      00
 2558 0159 000000   		.align	2
 2559              	.LC62:
 2560 015c 4D6F7620 		.ascii	"Mov Sens Enabled\000"
 2560      53656E73 
 2560      20456E61 
 2560      626C6564 
 2560      00
 2561 016d 000000   		.align	2
 2562              	.LC64:
 2563 0170 4D6F7620 		.ascii	"Mov Sen Disabled\000"
 2563      53656E20 
 2563      44697361 
 2563      626C6564 
 2563      00
 2564 0181 000000   		.align	2
 2565              	.LC66:
 2566 0184 48617276 		.ascii	"Harv. On at %3d\000"
 2566      2E204F6E 
 2566      20617420 
ARM GAS  C:\Users\Mariano\AppData\Local\Temp\cco1kxoW.s 			page 62


 2566      25336400 
 2567              		.align	2
 2568              	.LC68:
 2569 0194 2500     		.ascii	"%\000"
 2570 0196 0000     		.align	2
 2571              	.LC70:
 2572 0198 456E6572 		.ascii	"Energy Harv. OFF\000"
 2572      67792048 
 2572      6172762E 
 2572      204F4646 
 2572      00
 2573 01a9 000000   		.align	2
 2574              	.LC72:
 2575 01ac 4D617820 		.ascii	"Max Dimm at %3d\000"
 2575      44696D6D 
 2575      20617420 
 2575      25336400 
 2576              		.align	2
 2577              	.LC74:
 2578 01bc 4D696E20 		.ascii	"Min Dimm at %3d\000"
 2578      44696D6D 
 2578      20617420 
 2578      25336400 
 2579              		.align	2
 2580              	.LC76:
 2581 01cc 52616D70 		.ascii	"Ramp ON Start %2d\000"
 2581      204F4E20 
 2581      53746172 
 2581      74202532 
 2581      6400
 2582 01de 0000     		.align	2
 2583              	.LC78:
 2584 01e0 7300     		.ascii	"s\000"
 2585 01e2 0000     		.align	2
 2586              	.LC80:
 2587 01e4 52616D70 		.ascii	"Ramp Dimming %2d\000"
 2587      2044696D 
 2587      6D696E67 
 2587      20253264 
 2587      00
 2588 01f5 000000   		.section	.text.ShowConfStandAlone,"ax",%progbits
 2589              		.align	2
 2590              		.global	ShowConfStandAlone
 2591              		.code	16
 2592              		.thumb_func
 2593              		.type	ShowConfStandAlone, %function
 2594              	ShowConfStandAlone:
 2595              	.LFB22:
 763:.\src/standalone.c **** 
 764:.\src/standalone.c **** 
 765:.\src/standalone.c **** unsigned char ShowConfStandAlone(void)
 766:.\src/standalone.c **** {
 2596              		.loc 1 766 0
 2597              		.cfi_startproc
 2598 0000 10B5     		push	{r4, lr}	@
 2599              	.LCFI4:
 2600              		.cfi_def_cfa_offset 8
ARM GAS  C:\Users\Mariano\AppData\Local\Temp\cco1kxoW.s 			page 63


 2601              		.cfi_offset 4, -8
 2602              		.cfi_offset 14, -4
 2603 0002 86B0     		sub	sp, sp, #24	@,,
 2604              	.LCFI5:
 2605              		.cfi_def_cfa_offset 32
 767:.\src/standalone.c **** 	unsigned char resp = RESP_CONTINUE;
 2606              		.loc 1 767 0
 2607 0004 6B46     		mov	r3, sp	@ tmp174,
 2608 0006 1733     		add	r3, r3, #23	@ tmp174,
 2609 0008 0022     		mov	r2, #0	@ tmp175,
 2610 000a 1A70     		strb	r2, [r3]	@ tmp176, resp
 768:.\src/standalone.c **** 	unsigned char resp_down = RESP_CONTINUE;
 2611              		.loc 1 768 0
 2612 000c 6B46     		mov	r3, sp	@ tmp177,
 2613 000e 1633     		add	r3, r3, #22	@ tmp177,
 2614 0010 0022     		mov	r2, #0	@ tmp178,
 2615 0012 1A70     		strb	r2, [r3]	@ tmp179, resp_down
 769:.\src/standalone.c **** 	char s_current [20];	//usar s_conf[]
 770:.\src/standalone.c **** 
 771:.\src/standalone.c **** 	switch (standalone_show_conf)
 2616              		.loc 1 771 0
 2617 0014 B84B     		ldr	r3, .L219	@ tmp180,
 2618 0016 1B78     		ldrb	r3, [r3]	@ standalone_show_conf.0, standalone_show_conf
 2619 0018 062B     		cmp	r3, #6	@ D.5880,
 2620 001a 00D9     		bls	.LCB2142	@
 2621 001c 52E1     		b	.L192	@long jump	@
 2622              	.LCB2142:
 2623 001e 9A00     		lsl	r2, r3, #2	@ tmp181, D.5880,
 2624 0020 B64B     		ldr	r3, .L219+4	@ tmp183,
 2625 0022 D318     		add	r3, r2, r3	@ tmp182, tmp181, tmp183
 2626 0024 1B68     		ldr	r3, [r3]	@ tmp184,
 2627 0026 9F46     		mov	pc, r3	@ tmp184
 2628              		.section	.rodata.ShowConfStandAlone,"a",%progbits
 2629              		.align	2
 2630              	.L200:
 2631 0000 28000000 		.word	.L193
 2632 0004 44000000 		.word	.L194
 2633 0008 88000000 		.word	.L195
 2634 000c 0A010000 		.word	.L196
 2635 0010 72010000 		.word	.L197
 2636 0014 DA010000 		.word	.L198
 2637 0018 4E020000 		.word	.L199
 2638              		.section	.text.ShowConfStandAlone
 2639              	.L193:
 772:.\src/standalone.c **** 	{
 773:.\src/standalone.c **** 		case STAND_ALONE_SHOW_CONF_0:
 774:.\src/standalone.c **** 			LCD_1ER_RENGLON;
 2640              		.loc 1 774 0
 2641 0028 0020     		mov	r0, #0	@,
 2642 002a FFF7FEFF 		bl	Lcd_SetDDRAM	@
 775:.\src/standalone.c **** 			LCDTransmitStr((const char *) "StandAlone Conf.");
 2643              		.loc 1 775 0
 2644 002e B44B     		ldr	r3, .L219+8	@ tmp185,
 2645 0030 181C     		mov	r0, r3	@, tmp185
 2646 0032 FFF7FEFF 		bl	LCDTransmitStr	@
 776:.\src/standalone.c **** 			standalone_show_conf++;
 2647              		.loc 1 776 0
ARM GAS  C:\Users\Mariano\AppData\Local\Temp\cco1kxoW.s 			page 64


 2648 0036 B04B     		ldr	r3, .L219	@ tmp186,
 2649 0038 1B78     		ldrb	r3, [r3]	@ standalone_show_conf.1, standalone_show_conf
 2650 003a 0133     		add	r3, r3, #1	@ tmp187,
 2651 003c DAB2     		uxtb	r2, r3	@ standalone_show_conf.2, tmp187
 2652 003e AE4B     		ldr	r3, .L219	@ tmp188,
 2653 0040 1A70     		strb	r2, [r3]	@ tmp189, standalone_show_conf
 777:.\src/standalone.c **** 			break;
 2654              		.loc 1 777 0
 2655 0042 52E1     		b	.L201	@
 2656              	.L194:
 778:.\src/standalone.c **** 
 779:.\src/standalone.c **** 		case STAND_ALONE_SHOW_CONF_1:
 780:.\src/standalone.c **** 			if (StandAloneStruct_local.move_sensor_enable)
 2657              		.loc 1 780 0
 2658 0044 AF4B     		ldr	r3, .L219+12	@ tmp190,
 2659 0046 1B78     		ldrb	r3, [r3]	@ D.5883,
 2660 0048 002B     		cmp	r3, #0	@ D.5883,
 2661 004a 08D0     		beq	.L202	@,
 781:.\src/standalone.c **** 			{
 782:.\src/standalone.c **** 				resp_down = FuncScroll2((const char *)"Mov Sens Enabled");
 2662              		.loc 1 782 0
 2663 004c 6C46     		mov	r4, sp	@ tmp191,
 2664 004e 1634     		add	r4, r4, #22	@ tmp191,
 2665 0050 AD4B     		ldr	r3, .L219+16	@ tmp192,
 2666 0052 181C     		mov	r0, r3	@, tmp192
 2667 0054 FFF7FEFF 		bl	FuncScroll2	@
 2668 0058 031C     		mov	r3, r0	@ tmp193,
 2669 005a 2370     		strb	r3, [r4]	@ tmp195, resp_down
 2670 005c 07E0     		b	.L203	@
 2671              	.L202:
 783:.\src/standalone.c **** 			}
 784:.\src/standalone.c **** 			else
 785:.\src/standalone.c **** 				resp_down = FuncScroll2((const char *)"Mov Sen Disabled");
 2672              		.loc 1 785 0
 2673 005e 6C46     		mov	r4, sp	@ tmp196,
 2674 0060 1634     		add	r4, r4, #22	@ tmp196,
 2675 0062 AA4B     		ldr	r3, .L219+20	@ tmp197,
 2676 0064 181C     		mov	r0, r3	@, tmp197
 2677 0066 FFF7FEFF 		bl	FuncScroll2	@
 2678 006a 031C     		mov	r3, r0	@ tmp198,
 2679 006c 2370     		strb	r3, [r4]	@ tmp200, resp_down
 2680              	.L203:
 786:.\src/standalone.c **** 
 787:.\src/standalone.c **** 			if (resp_down == RESP_FINISH)
 2681              		.loc 1 787 0
 2682 006e 6B46     		mov	r3, sp	@ tmp201,
 2683 0070 1633     		add	r3, r3, #22	@ tmp201,
 2684 0072 1B78     		ldrb	r3, [r3]	@ tmp202, resp_down
 2685 0074 0A2B     		cmp	r3, #10	@ tmp202,
 2686 0076 00D0     		beq	.LCB2197	@
 2687 0078 2CE1     		b	.L213	@long jump	@
 2688              	.LCB2197:
 788:.\src/standalone.c **** 				standalone_show_conf++;
 2689              		.loc 1 788 0
 2690 007a 9F4B     		ldr	r3, .L219	@ tmp203,
 2691 007c 1B78     		ldrb	r3, [r3]	@ standalone_show_conf.3, standalone_show_conf
 2692 007e 0133     		add	r3, r3, #1	@ tmp204,
ARM GAS  C:\Users\Mariano\AppData\Local\Temp\cco1kxoW.s 			page 65


 2693 0080 DAB2     		uxtb	r2, r3	@ standalone_show_conf.4, tmp204
 2694 0082 9D4B     		ldr	r3, .L219	@ tmp205,
 2695 0084 1A70     		strb	r2, [r3]	@ tmp206, standalone_show_conf
 789:.\src/standalone.c **** 
 790:.\src/standalone.c **** 			break;
 2696              		.loc 1 790 0
 2697 0086 25E1     		b	.L213	@
 2698              	.L195:
 791:.\src/standalone.c **** 
 792:.\src/standalone.c **** 		case STAND_ALONE_SHOW_CONF_2:
 793:.\src/standalone.c **** 			if (StandAloneStruct_local.ldr_enable)
 2699              		.loc 1 793 0
 2700 0088 9E4B     		ldr	r3, .L219+12	@ tmp207,
 2701 008a 5B78     		ldrb	r3, [r3, #1]	@ D.5891,
 2702 008c 002B     		cmp	r3, #0	@ D.5891,
 2703 008e 27D0     		beq	.L205	@,
 794:.\src/standalone.c **** 			{
 795:.\src/standalone.c **** 				memset(s_current, ' ', sizeof(s_current));
 2704              		.loc 1 795 0
 2705 0090 6B46     		mov	r3, sp	@ tmp208,
 2706 0092 181C     		mov	r0, r3	@, tmp208
 2707 0094 2021     		mov	r1, #32	@,
 2708 0096 1422     		mov	r2, #20	@,
 2709 0098 FFF7FEFF 		bl	memset	@
 796:.\src/standalone.c **** 				sprintf(s_current, "Harv. On at %3d", StandAloneStruct_local.ldr_value);
 2710              		.loc 1 796 0
 2711 009c 994B     		ldr	r3, .L219+12	@ tmp209,
 2712 009e 9B78     		ldrb	r3, [r3, #2]	@ D.5894,
 2713 00a0 6946     		mov	r1, sp	@ tmp210,
 2714 00a2 9B4A     		ldr	r2, .L219+24	@ tmp211,
 2715 00a4 081C     		mov	r0, r1	@, tmp210
 2716 00a6 111C     		mov	r1, r2	@, tmp211
 2717 00a8 1A1C     		mov	r2, r3	@, D.5895
 2718 00aa FFF7FEFF 		bl	sprintf	@
 797:.\src/standalone.c **** 				strcat(s_current, (const char*)"%");
 2719              		.loc 1 797 0
 2720 00ae 6B46     		mov	r3, sp	@ tmp212,
 2721 00b0 181C     		mov	r0, r3	@, tmp212
 2722 00b2 FFF7FEFF 		bl	strlen	@
 2723 00b6 031C     		mov	r3, r0	@ tmp213,
 2724 00b8 6A46     		mov	r2, sp	@ tmp215,
 2725 00ba D218     		add	r2, r2, r3	@ D.5897, tmp215, D.5896
 2726 00bc 954B     		ldr	r3, .L219+28	@ tmp216,
 2727 00be 111C     		mov	r1, r2	@ tmp217, D.5897
 2728 00c0 1A1C     		mov	r2, r3	@ tmp218, tmp216
 2729 00c2 0223     		mov	r3, #2	@ tmp219,
 2730 00c4 081C     		mov	r0, r1	@, tmp217
 2731 00c6 111C     		mov	r1, r2	@, tmp218
 2732 00c8 1A1C     		mov	r2, r3	@, tmp219
 2733 00ca FFF7FEFF 		bl	memcpy	@
 798:.\src/standalone.c **** 				resp_down = FuncScroll2((const char *) s_current);
 2734              		.loc 1 798 0
 2735 00ce 6C46     		mov	r4, sp	@ tmp222,
 2736 00d0 1634     		add	r4, r4, #22	@ tmp222,
 2737 00d2 6B46     		mov	r3, sp	@ tmp223,
 2738 00d4 181C     		mov	r0, r3	@, tmp223
 2739 00d6 FFF7FEFF 		bl	FuncScroll2	@
ARM GAS  C:\Users\Mariano\AppData\Local\Temp\cco1kxoW.s 			page 66


 2740 00da 031C     		mov	r3, r0	@ tmp224,
 2741 00dc 2370     		strb	r3, [r4]	@ tmp226, resp_down
 2742 00de 07E0     		b	.L206	@
 2743              	.L205:
 799:.\src/standalone.c **** 			}
 800:.\src/standalone.c **** 			else
 801:.\src/standalone.c **** 				resp_down = FuncScroll2((const char *)"Energy Harv. OFF");
 2744              		.loc 1 801 0
 2745 00e0 6C46     		mov	r4, sp	@ tmp227,
 2746 00e2 1634     		add	r4, r4, #22	@ tmp227,
 2747 00e4 8C4B     		ldr	r3, .L219+32	@ tmp228,
 2748 00e6 181C     		mov	r0, r3	@, tmp228
 2749 00e8 FFF7FEFF 		bl	FuncScroll2	@
 2750 00ec 031C     		mov	r3, r0	@ tmp229,
 2751 00ee 2370     		strb	r3, [r4]	@ tmp231, resp_down
 2752              	.L206:
 802:.\src/standalone.c **** 
 803:.\src/standalone.c **** 			if (resp_down == RESP_FINISH)
 2753              		.loc 1 803 0
 2754 00f0 6B46     		mov	r3, sp	@ tmp232,
 2755 00f2 1633     		add	r3, r3, #22	@ tmp232,
 2756 00f4 1B78     		ldrb	r3, [r3]	@ tmp233, resp_down
 2757 00f6 0A2B     		cmp	r3, #10	@ tmp233,
 2758 00f8 00D0     		beq	.LCB2263	@
 2759 00fa EDE0     		b	.L214	@long jump	@
 2760              	.LCB2263:
 804:.\src/standalone.c **** 				standalone_show_conf++;
 2761              		.loc 1 804 0
 2762 00fc 7E4B     		ldr	r3, .L219	@ tmp234,
 2763 00fe 1B78     		ldrb	r3, [r3]	@ standalone_show_conf.5, standalone_show_conf
 2764 0100 0133     		add	r3, r3, #1	@ tmp235,
 2765 0102 DAB2     		uxtb	r2, r3	@ standalone_show_conf.6, tmp235
 2766 0104 7C4B     		ldr	r3, .L219	@ tmp236,
 2767 0106 1A70     		strb	r2, [r3]	@ tmp237, standalone_show_conf
 805:.\src/standalone.c **** 
 806:.\src/standalone.c **** 			break;
 2768              		.loc 1 806 0
 2769 0108 E6E0     		b	.L214	@
 2770              	.L196:
 807:.\src/standalone.c **** 
 808:.\src/standalone.c **** 		case STAND_ALONE_SHOW_CONF_3:
 809:.\src/standalone.c **** 			memset(s_current, ' ', sizeof(s_current));
 2771              		.loc 1 809 0
 2772 010a 6B46     		mov	r3, sp	@ tmp238,
 2773 010c 181C     		mov	r0, r3	@, tmp238
 2774 010e 2021     		mov	r1, #32	@,
 2775 0110 1422     		mov	r2, #20	@,
 2776 0112 FFF7FEFF 		bl	memset	@
 810:.\src/standalone.c **** 			sprintf(s_current, "Max Dimm at %3d", StandAloneStruct_local.max_dimmer_value_percent);
 2777              		.loc 1 810 0
 2778 0116 7B4B     		ldr	r3, .L219+12	@ tmp239,
 2779 0118 DB78     		ldrb	r3, [r3, #3]	@ D.5903,
 2780 011a 6946     		mov	r1, sp	@ tmp240,
 2781 011c 7F4A     		ldr	r2, .L219+36	@ tmp241,
 2782 011e 081C     		mov	r0, r1	@, tmp240
 2783 0120 111C     		mov	r1, r2	@, tmp241
 2784 0122 1A1C     		mov	r2, r3	@, D.5904
ARM GAS  C:\Users\Mariano\AppData\Local\Temp\cco1kxoW.s 			page 67


 2785 0124 FFF7FEFF 		bl	sprintf	@
 811:.\src/standalone.c **** 			strcat(s_current, (const char*)"%");
 2786              		.loc 1 811 0
 2787 0128 6B46     		mov	r3, sp	@ tmp242,
 2788 012a 181C     		mov	r0, r3	@, tmp242
 2789 012c FFF7FEFF 		bl	strlen	@
 2790 0130 031C     		mov	r3, r0	@ tmp243,
 2791 0132 6A46     		mov	r2, sp	@ tmp245,
 2792 0134 D218     		add	r2, r2, r3	@ D.5906, tmp245, D.5905
 2793 0136 774B     		ldr	r3, .L219+28	@ tmp246,
 2794 0138 111C     		mov	r1, r2	@ tmp247, D.5906
 2795 013a 1A1C     		mov	r2, r3	@ tmp248, tmp246
 2796 013c 0223     		mov	r3, #2	@ tmp249,
 2797 013e 081C     		mov	r0, r1	@, tmp247
 2798 0140 111C     		mov	r1, r2	@, tmp248
 2799 0142 1A1C     		mov	r2, r3	@, tmp249
 2800 0144 FFF7FEFF 		bl	memcpy	@
 812:.\src/standalone.c **** 			resp_down = FuncScroll2((const char *) s_current);
 2801              		.loc 1 812 0
 2802 0148 6C46     		mov	r4, sp	@ tmp252,
 2803 014a 1634     		add	r4, r4, #22	@ tmp252,
 2804 014c 6B46     		mov	r3, sp	@ tmp253,
 2805 014e 181C     		mov	r0, r3	@, tmp253
 2806 0150 FFF7FEFF 		bl	FuncScroll2	@
 2807 0154 031C     		mov	r3, r0	@ tmp254,
 2808 0156 2370     		strb	r3, [r4]	@ tmp256, resp_down
 813:.\src/standalone.c **** 
 814:.\src/standalone.c **** 			if (resp_down == RESP_FINISH)
 2809              		.loc 1 814 0
 2810 0158 6B46     		mov	r3, sp	@ tmp257,
 2811 015a 1633     		add	r3, r3, #22	@ tmp257,
 2812 015c 1B78     		ldrb	r3, [r3]	@ tmp258, resp_down
 2813 015e 0A2B     		cmp	r3, #10	@ tmp258,
 2814 0160 00D0     		beq	.LCB2312	@
 2815 0162 BBE0     		b	.L215	@long jump	@
 2816              	.LCB2312:
 815:.\src/standalone.c **** 				standalone_show_conf++;
 2817              		.loc 1 815 0
 2818 0164 644B     		ldr	r3, .L219	@ tmp259,
 2819 0166 1B78     		ldrb	r3, [r3]	@ standalone_show_conf.7, standalone_show_conf
 2820 0168 0133     		add	r3, r3, #1	@ tmp260,
 2821 016a DAB2     		uxtb	r2, r3	@ standalone_show_conf.8, tmp260
 2822 016c 624B     		ldr	r3, .L219	@ tmp261,
 2823 016e 1A70     		strb	r2, [r3]	@ tmp262, standalone_show_conf
 816:.\src/standalone.c **** 
 817:.\src/standalone.c **** 			break;
 2824              		.loc 1 817 0
 2825 0170 B4E0     		b	.L215	@
 2826              	.L197:
 818:.\src/standalone.c **** 
 819:.\src/standalone.c **** 		case STAND_ALONE_SHOW_CONF_4:
 820:.\src/standalone.c **** 			memset(s_current, ' ', sizeof(s_current));
 2827              		.loc 1 820 0
 2828 0172 6B46     		mov	r3, sp	@ tmp263,
 2829 0174 181C     		mov	r0, r3	@, tmp263
 2830 0176 2021     		mov	r1, #32	@,
 2831 0178 1422     		mov	r2, #20	@,
ARM GAS  C:\Users\Mariano\AppData\Local\Temp\cco1kxoW.s 			page 68


 2832 017a FFF7FEFF 		bl	memset	@
 821:.\src/standalone.c **** 			sprintf(s_current, "Min Dimm at %3d", StandAloneStruct_local.min_dimmer_value_percent);
 2833              		.loc 1 821 0
 2834 017e 614B     		ldr	r3, .L219+12	@ tmp264,
 2835 0180 5B79     		ldrb	r3, [r3, #5]	@ D.5911,
 2836 0182 6946     		mov	r1, sp	@ tmp265,
 2837 0184 664A     		ldr	r2, .L219+40	@ tmp266,
 2838 0186 081C     		mov	r0, r1	@, tmp265
 2839 0188 111C     		mov	r1, r2	@, tmp266
 2840 018a 1A1C     		mov	r2, r3	@, D.5912
 2841 018c FFF7FEFF 		bl	sprintf	@
 822:.\src/standalone.c **** 			strcat(s_current, (const char*)"%");
 2842              		.loc 1 822 0
 2843 0190 6B46     		mov	r3, sp	@ tmp267,
 2844 0192 181C     		mov	r0, r3	@, tmp267
 2845 0194 FFF7FEFF 		bl	strlen	@
 2846 0198 031C     		mov	r3, r0	@ tmp268,
 2847 019a 6A46     		mov	r2, sp	@ tmp270,
 2848 019c D218     		add	r2, r2, r3	@ D.5914, tmp270, D.5913
 2849 019e 5D4B     		ldr	r3, .L219+28	@ tmp271,
 2850 01a0 111C     		mov	r1, r2	@ tmp272, D.5914
 2851 01a2 1A1C     		mov	r2, r3	@ tmp273, tmp271
 2852 01a4 0223     		mov	r3, #2	@ tmp274,
 2853 01a6 081C     		mov	r0, r1	@, tmp272
 2854 01a8 111C     		mov	r1, r2	@, tmp273
 2855 01aa 1A1C     		mov	r2, r3	@, tmp274
 2856 01ac FFF7FEFF 		bl	memcpy	@
 823:.\src/standalone.c **** 			resp_down = FuncScroll2((const char *) s_current);
 2857              		.loc 1 823 0
 2858 01b0 6C46     		mov	r4, sp	@ tmp277,
 2859 01b2 1634     		add	r4, r4, #22	@ tmp277,
 2860 01b4 6B46     		mov	r3, sp	@ tmp278,
 2861 01b6 181C     		mov	r0, r3	@, tmp278
 2862 01b8 FFF7FEFF 		bl	FuncScroll2	@
 2863 01bc 031C     		mov	r3, r0	@ tmp279,
 2864 01be 2370     		strb	r3, [r4]	@ tmp281, resp_down
 824:.\src/standalone.c **** 
 825:.\src/standalone.c **** 			if (resp_down == RESP_FINISH)
 2865              		.loc 1 825 0
 2866 01c0 6B46     		mov	r3, sp	@ tmp282,
 2867 01c2 1633     		add	r3, r3, #22	@ tmp282,
 2868 01c4 1B78     		ldrb	r3, [r3]	@ tmp283, resp_down
 2869 01c6 0A2B     		cmp	r3, #10	@ tmp283,
 2870 01c8 00D0     		beq	.LCB2361	@
 2871 01ca 89E0     		b	.L216	@long jump	@
 2872              	.LCB2361:
 826:.\src/standalone.c **** 				standalone_show_conf++;
 2873              		.loc 1 826 0
 2874 01cc 4A4B     		ldr	r3, .L219	@ tmp284,
 2875 01ce 1B78     		ldrb	r3, [r3]	@ standalone_show_conf.9, standalone_show_conf
 2876 01d0 0133     		add	r3, r3, #1	@ tmp285,
 2877 01d2 DAB2     		uxtb	r2, r3	@ standalone_show_conf.10, tmp285
 2878 01d4 484B     		ldr	r3, .L219	@ tmp286,
 2879 01d6 1A70     		strb	r2, [r3]	@ tmp287, standalone_show_conf
 827:.\src/standalone.c **** 
 828:.\src/standalone.c **** 			break;
 2880              		.loc 1 828 0
ARM GAS  C:\Users\Mariano\AppData\Local\Temp\cco1kxoW.s 			page 69


 2881 01d8 82E0     		b	.L216	@
 2882              	.L198:
 829:.\src/standalone.c **** 
 830:.\src/standalone.c **** 		case STAND_ALONE_SHOW_CONF_5:
 831:.\src/standalone.c **** 			memset(s_current, ' ', sizeof(s_current));
 2883              		.loc 1 831 0
 2884 01da 6B46     		mov	r3, sp	@ tmp288,
 2885 01dc 181C     		mov	r0, r3	@, tmp288
 2886 01de 2021     		mov	r1, #32	@,
 2887 01e0 1422     		mov	r2, #20	@,
 2888 01e2 FFF7FEFF 		bl	memset	@
 832:.\src/standalone.c **** 			sprintf(s_current, "Ramp ON Start %2d", (StandAloneStruct_local.power_up_timer_value / 1000));
 2889              		.loc 1 832 0
 2890 01e6 474B     		ldr	r3, .L219+12	@ tmp289,
 2891 01e8 1B89     		ldrh	r3, [r3, #8]	@ D.5919,
 2892 01ea 181C     		mov	r0, r3	@, D.5919
 2893 01ec FA23     		mov	r3, #250	@ tmp357,
 2894 01ee 9900     		lsl	r1, r3, #2	@, tmp357,
 2895 01f0 FFF7FEFF 		bl	__aeabi_uidiv	@
 2896 01f4 031C     		mov	r3, r0	@ tmp293,
 2897 01f6 9BB2     		uxth	r3, r3	@ D.5920, tmp293
 2898 01f8 6946     		mov	r1, sp	@ tmp294,
 2899 01fa 4A4A     		ldr	r2, .L219+44	@ tmp295,
 2900 01fc 081C     		mov	r0, r1	@, tmp294
 2901 01fe 111C     		mov	r1, r2	@, tmp295
 2902 0200 1A1C     		mov	r2, r3	@, D.5921
 2903 0202 FFF7FEFF 		bl	sprintf	@
 833:.\src/standalone.c **** 			strcat(s_current, (const char*)"s");
 2904              		.loc 1 833 0
 2905 0206 6B46     		mov	r3, sp	@ tmp296,
 2906 0208 181C     		mov	r0, r3	@, tmp296
 2907 020a FFF7FEFF 		bl	strlen	@
 2908 020e 031C     		mov	r3, r0	@ tmp297,
 2909 0210 6A46     		mov	r2, sp	@ tmp299,
 2910 0212 D218     		add	r2, r2, r3	@ D.5923, tmp299, D.5922
 2911 0214 444B     		ldr	r3, .L219+48	@ tmp300,
 2912 0216 111C     		mov	r1, r2	@ tmp301, D.5923
 2913 0218 1A1C     		mov	r2, r3	@ tmp302, tmp300
 2914 021a 0223     		mov	r3, #2	@ tmp303,
 2915 021c 081C     		mov	r0, r1	@, tmp301
 2916 021e 111C     		mov	r1, r2	@, tmp302
 2917 0220 1A1C     		mov	r2, r3	@, tmp303
 2918 0222 FFF7FEFF 		bl	memcpy	@
 834:.\src/standalone.c **** 			resp_down = FuncScroll2((const char *) s_current);
 2919              		.loc 1 834 0
 2920 0226 6C46     		mov	r4, sp	@ tmp306,
 2921 0228 1634     		add	r4, r4, #22	@ tmp306,
 2922 022a 6B46     		mov	r3, sp	@ tmp307,
 2923 022c 181C     		mov	r0, r3	@, tmp307
 2924 022e FFF7FEFF 		bl	FuncScroll2	@
 2925 0232 031C     		mov	r3, r0	@ tmp308,
 2926 0234 2370     		strb	r3, [r4]	@ tmp310, resp_down
 835:.\src/standalone.c **** 
 836:.\src/standalone.c **** 			if (resp_down == RESP_FINISH)
 2927              		.loc 1 836 0
 2928 0236 6B46     		mov	r3, sp	@ tmp311,
 2929 0238 1633     		add	r3, r3, #22	@ tmp311,
ARM GAS  C:\Users\Mariano\AppData\Local\Temp\cco1kxoW.s 			page 70


 2930 023a 1B78     		ldrb	r3, [r3]	@ tmp312, resp_down
 2931 023c 0A2B     		cmp	r3, #10	@ tmp312,
 2932 023e 51D1     		bne	.L217	@,
 837:.\src/standalone.c **** 				standalone_show_conf++;
 2933              		.loc 1 837 0
 2934 0240 2D4B     		ldr	r3, .L219	@ tmp313,
 2935 0242 1B78     		ldrb	r3, [r3]	@ standalone_show_conf.11, standalone_show_conf
 2936 0244 0133     		add	r3, r3, #1	@ tmp314,
 2937 0246 DAB2     		uxtb	r2, r3	@ standalone_show_conf.12, tmp314
 2938 0248 2B4B     		ldr	r3, .L219	@ tmp315,
 2939 024a 1A70     		strb	r2, [r3]	@ tmp316, standalone_show_conf
 838:.\src/standalone.c **** 
 839:.\src/standalone.c **** 			break;
 2940              		.loc 1 839 0
 2941 024c 4AE0     		b	.L217	@
 2942              	.L199:
 840:.\src/standalone.c **** 
 841:.\src/standalone.c **** 		case STAND_ALONE_SHOW_CONF_6:
 842:.\src/standalone.c **** 			memset(s_current, ' ', sizeof(s_current));
 2943              		.loc 1 842 0
 2944 024e 6B46     		mov	r3, sp	@ tmp317,
 2945 0250 181C     		mov	r0, r3	@, tmp317
 2946 0252 2021     		mov	r1, #32	@,
 2947 0254 1422     		mov	r2, #20	@,
 2948 0256 FFF7FEFF 		bl	memset	@
 843:.\src/standalone.c **** 			sprintf(s_current, "Ramp Dimming %2d", (StandAloneStruct_local.dimming_up_timer_value / 1000));
 2949              		.loc 1 843 0
 2950 025a 2A4B     		ldr	r3, .L219+12	@ tmp318,
 2951 025c 5B89     		ldrh	r3, [r3, #10]	@ D.5928,
 2952 025e 181C     		mov	r0, r3	@, D.5928
 2953 0260 FA23     		mov	r3, #250	@ tmp356,
 2954 0262 9900     		lsl	r1, r3, #2	@, tmp356,
 2955 0264 FFF7FEFF 		bl	__aeabi_uidiv	@
 2956 0268 031C     		mov	r3, r0	@ tmp322,
 2957 026a 9BB2     		uxth	r3, r3	@ D.5929, tmp322
 2958 026c 6946     		mov	r1, sp	@ tmp323,
 2959 026e 2F4A     		ldr	r2, .L219+52	@ tmp324,
 2960 0270 081C     		mov	r0, r1	@, tmp323
 2961 0272 111C     		mov	r1, r2	@, tmp324
 2962 0274 1A1C     		mov	r2, r3	@, D.5930
 2963 0276 FFF7FEFF 		bl	sprintf	@
 844:.\src/standalone.c **** 			strcat(s_current, (const char*)"s");
 2964              		.loc 1 844 0
 2965 027a 6B46     		mov	r3, sp	@ tmp325,
 2966 027c 181C     		mov	r0, r3	@, tmp325
 2967 027e FFF7FEFF 		bl	strlen	@
 2968 0282 031C     		mov	r3, r0	@ tmp326,
 2969 0284 6A46     		mov	r2, sp	@ tmp328,
 2970 0286 D218     		add	r2, r2, r3	@ D.5932, tmp328, D.5931
 2971 0288 274B     		ldr	r3, .L219+48	@ tmp329,
 2972 028a 111C     		mov	r1, r2	@ tmp330, D.5932
 2973 028c 1A1C     		mov	r2, r3	@ tmp331, tmp329
 2974 028e 0223     		mov	r3, #2	@ tmp332,
 2975 0290 081C     		mov	r0, r1	@, tmp330
 2976 0292 111C     		mov	r1, r2	@, tmp331
 2977 0294 1A1C     		mov	r2, r3	@, tmp332
 2978 0296 FFF7FEFF 		bl	memcpy	@
ARM GAS  C:\Users\Mariano\AppData\Local\Temp\cco1kxoW.s 			page 71


 845:.\src/standalone.c **** 			resp_down = FuncScroll2((const char *) s_current);
 2979              		.loc 1 845 0
 2980 029a 6C46     		mov	r4, sp	@ tmp335,
 2981 029c 1634     		add	r4, r4, #22	@ tmp335,
 2982 029e 6B46     		mov	r3, sp	@ tmp336,
 2983 02a0 181C     		mov	r0, r3	@, tmp336
 2984 02a2 FFF7FEFF 		bl	FuncScroll2	@
 2985 02a6 031C     		mov	r3, r0	@ tmp337,
 2986 02a8 2370     		strb	r3, [r4]	@ tmp339, resp_down
 846:.\src/standalone.c **** 
 847:.\src/standalone.c **** 			if (resp_down == RESP_FINISH)
 2987              		.loc 1 847 0
 2988 02aa 6B46     		mov	r3, sp	@ tmp340,
 2989 02ac 1633     		add	r3, r3, #22	@ tmp340,
 2990 02ae 1B78     		ldrb	r3, [r3]	@ tmp341, resp_down
 2991 02b0 0A2B     		cmp	r3, #10	@ tmp341,
 2992 02b2 19D1     		bne	.L218	@,
 848:.\src/standalone.c **** 			{
 849:.\src/standalone.c **** 				standalone_show_conf = STAND_ALONE_SHOW_CONF_0;
 2993              		.loc 1 849 0
 2994 02b4 104B     		ldr	r3, .L219	@ tmp342,
 2995 02b6 0022     		mov	r2, #0	@ tmp343,
 2996 02b8 1A70     		strb	r2, [r3]	@ tmp344, standalone_show_conf
 850:.\src/standalone.c **** 				resp = RESP_FINISH;
 2997              		.loc 1 850 0
 2998 02ba 6B46     		mov	r3, sp	@ tmp345,
 2999 02bc 1733     		add	r3, r3, #23	@ tmp345,
 3000 02be 0A22     		mov	r2, #10	@ tmp346,
 3001 02c0 1A70     		strb	r2, [r3]	@ tmp347, resp
 851:.\src/standalone.c **** 			}
 852:.\src/standalone.c **** 			break;
 3002              		.loc 1 852 0
 3003 02c2 11E0     		b	.L218	@
 3004              	.L192:
 853:.\src/standalone.c **** 
 854:.\src/standalone.c **** 		case STAND_ALONE_SHOW_CONF_RESET_END:
 855:.\src/standalone.c **** 		default:
 856:.\src/standalone.c **** 			standalone_show_conf = STAND_ALONE_SHOW_CONF_0;
 3005              		.loc 1 856 0
 3006 02c4 0C4B     		ldr	r3, .L219	@ tmp348,
 3007 02c6 0022     		mov	r2, #0	@ tmp349,
 3008 02c8 1A70     		strb	r2, [r3]	@ tmp350, standalone_show_conf
 857:.\src/standalone.c **** 			resp = RESP_FINISH;
 3009              		.loc 1 857 0
 3010 02ca 6B46     		mov	r3, sp	@ tmp351,
 3011 02cc 1733     		add	r3, r3, #23	@ tmp351,
 3012 02ce 0A22     		mov	r2, #10	@ tmp352,
 3013 02d0 1A70     		strb	r2, [r3]	@ tmp353, resp
 858:.\src/standalone.c **** 			break;
 3014              		.loc 1 858 0
 3015 02d2 0AE0     		b	.L201	@
 3016              	.L213:
 790:.\src/standalone.c **** 			break;
 3017              		.loc 1 790 0
 3018 02d4 C046     		mov	r8, r8
 3019 02d6 08E0     		b	.L201	@
 3020              	.L214:
ARM GAS  C:\Users\Mariano\AppData\Local\Temp\cco1kxoW.s 			page 72


 806:.\src/standalone.c **** 			break;
 3021              		.loc 1 806 0
 3022 02d8 C046     		mov	r8, r8
 3023 02da 06E0     		b	.L201	@
 3024              	.L215:
 817:.\src/standalone.c **** 			break;
 3025              		.loc 1 817 0
 3026 02dc C046     		mov	r8, r8
 3027 02de 04E0     		b	.L201	@
 3028              	.L216:
 828:.\src/standalone.c **** 			break;
 3029              		.loc 1 828 0
 3030 02e0 C046     		mov	r8, r8
 3031 02e2 02E0     		b	.L201	@
 3032              	.L217:
 839:.\src/standalone.c **** 			break;
 3033              		.loc 1 839 0
 3034 02e4 C046     		mov	r8, r8
 3035 02e6 00E0     		b	.L201	@
 3036              	.L218:
 852:.\src/standalone.c **** 			break;
 3037              		.loc 1 852 0
 3038 02e8 C046     		mov	r8, r8
 3039              	.L201:
 859:.\src/standalone.c **** 	}
 860:.\src/standalone.c **** 	return resp;
 3040              		.loc 1 860 0
 3041 02ea 6B46     		mov	r3, sp	@ tmp354,
 3042 02ec 1733     		add	r3, r3, #23	@ tmp354,
 3043 02ee 1B78     		ldrb	r3, [r3]	@ D.5935, resp
 861:.\src/standalone.c **** }
 3044              		.loc 1 861 0
 3045 02f0 181C     		mov	r0, r3	@, <retval>
 3046 02f2 06B0     		add	sp, sp, #24	@,,
 3047              		@ sp needed for prologue	@
 3048 02f4 10BD     		pop	{r4, pc}
 3049              	.L220:
 3050 02f6 C046     		.align	2
 3051              	.L219:
 3052 02f8 00000000 		.word	standalone_show_conf
 3053 02fc 00000000 		.word	.L200
 3054 0300 48010000 		.word	.LC59
 3055 0304 00000000 		.word	StandAloneStruct_local
 3056 0308 5C010000 		.word	.LC62
 3057 030c 70010000 		.word	.LC64
 3058 0310 84010000 		.word	.LC66
 3059 0314 94010000 		.word	.LC68
 3060 0318 98010000 		.word	.LC70
 3061 031c AC010000 		.word	.LC72
 3062 0320 BC010000 		.word	.LC74
 3063 0324 CC010000 		.word	.LC76
 3064 0328 E0010000 		.word	.LC78
 3065 032c E4010000 		.word	.LC80
 3066              		.cfi_endproc
 3067              	.LFE22:
 3068              		.size	ShowConfStandAlone, .-ShowConfStandAlone
 3069              		.section	.text.FuncStandAloneReset,"ax",%progbits
ARM GAS  C:\Users\Mariano\AppData\Local\Temp\cco1kxoW.s 			page 73


 3070              		.align	2
 3071              		.global	FuncStandAloneReset
 3072              		.code	16
 3073              		.thumb_func
 3074              		.type	FuncStandAloneReset, %function
 3075              	FuncStandAloneReset:
 3076              	.LFB23:
 862:.\src/standalone.c **** 
 863:.\src/standalone.c **** void FuncStandAloneReset (void)
 864:.\src/standalone.c **** {
 3077              		.loc 1 864 0
 3078              		.cfi_startproc
 865:.\src/standalone.c **** 	standalone_state = STAND_ALONE_INIT;
 3079              		.loc 1 865 0
 3080 0000 014B     		ldr	r3, .L222	@ tmp134,
 3081 0002 0022     		mov	r2, #0	@ tmp135,
 3082 0004 1A70     		strb	r2, [r3]	@ tmp136, standalone_state
 866:.\src/standalone.c **** }
 3083              		.loc 1 866 0
 3084              		@ sp needed for prologue	@
 3085 0006 7047     		bx	lr
 3086              	.L223:
 3087              		.align	2
 3088              	.L222:
 3089 0008 00000000 		.word	standalone_state
 3090              		.cfi_endproc
 3091              	.LFE23:
 3092              		.size	FuncStandAloneReset, .-FuncStandAloneReset
 3093              		.section	.text.MenuStandAloneReset,"ax",%progbits
 3094              		.align	2
 3095              		.global	MenuStandAloneReset
 3096              		.code	16
 3097              		.thumb_func
 3098              		.type	MenuStandAloneReset, %function
 3099              	MenuStandAloneReset:
 3100              	.LFB24:
 867:.\src/standalone.c **** 
 868:.\src/standalone.c **** void MenuStandAloneReset(void)
 869:.\src/standalone.c **** {
 3101              		.loc 1 869 0
 3102              		.cfi_startproc
 870:.\src/standalone.c **** 	standalone_menu_state = STAND_ALONE_MENU_INIT;
 3103              		.loc 1 870 0
 3104 0000 014B     		ldr	r3, .L225	@ tmp134,
 3105 0002 0022     		mov	r2, #0	@ tmp135,
 3106 0004 1A70     		strb	r2, [r3]	@ tmp136, standalone_menu_state
 871:.\src/standalone.c **** }
 3107              		.loc 1 871 0
 3108              		@ sp needed for prologue	@
 3109 0006 7047     		bx	lr
 3110              	.L226:
 3111              		.align	2
 3112              	.L225:
 3113 0008 00000000 		.word	standalone_menu_state
 3114              		.cfi_endproc
 3115              	.LFE24:
 3116              		.size	MenuStandAloneReset, .-MenuStandAloneReset
ARM GAS  C:\Users\Mariano\AppData\Local\Temp\cco1kxoW.s 			page 74


 3117              		.section	.text.ShowConfStandAloneReset,"ax",%progbits
 3118              		.align	2
 3119              		.global	ShowConfStandAloneReset
 3120              		.code	16
 3121              		.thumb_func
 3122              		.type	ShowConfStandAloneReset, %function
 3123              	ShowConfStandAloneReset:
 3124              	.LFB25:
 872:.\src/standalone.c **** 
 873:.\src/standalone.c **** void ShowConfStandAloneReset(void)
 874:.\src/standalone.c **** {
 3125              		.loc 1 874 0
 3126              		.cfi_startproc
 875:.\src/standalone.c **** 	standalone_show_conf = STAND_ALONE_SHOW_CONF_0;
 3127              		.loc 1 875 0
 3128 0000 014B     		ldr	r3, .L228	@ tmp134,
 3129 0002 0022     		mov	r2, #0	@ tmp135,
 3130 0004 1A70     		strb	r2, [r3]	@ tmp136, standalone_show_conf
 876:.\src/standalone.c **** }
 3131              		.loc 1 876 0
 3132              		@ sp needed for prologue	@
 3133 0006 7047     		bx	lr
 3134              	.L229:
 3135              		.align	2
 3136              	.L228:
 3137 0008 00000000 		.word	standalone_show_conf
 3138              		.cfi_endproc
 3139              	.LFE25:
 3140              		.size	ShowConfStandAloneReset, .-ShowConfStandAloneReset
 3141              		.section	.text.ShowConfStandAloneResetEnd,"ax",%progbits
 3142              		.align	2
 3143              		.global	ShowConfStandAloneResetEnd
 3144              		.code	16
 3145              		.thumb_func
 3146              		.type	ShowConfStandAloneResetEnd, %function
 3147              	ShowConfStandAloneResetEnd:
 3148              	.LFB26:
 877:.\src/standalone.c **** 
 878:.\src/standalone.c **** void ShowConfStandAloneResetEnd(void)
 879:.\src/standalone.c **** {
 3149              		.loc 1 879 0
 3150              		.cfi_startproc
 880:.\src/standalone.c **** 	standalone_show_conf = STAND_ALONE_SHOW_CONF_RESET_END;
 3151              		.loc 1 880 0
 3152 0000 014B     		ldr	r3, .L231	@ tmp134,
 3153 0002 0722     		mov	r2, #7	@ tmp135,
 3154 0004 1A70     		strb	r2, [r3]	@ tmp136, standalone_show_conf
 881:.\src/standalone.c **** }
 3155              		.loc 1 881 0
 3156              		@ sp needed for prologue	@
 3157 0006 7047     		bx	lr
 3158              	.L232:
 3159              		.align	2
 3160              	.L231:
 3161 0008 00000000 		.word	standalone_show_conf
 3162              		.cfi_endproc
 3163              	.LFE26:
ARM GAS  C:\Users\Mariano\AppData\Local\Temp\cco1kxoW.s 			page 75


 3164              		.size	ShowConfStandAloneResetEnd, .-ShowConfStandAloneResetEnd
 3165              		.text
 3166              	.Letext0:
 3167              		.file 2 ".\\src\\standalone.h"
 3168              		.file 3 "c:\\program files (x86)\\gnu tools arm embedded\\4.7 2013q2\\bin\\../lib/gcc/arm-none-eab
 3169              		.file 4 ".\\cmsis_boot/stm32f0xx.h"
 3170              		.section	.debug_info,"",%progbits
 3171              	.Ldebug_info0:
 3172 0000 B4040000 		.4byte	0x4b4
 3173 0004 0200     		.2byte	0x2
 3174 0006 00000000 		.4byte	.Ldebug_abbrev0
 3175 000a 04       		.byte	0x4
 3176 000b 01       		.uleb128 0x1
 3177 000c 90000000 		.4byte	.LASF59
 3178 0010 01       		.byte	0x1
 3179 0011 F1010000 		.4byte	.LASF60
 3180 0015 AF030000 		.4byte	.LASF61
 3181 0019 00000000 		.4byte	.Ldebug_ranges0+0
 3182 001d 00000000 		.4byte	0
 3183 0021 00000000 		.4byte	0
 3184 0025 00000000 		.4byte	.Ldebug_line0
 3185 0029 02       		.uleb128 0x2
 3186 002a 3D030000 		.4byte	.LASF62
 3187 002e 0E       		.byte	0xe
 3188 002f 02       		.byte	0x2
 3189 0030 0C       		.byte	0xc
 3190 0031 C2000000 		.4byte	0xc2
 3191 0035 03       		.uleb128 0x3
 3192 0036 52020000 		.4byte	.LASF0
 3193 003a 02       		.byte	0x2
 3194 003b 0E       		.byte	0xe
 3195 003c C2000000 		.4byte	0xc2
 3196 0040 02       		.byte	0x2
 3197 0041 23       		.byte	0x23
 3198 0042 00       		.uleb128 0
 3199 0043 03       		.uleb128 0x3
 3200 0044 68030000 		.4byte	.LASF1
 3201 0048 02       		.byte	0x2
 3202 0049 0F       		.byte	0xf
 3203 004a C2000000 		.4byte	0xc2
 3204 004e 02       		.byte	0x2
 3205 004f 23       		.byte	0x23
 3206 0050 01       		.uleb128 0x1
 3207 0051 03       		.uleb128 0x3
 3208 0052 D9000000 		.4byte	.LASF2
 3209 0056 02       		.byte	0x2
 3210 0057 10       		.byte	0x10
 3211 0058 C2000000 		.4byte	0xc2
 3212 005c 02       		.byte	0x2
 3213 005d 23       		.byte	0x23
 3214 005e 02       		.uleb128 0x2
 3215 005f 03       		.uleb128 0x3
 3216 0060 4A000000 		.4byte	.LASF3
 3217 0064 02       		.byte	0x2
 3218 0065 11       		.byte	0x11
 3219 0066 C2000000 		.4byte	0xc2
 3220 006a 02       		.byte	0x2
ARM GAS  C:\Users\Mariano\AppData\Local\Temp\cco1kxoW.s 			page 76


 3221 006b 23       		.byte	0x23
 3222 006c 03       		.uleb128 0x3
 3223 006d 03       		.uleb128 0x3
 3224 006e D5020000 		.4byte	.LASF4
 3225 0072 02       		.byte	0x2
 3226 0073 12       		.byte	0x12
 3227 0074 C2000000 		.4byte	0xc2
 3228 0078 02       		.byte	0x2
 3229 0079 23       		.byte	0x23
 3230 007a 04       		.uleb128 0x4
 3231 007b 03       		.uleb128 0x3
 3232 007c 8A010000 		.4byte	.LASF5
 3233 0080 02       		.byte	0x2
 3234 0081 13       		.byte	0x13
 3235 0082 C2000000 		.4byte	0xc2
 3236 0086 02       		.byte	0x2
 3237 0087 23       		.byte	0x23
 3238 0088 05       		.uleb128 0x5
 3239 0089 03       		.uleb128 0x3
 3240 008a 9A030000 		.4byte	.LASF6
 3241 008e 02       		.byte	0x2
 3242 008f 14       		.byte	0x14
 3243 0090 C2000000 		.4byte	0xc2
 3244 0094 02       		.byte	0x2
 3245 0095 23       		.byte	0x23
 3246 0096 06       		.uleb128 0x6
 3247 0097 03       		.uleb128 0x3
 3248 0098 76000000 		.4byte	.LASF7
 3249 009c 02       		.byte	0x2
 3250 009d 15       		.byte	0x15
 3251 009e C9000000 		.4byte	0xc9
 3252 00a2 02       		.byte	0x2
 3253 00a3 23       		.byte	0x23
 3254 00a4 08       		.uleb128 0x8
 3255 00a5 03       		.uleb128 0x3
 3256 00a6 10030000 		.4byte	.LASF8
 3257 00aa 02       		.byte	0x2
 3258 00ab 16       		.byte	0x16
 3259 00ac C9000000 		.4byte	0xc9
 3260 00b0 02       		.byte	0x2
 3261 00b1 23       		.byte	0x23
 3262 00b2 0A       		.uleb128 0xa
 3263 00b3 03       		.uleb128 0x3
 3264 00b4 A8010000 		.4byte	.LASF9
 3265 00b8 02       		.byte	0x2
 3266 00b9 17       		.byte	0x17
 3267 00ba C2000000 		.4byte	0xc2
 3268 00be 02       		.byte	0x2
 3269 00bf 23       		.byte	0x23
 3270 00c0 0C       		.uleb128 0xc
 3271 00c1 00       		.byte	0
 3272 00c2 04       		.uleb128 0x4
 3273 00c3 01       		.byte	0x1
 3274 00c4 08       		.byte	0x8
 3275 00c5 E3010000 		.4byte	.LASF10
 3276 00c9 04       		.uleb128 0x4
 3277 00ca 02       		.byte	0x2
ARM GAS  C:\Users\Mariano\AppData\Local\Temp\cco1kxoW.s 			page 77


 3278 00cb 07       		.byte	0x7
 3279 00cc 6B020000 		.4byte	.LASF11
 3280 00d0 05       		.uleb128 0x5
 3281 00d1 05010000 		.4byte	.LASF14
 3282 00d5 02       		.byte	0x2
 3283 00d6 19       		.byte	0x19
 3284 00d7 29000000 		.4byte	0x29
 3285 00db 04       		.uleb128 0x4
 3286 00dc 01       		.byte	0x1
 3287 00dd 06       		.byte	0x6
 3288 00de 35010000 		.4byte	.LASF12
 3289 00e2 04       		.uleb128 0x4
 3290 00e3 02       		.byte	0x2
 3291 00e4 05       		.byte	0x5
 3292 00e5 63000000 		.4byte	.LASF13
 3293 00e9 05       		.uleb128 0x5
 3294 00ea 37020000 		.4byte	.LASF15
 3295 00ee 03       		.byte	0x3
 3296 00ef 36       		.byte	0x36
 3297 00f0 C9000000 		.4byte	0xc9
 3298 00f4 04       		.uleb128 0x4
 3299 00f5 04       		.byte	0x4
 3300 00f6 05       		.byte	0x5
 3301 00f7 81010000 		.4byte	.LASF16
 3302 00fb 05       		.uleb128 0x5
 3303 00fc 1B020000 		.4byte	.LASF17
 3304 0100 03       		.byte	0x3
 3305 0101 50       		.byte	0x50
 3306 0102 06010000 		.4byte	0x106
 3307 0106 04       		.uleb128 0x4
 3308 0107 04       		.byte	0x4
 3309 0108 07       		.byte	0x7
 3310 0109 40020000 		.4byte	.LASF18
 3311 010d 04       		.uleb128 0x4
 3312 010e 08       		.byte	0x8
 3313 010f 05       		.byte	0x5
 3314 0110 41010000 		.4byte	.LASF19
 3315 0114 04       		.uleb128 0x4
 3316 0115 08       		.byte	0x8
 3317 0116 07       		.byte	0x7
 3318 0117 04020000 		.4byte	.LASF20
 3319 011b 06       		.uleb128 0x6
 3320 011c 04       		.byte	0x4
 3321 011d 05       		.byte	0x5
 3322 011e 696E7400 		.ascii	"int\000"
 3323 0122 04       		.uleb128 0x4
 3324 0123 04       		.byte	0x4
 3325 0124 07       		.byte	0x7
 3326 0125 2A020000 		.4byte	.LASF21
 3327 0129 04       		.uleb128 0x4
 3328 012a 04       		.byte	0x4
 3329 012b 07       		.byte	0x7
 3330 012c 6D000000 		.4byte	.LASF22
 3331 0130 07       		.uleb128 0x7
 3332 0131 FB000000 		.4byte	0xfb
 3333 0135 08       		.uleb128 0x8
 3334 0136 FB000000 		.4byte	0xfb
ARM GAS  C:\Users\Mariano\AppData\Local\Temp\cco1kxoW.s 			page 78


 3335 013a 45010000 		.4byte	0x145
 3336 013e 09       		.uleb128 0x9
 3337 013f 29010000 		.4byte	0x129
 3338 0143 01       		.byte	0x1
 3339 0144 00       		.byte	0
 3340 0145 07       		.uleb128 0x7
 3341 0146 E9000000 		.4byte	0xe9
 3342 014a 0A       		.uleb128 0xa
 3343 014b 2C       		.byte	0x2c
 3344 014c 04       		.byte	0x4
 3345 014d 6902     		.2byte	0x269
 3346 014f 26020000 		.4byte	0x226
 3347 0153 0B       		.uleb128 0xb
 3348 0154 CF020000 		.4byte	.LASF23
 3349 0158 04       		.byte	0x4
 3350 0159 6B02     		.2byte	0x26b
 3351 015b 30010000 		.4byte	0x130
 3352 015f 02       		.byte	0x2
 3353 0160 23       		.byte	0x23
 3354 0161 00       		.uleb128 0
 3355 0162 0B       		.uleb128 0xb
 3356 0163 2E010000 		.4byte	.LASF24
 3357 0167 04       		.byte	0x4
 3358 0168 6C02     		.2byte	0x26c
 3359 016a 45010000 		.4byte	0x145
 3360 016e 02       		.byte	0x2
 3361 016f 23       		.byte	0x23
 3362 0170 04       		.uleb128 0x4
 3363 0171 0B       		.uleb128 0xb
 3364 0172 EA020000 		.4byte	.LASF25
 3365 0176 04       		.byte	0x4
 3366 0177 6D02     		.2byte	0x26d
 3367 0179 E9000000 		.4byte	0xe9
 3368 017d 02       		.byte	0x2
 3369 017e 23       		.byte	0x23
 3370 017f 06       		.uleb128 0x6
 3371 0180 0B       		.uleb128 0xb
 3372 0181 08030000 		.4byte	.LASF26
 3373 0185 04       		.byte	0x4
 3374 0186 6E02     		.2byte	0x26e
 3375 0188 30010000 		.4byte	0x130
 3376 018c 02       		.byte	0x2
 3377 018d 23       		.byte	0x23
 3378 018e 08       		.uleb128 0x8
 3379 018f 0B       		.uleb128 0xb
 3380 0190 7B010000 		.4byte	.LASF27
 3381 0194 04       		.byte	0x4
 3382 0195 6F02     		.2byte	0x26f
 3383 0197 30010000 		.4byte	0x130
 3384 019b 02       		.byte	0x2
 3385 019c 23       		.byte	0x23
 3386 019d 0C       		.uleb128 0xc
 3387 019e 0C       		.uleb128 0xc
 3388 019f 49445200 		.ascii	"IDR\000"
 3389 01a3 04       		.byte	0x4
 3390 01a4 7002     		.2byte	0x270
 3391 01a6 45010000 		.4byte	0x145
ARM GAS  C:\Users\Mariano\AppData\Local\Temp\cco1kxoW.s 			page 79


 3392 01aa 02       		.byte	0x2
 3393 01ab 23       		.byte	0x23
 3394 01ac 10       		.uleb128 0x10
 3395 01ad 0B       		.uleb128 0xb
 3396 01ae F4020000 		.4byte	.LASF28
 3397 01b2 04       		.byte	0x4
 3398 01b3 7102     		.2byte	0x271
 3399 01b5 E9000000 		.4byte	0xe9
 3400 01b9 02       		.byte	0x2
 3401 01ba 23       		.byte	0x23
 3402 01bb 12       		.uleb128 0x12
 3403 01bc 0C       		.uleb128 0xc
 3404 01bd 4F445200 		.ascii	"ODR\000"
 3405 01c1 04       		.byte	0x4
 3406 01c2 7202     		.2byte	0x272
 3407 01c4 45010000 		.4byte	0x145
 3408 01c8 02       		.byte	0x2
 3409 01c9 23       		.byte	0x23
 3410 01ca 14       		.uleb128 0x14
 3411 01cb 0B       		.uleb128 0xb
 3412 01cc FE020000 		.4byte	.LASF29
 3413 01d0 04       		.byte	0x4
 3414 01d1 7302     		.2byte	0x273
 3415 01d3 E9000000 		.4byte	0xe9
 3416 01d7 02       		.byte	0x2
 3417 01d8 23       		.byte	0x23
 3418 01d9 16       		.uleb128 0x16
 3419 01da 0B       		.uleb128 0xb
 3420 01db A3010000 		.4byte	.LASF30
 3421 01df 04       		.byte	0x4
 3422 01e0 7402     		.2byte	0x274
 3423 01e2 30010000 		.4byte	0x130
 3424 01e6 02       		.byte	0x2
 3425 01e7 23       		.byte	0x23
 3426 01e8 18       		.uleb128 0x18
 3427 01e9 0B       		.uleb128 0xb
 3428 01ea 0A040000 		.4byte	.LASF31
 3429 01ee 04       		.byte	0x4
 3430 01ef 7502     		.2byte	0x275
 3431 01f1 30010000 		.4byte	0x130
 3432 01f5 02       		.byte	0x2
 3433 01f6 23       		.byte	0x23
 3434 01f7 1C       		.uleb128 0x1c
 3435 01f8 0C       		.uleb128 0xc
 3436 01f9 41465200 		.ascii	"AFR\000"
 3437 01fd 04       		.byte	0x4
 3438 01fe 7602     		.2byte	0x276
 3439 0200 26020000 		.4byte	0x226
 3440 0204 02       		.byte	0x2
 3441 0205 23       		.byte	0x23
 3442 0206 20       		.uleb128 0x20
 3443 0207 0C       		.uleb128 0xc
 3444 0208 42525200 		.ascii	"BRR\000"
 3445 020c 04       		.byte	0x4
 3446 020d 7702     		.2byte	0x277
 3447 020f 45010000 		.4byte	0x145
 3448 0213 02       		.byte	0x2
ARM GAS  C:\Users\Mariano\AppData\Local\Temp\cco1kxoW.s 			page 80


 3449 0214 23       		.byte	0x23
 3450 0215 28       		.uleb128 0x28
 3451 0216 0B       		.uleb128 0xb
 3452 0217 FB000000 		.4byte	.LASF32
 3453 021b 04       		.byte	0x4
 3454 021c 7802     		.2byte	0x278
 3455 021e E9000000 		.4byte	0xe9
 3456 0222 02       		.byte	0x2
 3457 0223 23       		.byte	0x23
 3458 0224 2A       		.uleb128 0x2a
 3459 0225 00       		.byte	0
 3460 0226 07       		.uleb128 0x7
 3461 0227 35010000 		.4byte	0x135
 3462 022b 0D       		.uleb128 0xd
 3463 022c 00000000 		.4byte	.LASF33
 3464 0230 04       		.byte	0x4
 3465 0231 7902     		.2byte	0x279
 3466 0233 4A010000 		.4byte	0x14a
 3467 0237 04       		.uleb128 0x4
 3468 0238 01       		.byte	0x1
 3469 0239 08       		.byte	0x8
 3470 023a 95020000 		.4byte	.LASF34
 3471 023e 0E       		.uleb128 0xe
 3472 023f 04       		.byte	0x4
 3473 0240 44020000 		.4byte	0x244
 3474 0244 0F       		.uleb128 0xf
 3475 0245 37020000 		.4byte	0x237
 3476 0249 08       		.uleb128 0x8
 3477 024a C2000000 		.4byte	0xc2
 3478 024e 59020000 		.4byte	0x259
 3479 0252 09       		.uleb128 0x9
 3480 0253 29010000 		.4byte	0x129
 3481 0257 02       		.byte	0x2
 3482 0258 00       		.byte	0
 3483 0259 10       		.uleb128 0x10
 3484 025a 01       		.byte	0x1
 3485 025b 6C010000 		.4byte	.LASF37
 3486 025f 01       		.byte	0x1
 3487 0260 33       		.byte	0x33
 3488 0261 01       		.byte	0x1
 3489 0262 C2000000 		.4byte	0xc2
 3490 0266 00000000 		.4byte	.LFB20
 3491 026a 80060000 		.4byte	.LFE20
 3492 026e 00000000 		.4byte	.LLST0
 3493 0272 01       		.byte	0x1
 3494 0273 94020000 		.4byte	0x294
 3495 0277 11       		.uleb128 0x11
 3496 0278 8B000000 		.4byte	.LASF35
 3497 027c 01       		.byte	0x1
 3498 027d 35       		.byte	0x35
 3499 027e C2000000 		.4byte	0xc2
 3500 0282 02       		.byte	0x2
 3501 0283 91       		.byte	0x91
 3502 0284 77       		.sleb128 -9
 3503 0285 11       		.uleb128 0x11
 3504 0286 9A020000 		.4byte	.LASF36
 3505 028a 01       		.byte	0x1
ARM GAS  C:\Users\Mariano\AppData\Local\Temp\cco1kxoW.s 			page 81


 3506 028b 36       		.byte	0x36
 3507 028c C2000000 		.4byte	0xc2
 3508 0290 02       		.byte	0x2
 3509 0291 91       		.byte	0x91
 3510 0292 76       		.sleb128 -10
 3511 0293 00       		.byte	0
 3512 0294 12       		.uleb128 0x12
 3513 0295 01       		.byte	0x1
 3514 0296 59030000 		.4byte	.LASF38
 3515 029a 01       		.byte	0x1
 3516 029b 9D01     		.2byte	0x19d
 3517 029d 01       		.byte	0x1
 3518 029e C2000000 		.4byte	0xc2
 3519 02a2 00000000 		.4byte	.LFB21
 3520 02a6 EC070000 		.4byte	.LFE21
 3521 02aa 2C000000 		.4byte	.LLST1
 3522 02ae 01       		.byte	0x1
 3523 02af 17030000 		.4byte	0x317
 3524 02b3 13       		.uleb128 0x13
 3525 02b4 8B000000 		.4byte	.LASF35
 3526 02b8 01       		.byte	0x1
 3527 02b9 9F01     		.2byte	0x19f
 3528 02bb C2000000 		.4byte	0xc2
 3529 02bf 02       		.byte	0x2
 3530 02c0 91       		.byte	0x91
 3531 02c1 77       		.sleb128 -9
 3532 02c2 13       		.uleb128 0x13
 3533 02c3 9A020000 		.4byte	.LASF36
 3534 02c7 01       		.byte	0x1
 3535 02c8 A001     		.2byte	0x1a0
 3536 02ca C2000000 		.4byte	0xc2
 3537 02ce 02       		.byte	0x2
 3538 02cf 91       		.byte	0x91
 3539 02d0 76       		.sleb128 -10
 3540 02d1 13       		.uleb128 0x13
 3541 02d2 A8010000 		.4byte	.LASF9
 3542 02d6 01       		.byte	0x1
 3543 02d7 A101     		.2byte	0x1a1
 3544 02d9 C2000000 		.4byte	0xc2
 3545 02dd 02       		.byte	0x2
 3546 02de 91       		.byte	0x91
 3547 02df 71       		.sleb128 -15
 3548 02e0 14       		.uleb128 0x14
 3549 02e1 FC040000 		.4byte	.LBB2
 3550 02e5 3A050000 		.4byte	.LBE2
 3551 02e9 FD020000 		.4byte	0x2fd
 3552 02ed 13       		.uleb128 0x13
 3553 02ee 24020000 		.4byte	.LASF39
 3554 02f2 01       		.byte	0x1
 3555 02f3 8302     		.2byte	0x283
 3556 02f5 C9000000 		.4byte	0xc9
 3557 02f9 02       		.byte	0x2
 3558 02fa 91       		.byte	0x91
 3559 02fb 74       		.sleb128 -12
 3560 02fc 00       		.byte	0
 3561 02fd 15       		.uleb128 0x15
 3562 02fe B0050000 		.4byte	.LBB3
ARM GAS  C:\Users\Mariano\AppData\Local\Temp\cco1kxoW.s 			page 82


 3563 0302 F6050000 		.4byte	.LBE3
 3564 0306 13       		.uleb128 0x13
 3565 0307 24020000 		.4byte	.LASF39
 3566 030b 01       		.byte	0x1
 3567 030c A502     		.2byte	0x2a5
 3568 030e C9000000 		.4byte	0xc9
 3569 0312 02       		.byte	0x2
 3570 0313 91       		.byte	0x91
 3571 0314 72       		.sleb128 -14
 3572 0315 00       		.byte	0
 3573 0316 00       		.byte	0
 3574 0317 12       		.uleb128 0x12
 3575 0318 01       		.byte	0x1
 3576 0319 87030000 		.4byte	.LASF40
 3577 031d 01       		.byte	0x1
 3578 031e FD02     		.2byte	0x2fd
 3579 0320 01       		.byte	0x1
 3580 0321 C2000000 		.4byte	0xc2
 3581 0325 00000000 		.4byte	.LFB22
 3582 0329 30030000 		.4byte	.LFE22
 3583 032d 58000000 		.4byte	.LLST2
 3584 0331 01       		.byte	0x1
 3585 0332 64030000 		.4byte	0x364
 3586 0336 13       		.uleb128 0x13
 3587 0337 8B000000 		.4byte	.LASF35
 3588 033b 01       		.byte	0x1
 3589 033c FF02     		.2byte	0x2ff
 3590 033e C2000000 		.4byte	0xc2
 3591 0342 02       		.byte	0x2
 3592 0343 91       		.byte	0x91
 3593 0344 77       		.sleb128 -9
 3594 0345 13       		.uleb128 0x13
 3595 0346 9A020000 		.4byte	.LASF36
 3596 034a 01       		.byte	0x1
 3597 034b 0003     		.2byte	0x300
 3598 034d C2000000 		.4byte	0xc2
 3599 0351 02       		.byte	0x2
 3600 0352 91       		.byte	0x91
 3601 0353 76       		.sleb128 -10
 3602 0354 13       		.uleb128 0x13
 3603 0355 CC010000 		.4byte	.LASF41
 3604 0359 01       		.byte	0x1
 3605 035a 0103     		.2byte	0x301
 3606 035c 64030000 		.4byte	0x364
 3607 0360 02       		.byte	0x2
 3608 0361 91       		.byte	0x91
 3609 0362 60       		.sleb128 -32
 3610 0363 00       		.byte	0
 3611 0364 08       		.uleb128 0x8
 3612 0365 37020000 		.4byte	0x237
 3613 0369 74030000 		.4byte	0x374
 3614 036d 09       		.uleb128 0x9
 3615 036e 29010000 		.4byte	0x129
 3616 0372 13       		.byte	0x13
 3617 0373 00       		.byte	0
 3618 0374 16       		.uleb128 0x16
 3619 0375 01       		.byte	0x1
ARM GAS  C:\Users\Mariano\AppData\Local\Temp\cco1kxoW.s 			page 83


 3620 0376 73030000 		.4byte	.LASF42
 3621 037a 01       		.byte	0x1
 3622 037b 5F03     		.2byte	0x35f
 3623 037d 01       		.byte	0x1
 3624 037e 00000000 		.4byte	.LFB23
 3625 0382 0C000000 		.4byte	.LFE23
 3626 0386 02       		.byte	0x2
 3627 0387 7D       		.byte	0x7d
 3628 0388 00       		.sleb128 0
 3629 0389 01       		.byte	0x1
 3630 038a 16       		.uleb128 0x16
 3631 038b 01       		.byte	0x1
 3632 038c 36000000 		.4byte	.LASF43
 3633 0390 01       		.byte	0x1
 3634 0391 6403     		.2byte	0x364
 3635 0393 01       		.byte	0x1
 3636 0394 00000000 		.4byte	.LFB24
 3637 0398 0C000000 		.4byte	.LFE24
 3638 039c 02       		.byte	0x2
 3639 039d 7D       		.byte	0x7d
 3640 039e 00       		.sleb128 0
 3641 039f 01       		.byte	0x1
 3642 03a0 16       		.uleb128 0x16
 3643 03a1 01       		.byte	0x1
 3644 03a2 E3000000 		.4byte	.LASF44
 3645 03a6 01       		.byte	0x1
 3646 03a7 6903     		.2byte	0x369
 3647 03a9 01       		.byte	0x1
 3648 03aa 00000000 		.4byte	.LFB25
 3649 03ae 0C000000 		.4byte	.LFE25
 3650 03b2 02       		.byte	0x2
 3651 03b3 7D       		.byte	0x7d
 3652 03b4 00       		.sleb128 0
 3653 03b5 01       		.byte	0x1
 3654 03b6 16       		.uleb128 0x16
 3655 03b7 01       		.byte	0x1
 3656 03b8 0D000000 		.4byte	.LASF45
 3657 03bc 01       		.byte	0x1
 3658 03bd 6E03     		.2byte	0x36e
 3659 03bf 01       		.byte	0x1
 3660 03c0 00000000 		.4byte	.LFB26
 3661 03c4 0C000000 		.4byte	.LFE26
 3662 03c8 02       		.byte	0x2
 3663 03c9 7D       		.byte	0x7d
 3664 03ca 00       		.sleb128 0
 3665 03cb 01       		.byte	0x1
 3666 03cc 17       		.uleb128 0x17
 3667 03cd 48030000 		.4byte	.LASF46
 3668 03d1 01       		.byte	0x1
 3669 03d2 15       		.byte	0x15
 3670 03d3 D9030000 		.4byte	0x3d9
 3671 03d7 01       		.byte	0x1
 3672 03d8 01       		.byte	0x1
 3673 03d9 07       		.uleb128 0x7
 3674 03da C9000000 		.4byte	0xc9
 3675 03de 17       		.uleb128 0x17
 3676 03df 4F010000 		.4byte	.LASF47
ARM GAS  C:\Users\Mariano\AppData\Local\Temp\cco1kxoW.s 			page 84


 3677 03e3 01       		.byte	0x1
 3678 03e4 16       		.byte	0x16
 3679 03e5 D9030000 		.4byte	0x3d9
 3680 03e9 01       		.byte	0x1
 3681 03ea 01       		.byte	0x1
 3682 03eb 08       		.uleb128 0x8
 3683 03ec 3E020000 		.4byte	0x23e
 3684 03f0 F6030000 		.4byte	0x3f6
 3685 03f4 18       		.uleb128 0x18
 3686 03f5 00       		.byte	0
 3687 03f6 17       		.uleb128 0x17
 3688 03f7 D6010000 		.4byte	.LASF48
 3689 03fb 01       		.byte	0x1
 3690 03fc 18       		.byte	0x18
 3691 03fd EB030000 		.4byte	0x3eb
 3692 0401 01       		.byte	0x1
 3693 0402 01       		.byte	0x1
 3694 0403 17       		.uleb128 0x17
 3695 0404 A4020000 		.4byte	.LASF49
 3696 0408 01       		.byte	0x1
 3697 0409 1A       		.byte	0x1a
 3698 040a D0000000 		.4byte	0xd0
 3699 040e 01       		.byte	0x1
 3700 040f 01       		.byte	0x1
 3701 0410 19       		.uleb128 0x19
 3702 0411 BE020000 		.4byte	.LASF50
 3703 0415 01       		.byte	0x1
 3704 0416 1D       		.byte	0x1d
 3705 0417 C2000000 		.4byte	0xc2
 3706 041b 01       		.byte	0x1
 3707 041c 05       		.byte	0x5
 3708 041d 03       		.byte	0x3
 3709 041e 00000000 		.4byte	standalone_state
 3710 0422 19       		.uleb128 0x19
 3711 0423 27030000 		.4byte	.LASF51
 3712 0427 01       		.byte	0x1
 3713 0428 1E       		.byte	0x1e
 3714 0429 C2000000 		.4byte	0xc2
 3715 042d 01       		.byte	0x1
 3716 042e 05       		.byte	0x5
 3717 042f 03       		.byte	0x3
 3718 0430 00000000 		.4byte	standalone_selections
 3719 0434 19       		.uleb128 0x19
 3720 0435 28000000 		.4byte	.LASF52
 3721 0439 01       		.byte	0x1
 3722 043a 1F       		.byte	0x1f
 3723 043b C9000000 		.4byte	0xc9
 3724 043f 01       		.byte	0x1
 3725 0440 05       		.byte	0x5
 3726 0441 03       		.byte	0x3
 3727 0442 00000000 		.4byte	standalone_ii
 3728 0446 19       		.uleb128 0x19
 3729 0447 AE010000 		.4byte	.LASF53
 3730 044b 01       		.byte	0x1
 3731 044c 22       		.byte	0x22
 3732 044d C2000000 		.4byte	0xc2
 3733 0451 01       		.byte	0x1
ARM GAS  C:\Users\Mariano\AppData\Local\Temp\cco1kxoW.s 			page 85


 3734 0452 05       		.byte	0x5
 3735 0453 03       		.byte	0x3
 3736 0454 00000000 		.4byte	standalone_dimming_last_value
 3737 0458 19       		.uleb128 0x19
 3738 0459 0F040000 		.4byte	.LASF54
 3739 045d 01       		.byte	0x1
 3740 045e 23       		.byte	0x23
 3741 045f C2000000 		.4byte	0xc2
 3742 0463 01       		.byte	0x1
 3743 0464 05       		.byte	0x5
 3744 0465 03       		.byte	0x3
 3745 0466 00000000 		.4byte	standalone_dimming_last_slope
 3746 046a 19       		.uleb128 0x19
 3747 046b 18010000 		.4byte	.LASF55
 3748 046f 01       		.byte	0x1
 3749 0470 25       		.byte	0x25
 3750 0471 C2000000 		.4byte	0xc2
 3751 0475 01       		.byte	0x1
 3752 0476 05       		.byte	0x5
 3753 0477 03       		.byte	0x3
 3754 0478 00000000 		.4byte	standalone_menu_state
 3755 047c 19       		.uleb128 0x19
 3756 047d F5030000 		.4byte	.LASF56
 3757 0481 01       		.byte	0x1
 3758 0482 26       		.byte	0x26
 3759 0483 C2000000 		.4byte	0xc2
 3760 0487 01       		.byte	0x1
 3761 0488 05       		.byte	0x5
 3762 0489 03       		.byte	0x3
 3763 048a 00000000 		.4byte	standalone_show_conf
 3764 048e 19       		.uleb128 0x19
 3765 048f 65020000 		.4byte	.LASF57
 3766 0493 01       		.byte	0x1
 3767 0494 2A       		.byte	0x2a
 3768 0495 A0040000 		.4byte	0x4a0
 3769 0499 01       		.byte	0x1
 3770 049a 05       		.byte	0x5
 3771 049b 03       		.byte	0x3
 3772 049c 00000000 		.4byte	s_sel
 3773 04a0 0F       		.uleb128 0xf
 3774 04a1 49020000 		.4byte	0x249
 3775 04a5 19       		.uleb128 0x19
 3776 04a6 7E020000 		.4byte	.LASF58
 3777 04aa 01       		.byte	0x1
 3778 04ab 2C       		.byte	0x2c
 3779 04ac D0000000 		.4byte	0xd0
 3780 04b0 01       		.byte	0x1
 3781 04b1 05       		.byte	0x5
 3782 04b2 03       		.byte	0x3
 3783 04b3 00000000 		.4byte	StandAloneStruct_local
 3784 04b7 00       		.byte	0
 3785              		.section	.debug_abbrev,"",%progbits
 3786              	.Ldebug_abbrev0:
 3787 0000 01       		.uleb128 0x1
 3788 0001 11       		.uleb128 0x11
 3789 0002 01       		.byte	0x1
 3790 0003 25       		.uleb128 0x25
ARM GAS  C:\Users\Mariano\AppData\Local\Temp\cco1kxoW.s 			page 86


 3791 0004 0E       		.uleb128 0xe
 3792 0005 13       		.uleb128 0x13
 3793 0006 0B       		.uleb128 0xb
 3794 0007 03       		.uleb128 0x3
 3795 0008 0E       		.uleb128 0xe
 3796 0009 1B       		.uleb128 0x1b
 3797 000a 0E       		.uleb128 0xe
 3798 000b 55       		.uleb128 0x55
 3799 000c 06       		.uleb128 0x6
 3800 000d 11       		.uleb128 0x11
 3801 000e 01       		.uleb128 0x1
 3802 000f 52       		.uleb128 0x52
 3803 0010 01       		.uleb128 0x1
 3804 0011 10       		.uleb128 0x10
 3805 0012 06       		.uleb128 0x6
 3806 0013 00       		.byte	0
 3807 0014 00       		.byte	0
 3808 0015 02       		.uleb128 0x2
 3809 0016 13       		.uleb128 0x13
 3810 0017 01       		.byte	0x1
 3811 0018 03       		.uleb128 0x3
 3812 0019 0E       		.uleb128 0xe
 3813 001a 0B       		.uleb128 0xb
 3814 001b 0B       		.uleb128 0xb
 3815 001c 3A       		.uleb128 0x3a
 3816 001d 0B       		.uleb128 0xb
 3817 001e 3B       		.uleb128 0x3b
 3818 001f 0B       		.uleb128 0xb
 3819 0020 01       		.uleb128 0x1
 3820 0021 13       		.uleb128 0x13
 3821 0022 00       		.byte	0
 3822 0023 00       		.byte	0
 3823 0024 03       		.uleb128 0x3
 3824 0025 0D       		.uleb128 0xd
 3825 0026 00       		.byte	0
 3826 0027 03       		.uleb128 0x3
 3827 0028 0E       		.uleb128 0xe
 3828 0029 3A       		.uleb128 0x3a
 3829 002a 0B       		.uleb128 0xb
 3830 002b 3B       		.uleb128 0x3b
 3831 002c 0B       		.uleb128 0xb
 3832 002d 49       		.uleb128 0x49
 3833 002e 13       		.uleb128 0x13
 3834 002f 38       		.uleb128 0x38
 3835 0030 0A       		.uleb128 0xa
 3836 0031 00       		.byte	0
 3837 0032 00       		.byte	0
 3838 0033 04       		.uleb128 0x4
 3839 0034 24       		.uleb128 0x24
 3840 0035 00       		.byte	0
 3841 0036 0B       		.uleb128 0xb
 3842 0037 0B       		.uleb128 0xb
 3843 0038 3E       		.uleb128 0x3e
 3844 0039 0B       		.uleb128 0xb
 3845 003a 03       		.uleb128 0x3
 3846 003b 0E       		.uleb128 0xe
 3847 003c 00       		.byte	0
ARM GAS  C:\Users\Mariano\AppData\Local\Temp\cco1kxoW.s 			page 87


 3848 003d 00       		.byte	0
 3849 003e 05       		.uleb128 0x5
 3850 003f 16       		.uleb128 0x16
 3851 0040 00       		.byte	0
 3852 0041 03       		.uleb128 0x3
 3853 0042 0E       		.uleb128 0xe
 3854 0043 3A       		.uleb128 0x3a
 3855 0044 0B       		.uleb128 0xb
 3856 0045 3B       		.uleb128 0x3b
 3857 0046 0B       		.uleb128 0xb
 3858 0047 49       		.uleb128 0x49
 3859 0048 13       		.uleb128 0x13
 3860 0049 00       		.byte	0
 3861 004a 00       		.byte	0
 3862 004b 06       		.uleb128 0x6
 3863 004c 24       		.uleb128 0x24
 3864 004d 00       		.byte	0
 3865 004e 0B       		.uleb128 0xb
 3866 004f 0B       		.uleb128 0xb
 3867 0050 3E       		.uleb128 0x3e
 3868 0051 0B       		.uleb128 0xb
 3869 0052 03       		.uleb128 0x3
 3870 0053 08       		.uleb128 0x8
 3871 0054 00       		.byte	0
 3872 0055 00       		.byte	0
 3873 0056 07       		.uleb128 0x7
 3874 0057 35       		.uleb128 0x35
 3875 0058 00       		.byte	0
 3876 0059 49       		.uleb128 0x49
 3877 005a 13       		.uleb128 0x13
 3878 005b 00       		.byte	0
 3879 005c 00       		.byte	0
 3880 005d 08       		.uleb128 0x8
 3881 005e 01       		.uleb128 0x1
 3882 005f 01       		.byte	0x1
 3883 0060 49       		.uleb128 0x49
 3884 0061 13       		.uleb128 0x13
 3885 0062 01       		.uleb128 0x1
 3886 0063 13       		.uleb128 0x13
 3887 0064 00       		.byte	0
 3888 0065 00       		.byte	0
 3889 0066 09       		.uleb128 0x9
 3890 0067 21       		.uleb128 0x21
 3891 0068 00       		.byte	0
 3892 0069 49       		.uleb128 0x49
 3893 006a 13       		.uleb128 0x13
 3894 006b 2F       		.uleb128 0x2f
 3895 006c 0B       		.uleb128 0xb
 3896 006d 00       		.byte	0
 3897 006e 00       		.byte	0
 3898 006f 0A       		.uleb128 0xa
 3899 0070 13       		.uleb128 0x13
 3900 0071 01       		.byte	0x1
 3901 0072 0B       		.uleb128 0xb
 3902 0073 0B       		.uleb128 0xb
 3903 0074 3A       		.uleb128 0x3a
 3904 0075 0B       		.uleb128 0xb
ARM GAS  C:\Users\Mariano\AppData\Local\Temp\cco1kxoW.s 			page 88


 3905 0076 3B       		.uleb128 0x3b
 3906 0077 05       		.uleb128 0x5
 3907 0078 01       		.uleb128 0x1
 3908 0079 13       		.uleb128 0x13
 3909 007a 00       		.byte	0
 3910 007b 00       		.byte	0
 3911 007c 0B       		.uleb128 0xb
 3912 007d 0D       		.uleb128 0xd
 3913 007e 00       		.byte	0
 3914 007f 03       		.uleb128 0x3
 3915 0080 0E       		.uleb128 0xe
 3916 0081 3A       		.uleb128 0x3a
 3917 0082 0B       		.uleb128 0xb
 3918 0083 3B       		.uleb128 0x3b
 3919 0084 05       		.uleb128 0x5
 3920 0085 49       		.uleb128 0x49
 3921 0086 13       		.uleb128 0x13
 3922 0087 38       		.uleb128 0x38
 3923 0088 0A       		.uleb128 0xa
 3924 0089 00       		.byte	0
 3925 008a 00       		.byte	0
 3926 008b 0C       		.uleb128 0xc
 3927 008c 0D       		.uleb128 0xd
 3928 008d 00       		.byte	0
 3929 008e 03       		.uleb128 0x3
 3930 008f 08       		.uleb128 0x8
 3931 0090 3A       		.uleb128 0x3a
 3932 0091 0B       		.uleb128 0xb
 3933 0092 3B       		.uleb128 0x3b
 3934 0093 05       		.uleb128 0x5
 3935 0094 49       		.uleb128 0x49
 3936 0095 13       		.uleb128 0x13
 3937 0096 38       		.uleb128 0x38
 3938 0097 0A       		.uleb128 0xa
 3939 0098 00       		.byte	0
 3940 0099 00       		.byte	0
 3941 009a 0D       		.uleb128 0xd
 3942 009b 16       		.uleb128 0x16
 3943 009c 00       		.byte	0
 3944 009d 03       		.uleb128 0x3
 3945 009e 0E       		.uleb128 0xe
 3946 009f 3A       		.uleb128 0x3a
 3947 00a0 0B       		.uleb128 0xb
 3948 00a1 3B       		.uleb128 0x3b
 3949 00a2 05       		.uleb128 0x5
 3950 00a3 49       		.uleb128 0x49
 3951 00a4 13       		.uleb128 0x13
 3952 00a5 00       		.byte	0
 3953 00a6 00       		.byte	0
 3954 00a7 0E       		.uleb128 0xe
 3955 00a8 0F       		.uleb128 0xf
 3956 00a9 00       		.byte	0
 3957 00aa 0B       		.uleb128 0xb
 3958 00ab 0B       		.uleb128 0xb
 3959 00ac 49       		.uleb128 0x49
 3960 00ad 13       		.uleb128 0x13
 3961 00ae 00       		.byte	0
ARM GAS  C:\Users\Mariano\AppData\Local\Temp\cco1kxoW.s 			page 89


 3962 00af 00       		.byte	0
 3963 00b0 0F       		.uleb128 0xf
 3964 00b1 26       		.uleb128 0x26
 3965 00b2 00       		.byte	0
 3966 00b3 49       		.uleb128 0x49
 3967 00b4 13       		.uleb128 0x13
 3968 00b5 00       		.byte	0
 3969 00b6 00       		.byte	0
 3970 00b7 10       		.uleb128 0x10
 3971 00b8 2E       		.uleb128 0x2e
 3972 00b9 01       		.byte	0x1
 3973 00ba 3F       		.uleb128 0x3f
 3974 00bb 0C       		.uleb128 0xc
 3975 00bc 03       		.uleb128 0x3
 3976 00bd 0E       		.uleb128 0xe
 3977 00be 3A       		.uleb128 0x3a
 3978 00bf 0B       		.uleb128 0xb
 3979 00c0 3B       		.uleb128 0x3b
 3980 00c1 0B       		.uleb128 0xb
 3981 00c2 27       		.uleb128 0x27
 3982 00c3 0C       		.uleb128 0xc
 3983 00c4 49       		.uleb128 0x49
 3984 00c5 13       		.uleb128 0x13
 3985 00c6 11       		.uleb128 0x11
 3986 00c7 01       		.uleb128 0x1
 3987 00c8 12       		.uleb128 0x12
 3988 00c9 01       		.uleb128 0x1
 3989 00ca 40       		.uleb128 0x40
 3990 00cb 06       		.uleb128 0x6
 3991 00cc 9642     		.uleb128 0x2116
 3992 00ce 0C       		.uleb128 0xc
 3993 00cf 01       		.uleb128 0x1
 3994 00d0 13       		.uleb128 0x13
 3995 00d1 00       		.byte	0
 3996 00d2 00       		.byte	0
 3997 00d3 11       		.uleb128 0x11
 3998 00d4 34       		.uleb128 0x34
 3999 00d5 00       		.byte	0
 4000 00d6 03       		.uleb128 0x3
 4001 00d7 0E       		.uleb128 0xe
 4002 00d8 3A       		.uleb128 0x3a
 4003 00d9 0B       		.uleb128 0xb
 4004 00da 3B       		.uleb128 0x3b
 4005 00db 0B       		.uleb128 0xb
 4006 00dc 49       		.uleb128 0x49
 4007 00dd 13       		.uleb128 0x13
 4008 00de 02       		.uleb128 0x2
 4009 00df 0A       		.uleb128 0xa
 4010 00e0 00       		.byte	0
 4011 00e1 00       		.byte	0
 4012 00e2 12       		.uleb128 0x12
 4013 00e3 2E       		.uleb128 0x2e
 4014 00e4 01       		.byte	0x1
 4015 00e5 3F       		.uleb128 0x3f
 4016 00e6 0C       		.uleb128 0xc
 4017 00e7 03       		.uleb128 0x3
 4018 00e8 0E       		.uleb128 0xe
ARM GAS  C:\Users\Mariano\AppData\Local\Temp\cco1kxoW.s 			page 90


 4019 00e9 3A       		.uleb128 0x3a
 4020 00ea 0B       		.uleb128 0xb
 4021 00eb 3B       		.uleb128 0x3b
 4022 00ec 05       		.uleb128 0x5
 4023 00ed 27       		.uleb128 0x27
 4024 00ee 0C       		.uleb128 0xc
 4025 00ef 49       		.uleb128 0x49
 4026 00f0 13       		.uleb128 0x13
 4027 00f1 11       		.uleb128 0x11
 4028 00f2 01       		.uleb128 0x1
 4029 00f3 12       		.uleb128 0x12
 4030 00f4 01       		.uleb128 0x1
 4031 00f5 40       		.uleb128 0x40
 4032 00f6 06       		.uleb128 0x6
 4033 00f7 9642     		.uleb128 0x2116
 4034 00f9 0C       		.uleb128 0xc
 4035 00fa 01       		.uleb128 0x1
 4036 00fb 13       		.uleb128 0x13
 4037 00fc 00       		.byte	0
 4038 00fd 00       		.byte	0
 4039 00fe 13       		.uleb128 0x13
 4040 00ff 34       		.uleb128 0x34
 4041 0100 00       		.byte	0
 4042 0101 03       		.uleb128 0x3
 4043 0102 0E       		.uleb128 0xe
 4044 0103 3A       		.uleb128 0x3a
 4045 0104 0B       		.uleb128 0xb
 4046 0105 3B       		.uleb128 0x3b
 4047 0106 05       		.uleb128 0x5
 4048 0107 49       		.uleb128 0x49
 4049 0108 13       		.uleb128 0x13
 4050 0109 02       		.uleb128 0x2
 4051 010a 0A       		.uleb128 0xa
 4052 010b 00       		.byte	0
 4053 010c 00       		.byte	0
 4054 010d 14       		.uleb128 0x14
 4055 010e 0B       		.uleb128 0xb
 4056 010f 01       		.byte	0x1
 4057 0110 11       		.uleb128 0x11
 4058 0111 01       		.uleb128 0x1
 4059 0112 12       		.uleb128 0x12
 4060 0113 01       		.uleb128 0x1
 4061 0114 01       		.uleb128 0x1
 4062 0115 13       		.uleb128 0x13
 4063 0116 00       		.byte	0
 4064 0117 00       		.byte	0
 4065 0118 15       		.uleb128 0x15
 4066 0119 0B       		.uleb128 0xb
 4067 011a 01       		.byte	0x1
 4068 011b 11       		.uleb128 0x11
 4069 011c 01       		.uleb128 0x1
 4070 011d 12       		.uleb128 0x12
 4071 011e 01       		.uleb128 0x1
 4072 011f 00       		.byte	0
 4073 0120 00       		.byte	0
 4074 0121 16       		.uleb128 0x16
 4075 0122 2E       		.uleb128 0x2e
ARM GAS  C:\Users\Mariano\AppData\Local\Temp\cco1kxoW.s 			page 91


 4076 0123 00       		.byte	0
 4077 0124 3F       		.uleb128 0x3f
 4078 0125 0C       		.uleb128 0xc
 4079 0126 03       		.uleb128 0x3
 4080 0127 0E       		.uleb128 0xe
 4081 0128 3A       		.uleb128 0x3a
 4082 0129 0B       		.uleb128 0xb
 4083 012a 3B       		.uleb128 0x3b
 4084 012b 05       		.uleb128 0x5
 4085 012c 27       		.uleb128 0x27
 4086 012d 0C       		.uleb128 0xc
 4087 012e 11       		.uleb128 0x11
 4088 012f 01       		.uleb128 0x1
 4089 0130 12       		.uleb128 0x12
 4090 0131 01       		.uleb128 0x1
 4091 0132 40       		.uleb128 0x40
 4092 0133 0A       		.uleb128 0xa
 4093 0134 9742     		.uleb128 0x2117
 4094 0136 0C       		.uleb128 0xc
 4095 0137 00       		.byte	0
 4096 0138 00       		.byte	0
 4097 0139 17       		.uleb128 0x17
 4098 013a 34       		.uleb128 0x34
 4099 013b 00       		.byte	0
 4100 013c 03       		.uleb128 0x3
 4101 013d 0E       		.uleb128 0xe
 4102 013e 3A       		.uleb128 0x3a
 4103 013f 0B       		.uleb128 0xb
 4104 0140 3B       		.uleb128 0x3b
 4105 0141 0B       		.uleb128 0xb
 4106 0142 49       		.uleb128 0x49
 4107 0143 13       		.uleb128 0x13
 4108 0144 3F       		.uleb128 0x3f
 4109 0145 0C       		.uleb128 0xc
 4110 0146 3C       		.uleb128 0x3c
 4111 0147 0C       		.uleb128 0xc
 4112 0148 00       		.byte	0
 4113 0149 00       		.byte	0
 4114 014a 18       		.uleb128 0x18
 4115 014b 21       		.uleb128 0x21
 4116 014c 00       		.byte	0
 4117 014d 00       		.byte	0
 4118 014e 00       		.byte	0
 4119 014f 19       		.uleb128 0x19
 4120 0150 34       		.uleb128 0x34
 4121 0151 00       		.byte	0
 4122 0152 03       		.uleb128 0x3
 4123 0153 0E       		.uleb128 0xe
 4124 0154 3A       		.uleb128 0x3a
 4125 0155 0B       		.uleb128 0xb
 4126 0156 3B       		.uleb128 0x3b
 4127 0157 0B       		.uleb128 0xb
 4128 0158 49       		.uleb128 0x49
 4129 0159 13       		.uleb128 0x13
 4130 015a 3F       		.uleb128 0x3f
 4131 015b 0C       		.uleb128 0xc
 4132 015c 02       		.uleb128 0x2
ARM GAS  C:\Users\Mariano\AppData\Local\Temp\cco1kxoW.s 			page 92


 4133 015d 0A       		.uleb128 0xa
 4134 015e 00       		.byte	0
 4135 015f 00       		.byte	0
 4136 0160 00       		.byte	0
 4137              		.section	.debug_loc,"",%progbits
 4138              	.Ldebug_loc0:
 4139              	.LLST0:
 4140 0000 00000000 		.4byte	.LFB20
 4141 0004 02000000 		.4byte	.LCFI0
 4142 0008 0200     		.2byte	0x2
 4143 000a 7D       		.byte	0x7d
 4144 000b 00       		.sleb128 0
 4145 000c 02000000 		.4byte	.LCFI0
 4146 0010 04000000 		.4byte	.LCFI1
 4147 0014 0200     		.2byte	0x2
 4148 0016 7D       		.byte	0x7d
 4149 0017 08       		.sleb128 8
 4150 0018 04000000 		.4byte	.LCFI1
 4151 001c 80060000 		.4byte	.LFE20
 4152 0020 0200     		.2byte	0x2
 4153 0022 7D       		.byte	0x7d
 4154 0023 10       		.sleb128 16
 4155 0024 00000000 		.4byte	0
 4156 0028 00000000 		.4byte	0
 4157              	.LLST1:
 4158 002c 00000000 		.4byte	.LFB21
 4159 0030 02000000 		.4byte	.LCFI2
 4160 0034 0200     		.2byte	0x2
 4161 0036 7D       		.byte	0x7d
 4162 0037 00       		.sleb128 0
 4163 0038 02000000 		.4byte	.LCFI2
 4164 003c 04000000 		.4byte	.LCFI3
 4165 0040 0200     		.2byte	0x2
 4166 0042 7D       		.byte	0x7d
 4167 0043 08       		.sleb128 8
 4168 0044 04000000 		.4byte	.LCFI3
 4169 0048 EC070000 		.4byte	.LFE21
 4170 004c 0200     		.2byte	0x2
 4171 004e 7D       		.byte	0x7d
 4172 004f 18       		.sleb128 24
 4173 0050 00000000 		.4byte	0
 4174 0054 00000000 		.4byte	0
 4175              	.LLST2:
 4176 0058 00000000 		.4byte	.LFB22
 4177 005c 02000000 		.4byte	.LCFI4
 4178 0060 0200     		.2byte	0x2
 4179 0062 7D       		.byte	0x7d
 4180 0063 00       		.sleb128 0
 4181 0064 02000000 		.4byte	.LCFI4
 4182 0068 04000000 		.4byte	.LCFI5
 4183 006c 0200     		.2byte	0x2
 4184 006e 7D       		.byte	0x7d
 4185 006f 08       		.sleb128 8
 4186 0070 04000000 		.4byte	.LCFI5
 4187 0074 30030000 		.4byte	.LFE22
 4188 0078 0200     		.2byte	0x2
 4189 007a 7D       		.byte	0x7d
ARM GAS  C:\Users\Mariano\AppData\Local\Temp\cco1kxoW.s 			page 93


 4190 007b 20       		.sleb128 32
 4191 007c 00000000 		.4byte	0
 4192 0080 00000000 		.4byte	0
 4193              		.section	.debug_aranges,"",%progbits
 4194 0000 4C000000 		.4byte	0x4c
 4195 0004 0200     		.2byte	0x2
 4196 0006 00000000 		.4byte	.Ldebug_info0
 4197 000a 04       		.byte	0x4
 4198 000b 00       		.byte	0
 4199 000c 0000     		.2byte	0
 4200 000e 0000     		.2byte	0
 4201 0010 00000000 		.4byte	.LFB20
 4202 0014 80060000 		.4byte	.LFE20-.LFB20
 4203 0018 00000000 		.4byte	.LFB21
 4204 001c EC070000 		.4byte	.LFE21-.LFB21
 4205 0020 00000000 		.4byte	.LFB22
 4206 0024 30030000 		.4byte	.LFE22-.LFB22
 4207 0028 00000000 		.4byte	.LFB23
 4208 002c 0C000000 		.4byte	.LFE23-.LFB23
 4209 0030 00000000 		.4byte	.LFB24
 4210 0034 0C000000 		.4byte	.LFE24-.LFB24
 4211 0038 00000000 		.4byte	.LFB25
 4212 003c 0C000000 		.4byte	.LFE25-.LFB25
 4213 0040 00000000 		.4byte	.LFB26
 4214 0044 0C000000 		.4byte	.LFE26-.LFB26
 4215 0048 00000000 		.4byte	0
 4216 004c 00000000 		.4byte	0
 4217              		.section	.debug_ranges,"",%progbits
 4218              	.Ldebug_ranges0:
 4219 0000 00000000 		.4byte	.LFB20
 4220 0004 80060000 		.4byte	.LFE20
 4221 0008 00000000 		.4byte	.LFB21
 4222 000c EC070000 		.4byte	.LFE21
 4223 0010 00000000 		.4byte	.LFB22
 4224 0014 30030000 		.4byte	.LFE22
 4225 0018 00000000 		.4byte	.LFB23
 4226 001c 0C000000 		.4byte	.LFE23
 4227 0020 00000000 		.4byte	.LFB24
 4228 0024 0C000000 		.4byte	.LFE24
 4229 0028 00000000 		.4byte	.LFB25
 4230 002c 0C000000 		.4byte	.LFE25
 4231 0030 00000000 		.4byte	.LFB26
 4232 0034 0C000000 		.4byte	.LFE26
 4233 0038 00000000 		.4byte	0
 4234 003c 00000000 		.4byte	0
 4235              		.section	.debug_line,"",%progbits
 4236              	.Ldebug_line0:
 4237 0000 AC030000 		.section	.debug_str,"MS",%progbits,1
 4237      0200DF00 
 4237      00000201 
 4237      FB0E0D00 
 4237      01010101 
 4238              	.LASF33:
 4239 0000 4750494F 		.ascii	"GPIO_TypeDef\000"
 4239      5F547970 
 4239      65446566 
 4239      00
ARM GAS  C:\Users\Mariano\AppData\Local\Temp\cco1kxoW.s 			page 94


 4240              	.LASF45:
 4241 000d 53686F77 		.ascii	"ShowConfStandAloneResetEnd\000"
 4241      436F6E66 
 4241      5374616E 
 4241      64416C6F 
 4241      6E655265 
 4242              	.LASF52:
 4243 0028 7374616E 		.ascii	"standalone_ii\000"
 4243      64616C6F 
 4243      6E655F69 
 4243      6900
 4244              	.LASF43:
 4245 0036 4D656E75 		.ascii	"MenuStandAloneReset\000"
 4245      5374616E 
 4245      64416C6F 
 4245      6E655265 
 4245      73657400 
 4246              	.LASF3:
 4247 004a 6D61785F 		.ascii	"max_dimmer_value_percent\000"
 4247      64696D6D 
 4247      65725F76 
 4247      616C7565 
 4247      5F706572 
 4248              	.LASF13:
 4249 0063 73686F72 		.ascii	"short int\000"
 4249      7420696E 
 4249      7400
 4250              	.LASF22:
 4251 006d 73697A65 		.ascii	"sizetype\000"
 4251      74797065 
 4251      00
 4252              	.LASF7:
 4253 0076 706F7765 		.ascii	"power_up_timer_value\000"
 4253      725F7570 
 4253      5F74696D 
 4253      65725F76 
 4253      616C7565 
 4254              	.LASF35:
 4255 008b 72657370 		.ascii	"resp\000"
 4255      00
 4256              	.LASF59:
 4257 0090 474E5520 		.ascii	"GNU C 4.7.4 20130613 (release) [ARM/embedded-4_7-br"
 4257      4320342E 
 4257      372E3420 
 4257      32303133 
 4257      30363133 
 4258 00c3 616E6368 		.ascii	"anch revision 200083]\000"
 4258      20726576 
 4258      6973696F 
 4258      6E203230 
 4258      30303833 
 4259              	.LASF2:
 4260 00d9 6C64725F 		.ascii	"ldr_value\000"
 4260      76616C75 
 4260      6500
 4261              	.LASF44:
 4262 00e3 53686F77 		.ascii	"ShowConfStandAloneReset\000"
ARM GAS  C:\Users\Mariano\AppData\Local\Temp\cco1kxoW.s 			page 95


 4262      436F6E66 
 4262      5374616E 
 4262      64416C6F 
 4262      6E655265 
 4263              	.LASF32:
 4264 00fb 52455345 		.ascii	"RESERVED3\000"
 4264      52564544 
 4264      3300
 4265              	.LASF14:
 4266 0105 5374616E 		.ascii	"StandAlone_Typedef\000"
 4266      64416C6F 
 4266      6E655F54 
 4266      79706564 
 4266      656600
 4267              	.LASF55:
 4268 0118 7374616E 		.ascii	"standalone_menu_state\000"
 4268      64616C6F 
 4268      6E655F6D 
 4268      656E755F 
 4268      73746174 
 4269              	.LASF24:
 4270 012e 4F545950 		.ascii	"OTYPER\000"
 4270      455200
 4271              	.LASF12:
 4272 0135 7369676E 		.ascii	"signed char\000"
 4272      65642063 
 4272      68617200 
 4273              	.LASF19:
 4274 0141 6C6F6E67 		.ascii	"long long int\000"
 4274      206C6F6E 
 4274      6720696E 
 4274      7400
 4275              	.LASF47:
 4276 014f 7374616E 		.ascii	"standalone_enable_menu_timer\000"
 4276      64616C6F 
 4276      6E655F65 
 4276      6E61626C 
 4276      655F6D65 
 4277              	.LASF37:
 4278 016c 46756E63 		.ascii	"FuncStandAlone\000"
 4278      5374616E 
 4278      64416C6F 
 4278      6E6500
 4279              	.LASF27:
 4280 017b 50555044 		.ascii	"PUPDR\000"
 4280      5200
 4281              	.LASF16:
 4282 0181 6C6F6E67 		.ascii	"long int\000"
 4282      20696E74 
 4282      00
 4283              	.LASF5:
 4284 018a 6D696E5F 		.ascii	"min_dimmer_value_percent\000"
 4284      64696D6D 
 4284      65725F76 
 4284      616C7565 
 4284      5F706572 
 4285              	.LASF30:
ARM GAS  C:\Users\Mariano\AppData\Local\Temp\cco1kxoW.s 			page 96


 4286 01a3 42535252 		.ascii	"BSRR\000"
 4286      00
 4287              	.LASF9:
 4288 01a8 64756D6D 		.ascii	"dummy\000"
 4288      7900
 4289              	.LASF53:
 4290 01ae 7374616E 		.ascii	"standalone_dimming_last_value\000"
 4290      64616C6F 
 4290      6E655F64 
 4290      696D6D69 
 4290      6E675F6C 
 4291              	.LASF41:
 4292 01cc 735F6375 		.ascii	"s_current\000"
 4292      7272656E 
 4292      7400
 4293              	.LASF48:
 4294 01d6 735F626C 		.ascii	"s_blank_line\000"
 4294      616E6B5F 
 4294      6C696E65 
 4294      00
 4295              	.LASF10:
 4296 01e3 756E7369 		.ascii	"unsigned char\000"
 4296      676E6564 
 4296      20636861 
 4296      7200
 4297              	.LASF60:
 4298 01f1 2E5C7372 		.ascii	".\\src\\standalone.c\000"
 4298      635C7374 
 4298      616E6461 
 4298      6C6F6E65 
 4298      2E6300
 4299              	.LASF20:
 4300 0204 6C6F6E67 		.ascii	"long long unsigned int\000"
 4300      206C6F6E 
 4300      6720756E 
 4300      7369676E 
 4300      65642069 
 4301              	.LASF17:
 4302 021b 75696E74 		.ascii	"uint32_t\000"
 4302      33325F74 
 4302      00
 4303              	.LASF39:
 4304 0224 6C6F6361 		.ascii	"local\000"
 4304      6C00
 4305              	.LASF21:
 4306 022a 756E7369 		.ascii	"unsigned int\000"
 4306      676E6564 
 4306      20696E74 
 4306      00
 4307              	.LASF15:
 4308 0237 75696E74 		.ascii	"uint16_t\000"
 4308      31365F74 
 4308      00
 4309              	.LASF18:
 4310 0240 6C6F6E67 		.ascii	"long unsigned int\000"
 4310      20756E73 
 4310      69676E65 
ARM GAS  C:\Users\Mariano\AppData\Local\Temp\cco1kxoW.s 			page 97


 4310      6420696E 
 4310      7400
 4311              	.LASF0:
 4312 0252 6D6F7665 		.ascii	"move_sensor_enable\000"
 4312      5F73656E 
 4312      736F725F 
 4312      656E6162 
 4312      6C6500
 4313              	.LASF57:
 4314 0265 735F7365 		.ascii	"s_sel\000"
 4314      6C00
 4315              	.LASF11:
 4316 026b 73686F72 		.ascii	"short unsigned int\000"
 4316      7420756E 
 4316      7369676E 
 4316      65642069 
 4316      6E7400
 4317              	.LASF58:
 4318 027e 5374616E 		.ascii	"StandAloneStruct_local\000"
 4318      64416C6F 
 4318      6E655374 
 4318      72756374 
 4318      5F6C6F63 
 4319              	.LASF34:
 4320 0295 63686172 		.ascii	"char\000"
 4320      00
 4321              	.LASF36:
 4322 029a 72657370 		.ascii	"resp_down\000"
 4322      5F646F77 
 4322      6E00
 4323              	.LASF49:
 4324 02a4 5374616E 		.ascii	"StandAloneStruct_constant\000"
 4324      64416C6F 
 4324      6E655374 
 4324      72756374 
 4324      5F636F6E 
 4325              	.LASF50:
 4326 02be 7374616E 		.ascii	"standalone_state\000"
 4326      64616C6F 
 4326      6E655F73 
 4326      74617465 
 4326      00
 4327              	.LASF23:
 4328 02cf 4D4F4445 		.ascii	"MODER\000"
 4328      5200
 4329              	.LASF4:
 4330 02d5 6D61785F 		.ascii	"max_dimmer_value_dmx\000"
 4330      64696D6D 
 4330      65725F76 
 4330      616C7565 
 4330      5F646D78 
 4331              	.LASF25:
 4332 02ea 52455345 		.ascii	"RESERVED0\000"
 4332      52564544 
 4332      3000
 4333              	.LASF28:
 4334 02f4 52455345 		.ascii	"RESERVED1\000"
ARM GAS  C:\Users\Mariano\AppData\Local\Temp\cco1kxoW.s 			page 98


 4334      52564544 
 4334      3100
 4335              	.LASF29:
 4336 02fe 52455345 		.ascii	"RESERVED2\000"
 4336      52564544 
 4336      3200
 4337              	.LASF26:
 4338 0308 4F535045 		.ascii	"OSPEEDR\000"
 4338      45445200 
 4339              	.LASF8:
 4340 0310 64696D6D 		.ascii	"dimming_up_timer_value\000"
 4340      696E675F 
 4340      75705F74 
 4340      696D6572 
 4340      5F76616C 
 4341              	.LASF51:
 4342 0327 7374616E 		.ascii	"standalone_selections\000"
 4342      64616C6F 
 4342      6E655F73 
 4342      656C6563 
 4342      74696F6E 
 4343              	.LASF62:
 4344 033d 5374616E 		.ascii	"StandAlone\000"
 4344      64416C6F 
 4344      6E6500
 4345              	.LASF46:
 4346 0348 7374616E 		.ascii	"standalone_timer\000"
 4346      64616C6F 
 4346      6E655F74 
 4346      696D6572 
 4346      00
 4347              	.LASF38:
 4348 0359 4D656E75 		.ascii	"MenuStandAlone\000"
 4348      5374616E 
 4348      64416C6F 
 4348      6E6500
 4349              	.LASF1:
 4350 0368 6C64725F 		.ascii	"ldr_enable\000"
 4350      656E6162 
 4350      6C6500
 4351              	.LASF42:
 4352 0373 46756E63 		.ascii	"FuncStandAloneReset\000"
 4352      5374616E 
 4352      64416C6F 
 4352      6E655265 
 4352      73657400 
 4353              	.LASF40:
 4354 0387 53686F77 		.ascii	"ShowConfStandAlone\000"
 4354      436F6E66 
 4354      5374616E 
 4354      64416C6F 
 4354      6E6500
 4355              	.LASF6:
 4356 039a 6D696E5F 		.ascii	"min_dimmer_value_dmx\000"
 4356      64696D6D 
 4356      65725F76 
 4356      616C7565 
ARM GAS  C:\Users\Mariano\AppData\Local\Temp\cco1kxoW.s 			page 99


 4356      5F646D78 
 4357              	.LASF61:
 4358 03af 433A5C55 		.ascii	"C:\\Users\\Mariano\\Documents\\Proyectos\\eclipse_s"
 4358      73657273 
 4358      5C4D6172 
 4358      69616E6F 
 4358      5C446F63 
 4359 03dd 746D3332 		.ascii	"tm32\\Planolux_DMX512_P1\000"
 4359      5C506C61 
 4359      6E6F6C75 
 4359      785F444D 
 4359      58353132 
 4360              	.LASF56:
 4361 03f5 7374616E 		.ascii	"standalone_show_conf\000"
 4361      64616C6F 
 4361      6E655F73 
 4361      686F775F 
 4361      636F6E66 
 4362              	.LASF31:
 4363 040a 4C434B52 		.ascii	"LCKR\000"
 4363      00
 4364              	.LASF54:
 4365 040f 7374616E 		.ascii	"standalone_dimming_last_slope\000"
 4365      64616C6F 
 4365      6E655F64 
 4365      696D6D69 
 4365      6E675F6C 
 4366              		.ident	"GCC: (GNU Tools for ARM Embedded Processors) 4.7.4 20130613 (release) [ARM/embedded-4_7-br
ARM GAS  C:\Users\Mariano\AppData\Local\Temp\cco1kxoW.s 			page 100


DEFINED SYMBOLS
                            *ABS*:00000000 standalone.c
C:\Users\Mariano\AppData\Local\Temp\cco1kxoW.s:54     .bss.standalone_state:00000000 standalone_state
C:\Users\Mariano\AppData\Local\Temp\cco1kxoW.s:55     .bss.standalone_state:00000000 $d
C:\Users\Mariano\AppData\Local\Temp\cco1kxoW.s:60     .bss.standalone_selections:00000000 standalone_selections
C:\Users\Mariano\AppData\Local\Temp\cco1kxoW.s:61     .bss.standalone_selections:00000000 $d
C:\Users\Mariano\AppData\Local\Temp\cco1kxoW.s:67     .bss.standalone_ii:00000000 standalone_ii
C:\Users\Mariano\AppData\Local\Temp\cco1kxoW.s:64     .bss.standalone_ii:00000000 $d
C:\Users\Mariano\AppData\Local\Temp\cco1kxoW.s:73     .bss.standalone_dimming_last_value:00000000 standalone_dimming_last_value
C:\Users\Mariano\AppData\Local\Temp\cco1kxoW.s:74     .bss.standalone_dimming_last_value:00000000 $d
C:\Users\Mariano\AppData\Local\Temp\cco1kxoW.s:79     .bss.standalone_dimming_last_slope:00000000 standalone_dimming_last_slope
C:\Users\Mariano\AppData\Local\Temp\cco1kxoW.s:80     .bss.standalone_dimming_last_slope:00000000 $d
C:\Users\Mariano\AppData\Local\Temp\cco1kxoW.s:85     .bss.standalone_menu_state:00000000 standalone_menu_state
C:\Users\Mariano\AppData\Local\Temp\cco1kxoW.s:86     .bss.standalone_menu_state:00000000 $d
C:\Users\Mariano\AppData\Local\Temp\cco1kxoW.s:91     .bss.standalone_show_conf:00000000 standalone_show_conf
C:\Users\Mariano\AppData\Local\Temp\cco1kxoW.s:92     .bss.standalone_show_conf:00000000 $d
C:\Users\Mariano\AppData\Local\Temp\cco1kxoW.s:98     .rodata.s_sel:00000000 s_sel
C:\Users\Mariano\AppData\Local\Temp\cco1kxoW.s:95     .rodata.s_sel:00000000 $d
                            *COM*:0000000e StandAloneStruct_local
C:\Users\Mariano\AppData\Local\Temp\cco1kxoW.s:104    .rodata:00000000 $d
C:\Users\Mariano\AppData\Local\Temp\cco1kxoW.s:129    .text.FuncStandAlone:00000000 $t
C:\Users\Mariano\AppData\Local\Temp\cco1kxoW.s:134    .text.FuncStandAlone:00000000 FuncStandAlone
C:\Users\Mariano\AppData\Local\Temp\cco1kxoW.s:170    .rodata.FuncStandAlone:00000000 $d
C:\Users\Mariano\AppData\Local\Temp\cco1kxoW.s:3099   .text.MenuStandAloneReset:00000000 MenuStandAloneReset
C:\Users\Mariano\AppData\Local\Temp\cco1kxoW.s:2594   .text.ShowConfStandAlone:00000000 ShowConfStandAlone
C:\Users\Mariano\AppData\Local\Temp\cco1kxoW.s:696    .text.FuncStandAlone:00000328 $d
C:\Users\Mariano\AppData\Local\Temp\cco1kxoW.s:714    .text.FuncStandAlone:00000368 $t
C:\Users\Mariano\AppData\Local\Temp\cco1kxoW.s:1262   .text.MenuStandAlone:00000000 MenuStandAlone
C:\Users\Mariano\AppData\Local\Temp\cco1kxoW.s:3147   .text.ShowConfStandAloneResetEnd:00000000 ShowConfStandAloneResetEnd
C:\Users\Mariano\AppData\Local\Temp\cco1kxoW.s:1210   .text.FuncStandAlone:00000648 $d
C:\Users\Mariano\AppData\Local\Temp\cco1kxoW.s:1257   .text.MenuStandAlone:00000000 $t
C:\Users\Mariano\AppData\Local\Temp\cco1kxoW.s:1302   .rodata.MenuStandAlone:00000000 $d
C:\Users\Mariano\AppData\Local\Temp\cco1kxoW.s:1845   .text.MenuStandAlone:00000354 $d
C:\Users\Mariano\AppData\Local\Temp\cco1kxoW.s:1862   .text.MenuStandAlone:00000390 $t
C:\Users\Mariano\AppData\Local\Temp\cco1kxoW.s:2379   .text.MenuStandAlone:000006dc $d
C:\Users\Mariano\AppData\Local\Temp\cco1kxoW.s:2392   .text.MenuStandAlone:00000708 $t
C:\Users\Mariano\AppData\Local\Temp\cco1kxoW.s:2548   .text.MenuStandAlone:000007e0 $d
C:\Users\Mariano\AppData\Local\Temp\cco1kxoW.s:2589   .text.ShowConfStandAlone:00000000 $t
C:\Users\Mariano\AppData\Local\Temp\cco1kxoW.s:2629   .rodata.ShowConfStandAlone:00000000 $d
C:\Users\Mariano\AppData\Local\Temp\cco1kxoW.s:3052   .text.ShowConfStandAlone:000002f8 $d
C:\Users\Mariano\AppData\Local\Temp\cco1kxoW.s:3070   .text.FuncStandAloneReset:00000000 $t
C:\Users\Mariano\AppData\Local\Temp\cco1kxoW.s:3075   .text.FuncStandAloneReset:00000000 FuncStandAloneReset
C:\Users\Mariano\AppData\Local\Temp\cco1kxoW.s:3089   .text.FuncStandAloneReset:00000008 $d
C:\Users\Mariano\AppData\Local\Temp\cco1kxoW.s:3094   .text.MenuStandAloneReset:00000000 $t
C:\Users\Mariano\AppData\Local\Temp\cco1kxoW.s:3113   .text.MenuStandAloneReset:00000008 $d
C:\Users\Mariano\AppData\Local\Temp\cco1kxoW.s:3118   .text.ShowConfStandAloneReset:00000000 $t
C:\Users\Mariano\AppData\Local\Temp\cco1kxoW.s:3123   .text.ShowConfStandAloneReset:00000000 ShowConfStandAloneReset
C:\Users\Mariano\AppData\Local\Temp\cco1kxoW.s:3137   .text.ShowConfStandAloneReset:00000008 $d
C:\Users\Mariano\AppData\Local\Temp\cco1kxoW.s:3142   .text.ShowConfStandAloneResetEnd:00000000 $t
C:\Users\Mariano\AppData\Local\Temp\cco1kxoW.s:3161   .text.ShowConfStandAloneResetEnd:00000008 $d
                     .debug_frame:00000010 $d

UNDEFINED SYMBOLS
memcpy
EXTIOff
CheckACSw
Lcd_SetDDRAM
ARM GAS  C:\Users\Mariano\AppData\Local\Temp\cco1kxoW.s 			page 101


LCDTransmitStr
Update_TIM3_CH1
standalone_timer
standalone_enable_menu_timer
StandAloneStruct_constant
FuncShowBlink
CheckS1
CheckS2
FuncOptionsReset
FuncShowSelectv2Reset
FuncChangeReset
s_blank_line
__aeabi_uidiv
FuncShowSelectv2
FuncOptions
FuncChange
FuncScroll2
memset
sprintf
strlen
