ARM GAS  C:\Users\Mariano\AppData\Local\Temp\ccAk74Yw.s 			page 1


   1              		.cpu cortex-m0
   2              		.fpu softvfp
   3              		.eabi_attribute 20, 1	@ Tag_ABI_FP_denormal
   4              		.eabi_attribute 21, 1	@ Tag_ABI_FP_exceptions
   5              		.eabi_attribute 23, 3	@ Tag_ABI_FP_number_model
   6              		.eabi_attribute 24, 1	@ Tag_ABI_align8_needed
   7              		.eabi_attribute 25, 1	@ Tag_ABI_align8_preserved
   8              		.eabi_attribute 26, 1	@ Tag_ABI_enum_size
   9              		.eabi_attribute 30, 6	@ Tag_ABI_optimization_goals
  10              		.eabi_attribute 34, 0	@ Tag_CPU_unaligned_access
  11              		.eabi_attribute 18, 4	@ Tag_ABI_PCS_wchar_t
  12              		.file	"stm32f0x_gpio.c"
  13              	@ GNU C (GNU Tools for ARM Embedded Processors) version 4.7.4 20130613 (release) [ARM/embedded-4_7-
  14              	@	compiled by GNU C version 4.2.1-sjlj (mingw32-2), GMP version 4.3.2, MPFR version 2.4.2, MPC vers
  15              	@ GGC heuristics: --param ggc-min-expand=100 --param ggc-min-heapsize=131072
  16              	@ options passed:  -I . -I .\src -I .\cmsis_boot -I .\cmsis_core
  17              	@ -I ..\STM32F0xx_StdPeriph_Lib_V1.3.1\Libraries\STM32F0xx_StdPeriph_Driver\inc
  18              	@ -I .\inc -I .\cmsis_boot -imultilib armv6-m
  19              	@ -iprefix c:\program files (x86)\gnu tools arm embedded\4.7 2013q2\bin\../lib/gcc/arm-none-eabi/4.
  20              	@ -isysroot c:\program files (x86)\gnu tools arm embedded\4.7 2013q2\bin\../arm-none-eabi
  21              	@ -MD .\src\stm32f0x_gpio.d -MF .dep\stm32f0x_gpio.o.d -MP
  22              	@ -MQ .\src\stm32f0x_gpio.o -D__USES_INITFINI__ -D RUN_FROM_FLASH=1
  23              	@ .\src\stm32f0x_gpio.c -mcpu=cortex-m0 -mthumb
  24              	@ -auxbase-strip .\src\stm32f0x_gpio.o -g -gdwarf-2 -O0 -Wall
  25              	@ -fomit-frame-pointer -fdata-sections -ffunction-sections -fverbose-asm
  26              	@ options enabled:  -fauto-inc-dec -fbranch-count-reg -fcommon
  27              	@ -fdata-sections -fdebug-types-section -fdelete-null-pointer-checks
  28              	@ -fdwarf2-cfi-asm -fearly-inlining -feliminate-unused-debug-types
  29              	@ -ffunction-cse -ffunction-sections -fgcse-lm -fgnu-runtime -fident
  30              	@ -finline-atomics -fira-hoist-pressure -fira-share-save-slots
  31              	@ -fira-share-spill-slots -fivopts -fkeep-static-consts
  32              	@ -fleading-underscore -fmath-errno -fmerge-debug-strings
  33              	@ -fmove-loop-invariants -fomit-frame-pointer -fpeephole
  34              	@ -fprefetch-loop-arrays -freg-struct-return
  35              	@ -fsched-critical-path-heuristic -fsched-dep-count-heuristic
  36              	@ -fsched-group-heuristic -fsched-interblock -fsched-last-insn-heuristic
  37              	@ -fsched-rank-heuristic -fsched-spec -fsched-spec-insn-heuristic
  38              	@ -fsched-stalled-insns-dep -fshow-column -fsigned-zeros
  39              	@ -fsplit-ivs-in-unroller -fstrict-volatile-bitfields -ftrapping-math
  40              	@ -ftree-cselim -ftree-forwprop -ftree-loop-if-convert -ftree-loop-im
  41              	@ -ftree-loop-ivcanon -ftree-loop-optimize -ftree-parallelize-loops=
  42              	@ -ftree-phiprop -ftree-pta -ftree-reassoc -ftree-scev-cprop
  43              	@ -ftree-slp-vectorize -ftree-vect-loop-version -funit-at-a-time
  44              	@ -fverbose-asm -fzero-initialized-in-bss -mlittle-endian -msched-prolog
  45              	@ -mthumb -mvectorize-with-neon-quad
  46              	
  47              		.text
  48              	.Ltext0:
  49              		.cfi_sections	.debug_frame
  50              		.section	.text.NVIC_EnableIRQ,"ax",%progbits
  51              		.align	2
  52              		.code	16
  53              		.thumb_func
  54              		.type	NVIC_EnableIRQ, %function
  55              	NVIC_EnableIRQ:
  56              	.LFB11:
  57              		.file 1 ".\\cmsis_core/core_cm0.h"
ARM GAS  C:\Users\Mariano\AppData\Local\Temp\ccAk74Yw.s 			page 2


   1:.\cmsis_core/core_cm0.h **** /**************************************************************************//**
   2:.\cmsis_core/core_cm0.h ****  * @file     core_cm0.h
   3:.\cmsis_core/core_cm0.h ****  * @brief    CMSIS Cortex-M0 Core Peripheral Access Layer Header File
   4:.\cmsis_core/core_cm0.h ****  * @version  V1.30
   5:.\cmsis_core/core_cm0.h ****  * @date     30. October 2009
   6:.\cmsis_core/core_cm0.h ****  *
   7:.\cmsis_core/core_cm0.h ****  * @note
   8:.\cmsis_core/core_cm0.h ****  * Copyright (C) 2009 ARM Limited. All rights reserved.
   9:.\cmsis_core/core_cm0.h ****  *
  10:.\cmsis_core/core_cm0.h ****  * @par
  11:.\cmsis_core/core_cm0.h ****  * ARM Limited (ARM) is supplying this software for use with Cortex-M 
  12:.\cmsis_core/core_cm0.h ****  * processor based microcontrollers.  This file can be freely distributed 
  13:.\cmsis_core/core_cm0.h ****  * within development tools that are supporting such ARM based processors. 
  14:.\cmsis_core/core_cm0.h ****  *
  15:.\cmsis_core/core_cm0.h ****  * @par
  16:.\cmsis_core/core_cm0.h ****  * THIS SOFTWARE IS PROVIDED "AS IS".  NO WARRANTIES, WHETHER EXPRESS, IMPLIED
  17:.\cmsis_core/core_cm0.h ****  * OR STATUTORY, INCLUDING, BUT NOT LIMITED TO, IMPLIED WARRANTIES OF
  18:.\cmsis_core/core_cm0.h ****  * MERCHANTABILITY AND FITNESS FOR A PARTICULAR PURPOSE APPLY TO THIS SOFTWARE.
  19:.\cmsis_core/core_cm0.h ****  * ARM SHALL NOT, IN ANY CIRCUMSTANCES, BE LIABLE FOR SPECIAL, INCIDENTAL, OR
  20:.\cmsis_core/core_cm0.h ****  * CONSEQUENTIAL DAMAGES, FOR ANY REASON WHATSOEVER.
  21:.\cmsis_core/core_cm0.h ****  *
  22:.\cmsis_core/core_cm0.h ****  ******************************************************************************/
  23:.\cmsis_core/core_cm0.h **** 
  24:.\cmsis_core/core_cm0.h **** #ifndef __CM0_CORE_H__
  25:.\cmsis_core/core_cm0.h **** #define __CM0_CORE_H__
  26:.\cmsis_core/core_cm0.h **** 
  27:.\cmsis_core/core_cm0.h **** /** @addtogroup CMSIS_CM0_core_LintCinfiguration CMSIS CM0 Core Lint Configuration
  28:.\cmsis_core/core_cm0.h ****  *
  29:.\cmsis_core/core_cm0.h ****  * List of Lint messages which will be suppressed and not shown:
  30:.\cmsis_core/core_cm0.h ****  *   - not yet checked
  31:.\cmsis_core/core_cm0.h ****  * .
  32:.\cmsis_core/core_cm0.h ****  * Note:  To re-enable a Message, insert a space before 'lint' *
  33:.\cmsis_core/core_cm0.h ****  *
  34:.\cmsis_core/core_cm0.h ****  */
  35:.\cmsis_core/core_cm0.h **** 
  36:.\cmsis_core/core_cm0.h **** 
  37:.\cmsis_core/core_cm0.h **** /** @addtogroup CMSIS_CM0_core_definitions CM0 Core Definitions
  38:.\cmsis_core/core_cm0.h ****   This file defines all structures and symbols for CMSIS core:
  39:.\cmsis_core/core_cm0.h ****     - CMSIS version number
  40:.\cmsis_core/core_cm0.h ****     - Cortex-M core registers and bitfields
  41:.\cmsis_core/core_cm0.h ****     - Cortex-M core peripheral base address
  42:.\cmsis_core/core_cm0.h ****   @{
  43:.\cmsis_core/core_cm0.h ****  */
  44:.\cmsis_core/core_cm0.h **** 
  45:.\cmsis_core/core_cm0.h **** #ifdef __cplusplus
  46:.\cmsis_core/core_cm0.h ****  extern "C" {
  47:.\cmsis_core/core_cm0.h **** #endif 
  48:.\cmsis_core/core_cm0.h **** 
  49:.\cmsis_core/core_cm0.h **** #define __CM0_CMSIS_VERSION_MAIN  (0x01)                                                       /*!<
  50:.\cmsis_core/core_cm0.h **** #define __CM0_CMSIS_VERSION_SUB   (0x30)                                                       /*!<
  51:.\cmsis_core/core_cm0.h **** #define __CM0_CMSIS_VERSION       ((__CM0_CMSIS_VERSION_MAIN << 16) | __CM0_CMSIS_VERSION_SUB) /*!<
  52:.\cmsis_core/core_cm0.h **** 
  53:.\cmsis_core/core_cm0.h **** #define __CORTEX_M                (0x00)                                                       /*!<
  54:.\cmsis_core/core_cm0.h **** 
  55:.\cmsis_core/core_cm0.h **** #include <stdint.h>                           /* Include standard types */
  56:.\cmsis_core/core_cm0.h **** 
  57:.\cmsis_core/core_cm0.h **** #if defined (__ICCARM__)
ARM GAS  C:\Users\Mariano\AppData\Local\Temp\ccAk74Yw.s 			page 3


  58:.\cmsis_core/core_cm0.h ****   #include <intrinsics.h>                     /* IAR Intrinsics   */
  59:.\cmsis_core/core_cm0.h **** #endif
  60:.\cmsis_core/core_cm0.h **** 
  61:.\cmsis_core/core_cm0.h **** 
  62:.\cmsis_core/core_cm0.h **** #ifndef __NVIC_PRIO_BITS
  63:.\cmsis_core/core_cm0.h ****   #define __NVIC_PRIO_BITS    2               /*!< standard definition for NVIC Priority Bits */
  64:.\cmsis_core/core_cm0.h **** #endif
  65:.\cmsis_core/core_cm0.h **** 
  66:.\cmsis_core/core_cm0.h **** 
  67:.\cmsis_core/core_cm0.h **** 
  68:.\cmsis_core/core_cm0.h **** 
  69:.\cmsis_core/core_cm0.h **** /**
  70:.\cmsis_core/core_cm0.h ****  * IO definitions
  71:.\cmsis_core/core_cm0.h ****  *
  72:.\cmsis_core/core_cm0.h ****  * define access restrictions to peripheral registers
  73:.\cmsis_core/core_cm0.h ****  */
  74:.\cmsis_core/core_cm0.h **** 
  75:.\cmsis_core/core_cm0.h **** #ifdef __cplusplus
  76:.\cmsis_core/core_cm0.h ****   #define     __I     volatile                /*!< defines 'read only' permissions      */
  77:.\cmsis_core/core_cm0.h **** #else
  78:.\cmsis_core/core_cm0.h ****   #define     __I     volatile const          /*!< defines 'read only' permissions      */
  79:.\cmsis_core/core_cm0.h **** #endif
  80:.\cmsis_core/core_cm0.h **** #define     __O     volatile                  /*!< defines 'write only' permissions     */
  81:.\cmsis_core/core_cm0.h **** #define     __IO    volatile                  /*!< defines 'read / write' permissions   */
  82:.\cmsis_core/core_cm0.h **** 
  83:.\cmsis_core/core_cm0.h **** 
  84:.\cmsis_core/core_cm0.h **** 
  85:.\cmsis_core/core_cm0.h **** /*******************************************************************************
  86:.\cmsis_core/core_cm0.h ****  *                 Register Abstraction
  87:.\cmsis_core/core_cm0.h ****  ******************************************************************************/
  88:.\cmsis_core/core_cm0.h **** /** @addtogroup CMSIS_CM0_core_register CMSIS CM0 Core Register
  89:.\cmsis_core/core_cm0.h ****  @{
  90:.\cmsis_core/core_cm0.h **** */
  91:.\cmsis_core/core_cm0.h **** 
  92:.\cmsis_core/core_cm0.h **** 
  93:.\cmsis_core/core_cm0.h **** /** @addtogroup CMSIS_CM0_NVIC CMSIS CM0 NVIC
  94:.\cmsis_core/core_cm0.h ****   memory mapped structure for Nested Vectored Interrupt Controller (NVIC)
  95:.\cmsis_core/core_cm0.h ****   @{
  96:.\cmsis_core/core_cm0.h ****  */
  97:.\cmsis_core/core_cm0.h ****  /*
  98:.\cmsis_core/core_cm0.h **** typedef struct
  99:.\cmsis_core/core_cm0.h **** {
 100:.\cmsis_core/core_cm0.h ****   __IO uint32_t ISER[1];                      //!< (Offset: 0x000) Interrupt Set Enable Register
 101:.\cmsis_core/core_cm0.h ****        uint32_t RESERVED0[31];
 102:.\cmsis_core/core_cm0.h ****   __IO uint32_t ICER[1];                      //!< (Offset: 0x080) Interrupt Clear Enable Register
 103:.\cmsis_core/core_cm0.h ****        uint32_t RSERVED1[31];
 104:.\cmsis_core/core_cm0.h ****   __IO uint32_t ISPR[1];                      //!< (Offset: 0x100) Interrupt Set Pending Register
 105:.\cmsis_core/core_cm0.h ****        uint32_t RESERVED2[31];
 106:.\cmsis_core/core_cm0.h ****   __IO uint32_t ICPR[1];                      //!< (Offset: 0x180) Interrupt Clear Pending Register
 107:.\cmsis_core/core_cm0.h ****        uint32_t RESERVED3[31];
 108:.\cmsis_core/core_cm0.h ****        uint32_t RESERVED4[64];
 109:.\cmsis_core/core_cm0.h ****   __IO uint32_t IPR[8];                       //!< (Offset: 0x3EC) Interrupt Priority Register
 110:.\cmsis_core/core_cm0.h **** }  NVIC_Type;
 111:.\cmsis_core/core_cm0.h **** */
 112:.\cmsis_core/core_cm0.h **** 
 113:.\cmsis_core/core_cm0.h ****  typedef struct
 114:.\cmsis_core/core_cm0.h ****  {
ARM GAS  C:\Users\Mariano\AppData\Local\Temp\ccAk74Yw.s 			page 4


 115:.\cmsis_core/core_cm0.h ****    __IO uint32_t ISER[1];                 /*!< Offset: 0x000 (R/W)  Interrupt Set Enable Register  
 116:.\cmsis_core/core_cm0.h ****         uint32_t RESERVED0[31];
 117:.\cmsis_core/core_cm0.h ****    __IO uint32_t ICER[1];                 /*!< Offset: 0x080 (R/W)  Interrupt Clear Enable Register
 118:.\cmsis_core/core_cm0.h ****         uint32_t RSERVED1[31];
 119:.\cmsis_core/core_cm0.h ****    __IO uint32_t ISPR[1];                 /*!< Offset: 0x100 (R/W)  Interrupt Set Pending Register 
 120:.\cmsis_core/core_cm0.h ****         uint32_t RESERVED2[31];
 121:.\cmsis_core/core_cm0.h ****    __IO uint32_t ICPR[1];                 /*!< Offset: 0x180 (R/W)  Interrupt Clear Pending Registe
 122:.\cmsis_core/core_cm0.h ****         uint32_t RESERVED3[31];
 123:.\cmsis_core/core_cm0.h ****         uint32_t RESERVED4[64];
 124:.\cmsis_core/core_cm0.h ****    __IO uint32_t IP[8];                   /*!< Offset: 0x300 (R/W)  Interrupt Priority Register    
 125:.\cmsis_core/core_cm0.h ****  }  NVIC_Type;
 126:.\cmsis_core/core_cm0.h **** 
 127:.\cmsis_core/core_cm0.h **** /*@}*/ /* end of group CMSIS_CM0_NVIC */
 128:.\cmsis_core/core_cm0.h **** 
 129:.\cmsis_core/core_cm0.h **** 
 130:.\cmsis_core/core_cm0.h **** /** @addtogroup CMSIS_CM0_SCB CMSIS CM0 SCB
 131:.\cmsis_core/core_cm0.h ****   memory mapped structure for System Control Block (SCB)
 132:.\cmsis_core/core_cm0.h ****   @{
 133:.\cmsis_core/core_cm0.h ****  */
 134:.\cmsis_core/core_cm0.h **** typedef struct
 135:.\cmsis_core/core_cm0.h **** {
 136:.\cmsis_core/core_cm0.h ****   __I  uint32_t CPUID;                        /*!< Offset: 0x00  CPU ID Base Register              
 137:.\cmsis_core/core_cm0.h ****   __IO uint32_t ICSR;                         /*!< Offset: 0x04  Interrupt Control State Register  
 138:.\cmsis_core/core_cm0.h ****        uint32_t RESERVED0;                                      
 139:.\cmsis_core/core_cm0.h ****   __IO uint32_t AIRCR;                        /*!< Offset: 0x0C  Application Interrupt / Reset Cont
 140:.\cmsis_core/core_cm0.h ****   __IO uint32_t SCR;                          /*!< Offset: 0x10  System Control Register           
 141:.\cmsis_core/core_cm0.h ****   __IO uint32_t CCR;                          /*!< Offset: 0x14  Configuration Control Register    
 142:.\cmsis_core/core_cm0.h ****        uint32_t RESERVED1;                                      
 143:.\cmsis_core/core_cm0.h ****   __IO uint32_t SHP[2];                       /*!< Offset: 0x1C  System Handlers Priority Registers
 144:.\cmsis_core/core_cm0.h ****   __IO uint32_t SHCSR;                        /*!< Offset: 0x24  System Handler Control and State R
 145:.\cmsis_core/core_cm0.h ****        uint32_t RESERVED2[2];                                   
 146:.\cmsis_core/core_cm0.h ****   __IO uint32_t DFSR;                         /*!< Offset: 0x30  Debug Fault Status Register       
 147:.\cmsis_core/core_cm0.h **** } SCB_Type;                                                
 148:.\cmsis_core/core_cm0.h **** 
 149:.\cmsis_core/core_cm0.h **** /* SCB CPUID Register Definitions */
 150:.\cmsis_core/core_cm0.h **** #define SCB_CPUID_IMPLEMENTER_Pos          24                                             /*!< SCB 
 151:.\cmsis_core/core_cm0.h **** #define SCB_CPUID_IMPLEMENTER_Msk          (0xFFul << SCB_CPUID_IMPLEMENTER_Pos)          /*!< SCB 
 152:.\cmsis_core/core_cm0.h **** 
 153:.\cmsis_core/core_cm0.h **** #define SCB_CPUID_VARIANT_Pos              20                                             /*!< SCB 
 154:.\cmsis_core/core_cm0.h **** #define SCB_CPUID_VARIANT_Msk              (0xFul << SCB_CPUID_VARIANT_Pos)               /*!< SCB 
 155:.\cmsis_core/core_cm0.h **** 
 156:.\cmsis_core/core_cm0.h **** #define SCB_CPUID_ARCHITECTURE_Pos         16                                             /*!< SCB 
 157:.\cmsis_core/core_cm0.h **** #define SCB_CPUID_ARCHITECTURE_Msk         (0xFul << SCB_CPUID_ARCHITECTURE_Pos)          /*!< SCB 
 158:.\cmsis_core/core_cm0.h **** 
 159:.\cmsis_core/core_cm0.h **** #define SCB_CPUID_PARTNO_Pos                4                                             /*!< SCB 
 160:.\cmsis_core/core_cm0.h **** #define SCB_CPUID_PARTNO_Msk               (0xFFFul << SCB_CPUID_PARTNO_Pos)              /*!< SCB 
 161:.\cmsis_core/core_cm0.h **** 
 162:.\cmsis_core/core_cm0.h **** #define SCB_CPUID_REVISION_Pos              0                                             /*!< SCB 
 163:.\cmsis_core/core_cm0.h **** #define SCB_CPUID_REVISION_Msk             (0xFul << SCB_CPUID_REVISION_Pos)              /*!< SCB 
 164:.\cmsis_core/core_cm0.h **** 
 165:.\cmsis_core/core_cm0.h **** /* SCB Interrupt Control State Register Definitions */
 166:.\cmsis_core/core_cm0.h **** #define SCB_ICSR_NMIPENDSET_Pos            31                                             /*!< SCB 
 167:.\cmsis_core/core_cm0.h **** #define SCB_ICSR_NMIPENDSET_Msk            (1ul << SCB_ICSR_NMIPENDSET_Pos)               /*!< SCB 
 168:.\cmsis_core/core_cm0.h **** 
 169:.\cmsis_core/core_cm0.h **** #define SCB_ICSR_PENDSVSET_Pos             28                                             /*!< SCB 
 170:.\cmsis_core/core_cm0.h **** #define SCB_ICSR_PENDSVSET_Msk             (1ul << SCB_ICSR_PENDSVSET_Pos)                /*!< SCB 
 171:.\cmsis_core/core_cm0.h **** 
ARM GAS  C:\Users\Mariano\AppData\Local\Temp\ccAk74Yw.s 			page 5


 172:.\cmsis_core/core_cm0.h **** #define SCB_ICSR_PENDSVCLR_Pos             27                                             /*!< SCB 
 173:.\cmsis_core/core_cm0.h **** #define SCB_ICSR_PENDSVCLR_Msk             (1ul << SCB_ICSR_PENDSVCLR_Pos)                /*!< SCB 
 174:.\cmsis_core/core_cm0.h **** 
 175:.\cmsis_core/core_cm0.h **** #define SCB_ICSR_PENDSTSET_Pos             26                                             /*!< SCB 
 176:.\cmsis_core/core_cm0.h **** #define SCB_ICSR_PENDSTSET_Msk             (1ul << SCB_ICSR_PENDSTSET_Pos)                /*!< SCB 
 177:.\cmsis_core/core_cm0.h **** 
 178:.\cmsis_core/core_cm0.h **** #define SCB_ICSR_PENDSTCLR_Pos             25                                             /*!< SCB 
 179:.\cmsis_core/core_cm0.h **** #define SCB_ICSR_PENDSTCLR_Msk             (1ul << SCB_ICSR_PENDSTCLR_Pos)                /*!< SCB 
 180:.\cmsis_core/core_cm0.h **** 
 181:.\cmsis_core/core_cm0.h **** #define SCB_ICSR_ISRPREEMPT_Pos            23                                             /*!< SCB 
 182:.\cmsis_core/core_cm0.h **** #define SCB_ICSR_ISRPREEMPT_Msk            (1ul << SCB_ICSR_ISRPREEMPT_Pos)               /*!< SCB 
 183:.\cmsis_core/core_cm0.h **** 
 184:.\cmsis_core/core_cm0.h **** #define SCB_ICSR_ISRPENDING_Pos            22                                             /*!< SCB 
 185:.\cmsis_core/core_cm0.h **** #define SCB_ICSR_ISRPENDING_Msk            (1ul << SCB_ICSR_ISRPENDING_Pos)               /*!< SCB 
 186:.\cmsis_core/core_cm0.h **** 
 187:.\cmsis_core/core_cm0.h **** #define SCB_ICSR_VECTPENDING_Pos           12                                             /*!< SCB 
 188:.\cmsis_core/core_cm0.h **** #define SCB_ICSR_VECTPENDING_Msk           (0x1FFul << SCB_ICSR_VECTPENDING_Pos)          /*!< SCB 
 189:.\cmsis_core/core_cm0.h **** 
 190:.\cmsis_core/core_cm0.h **** #define SCB_ICSR_VECTACTIVE_Pos             0                                             /*!< SCB 
 191:.\cmsis_core/core_cm0.h **** #define SCB_ICSR_VECTACTIVE_Msk            (0x1FFul << SCB_ICSR_VECTACTIVE_Pos)           /*!< SCB 
 192:.\cmsis_core/core_cm0.h **** 
 193:.\cmsis_core/core_cm0.h **** /* SCB Application Interrupt and Reset Control Register Definitions */
 194:.\cmsis_core/core_cm0.h **** #define SCB_AIRCR_VECTKEY_Pos              16                                             /*!< SCB 
 195:.\cmsis_core/core_cm0.h **** #define SCB_AIRCR_VECTKEY_Msk              (0xFFFFul << SCB_AIRCR_VECTKEY_Pos)            /*!< SCB 
 196:.\cmsis_core/core_cm0.h **** 
 197:.\cmsis_core/core_cm0.h **** #define SCB_AIRCR_VECTKEYSTAT_Pos          16                                             /*!< SCB 
 198:.\cmsis_core/core_cm0.h **** #define SCB_AIRCR_VECTKEYSTAT_Msk          (0xFFFFul << SCB_AIRCR_VECTKEYSTAT_Pos)        /*!< SCB 
 199:.\cmsis_core/core_cm0.h **** 
 200:.\cmsis_core/core_cm0.h **** #define SCB_AIRCR_ENDIANESS_Pos            15                                             /*!< SCB 
 201:.\cmsis_core/core_cm0.h **** #define SCB_AIRCR_ENDIANESS_Msk            (1ul << SCB_AIRCR_ENDIANESS_Pos)               /*!< SCB 
 202:.\cmsis_core/core_cm0.h **** 
 203:.\cmsis_core/core_cm0.h **** #define SCB_AIRCR_SYSRESETREQ_Pos           2                                             /*!< SCB 
 204:.\cmsis_core/core_cm0.h **** #define SCB_AIRCR_SYSRESETREQ_Msk          (1ul << SCB_AIRCR_SYSRESETREQ_Pos)             /*!< SCB 
 205:.\cmsis_core/core_cm0.h **** 
 206:.\cmsis_core/core_cm0.h **** #define SCB_AIRCR_VECTCLRACTIVE_Pos         1                                             /*!< SCB 
 207:.\cmsis_core/core_cm0.h **** #define SCB_AIRCR_VECTCLRACTIVE_Msk        (1ul << SCB_AIRCR_VECTCLRACTIVE_Pos)           /*!< SCB 
 208:.\cmsis_core/core_cm0.h **** 
 209:.\cmsis_core/core_cm0.h **** /* SCB System Control Register Definitions */
 210:.\cmsis_core/core_cm0.h **** #define SCB_SCR_SEVONPEND_Pos               4                                             /*!< SCB 
 211:.\cmsis_core/core_cm0.h **** #define SCB_SCR_SEVONPEND_Msk              (1ul << SCB_SCR_SEVONPEND_Pos)                 /*!< SCB 
 212:.\cmsis_core/core_cm0.h **** 
 213:.\cmsis_core/core_cm0.h **** #define SCB_SCR_SLEEPDEEP_Pos               2                                             /*!< SCB 
 214:.\cmsis_core/core_cm0.h **** #define SCB_SCR_SLEEPDEEP_Msk              (1ul << SCB_SCR_SLEEPDEEP_Pos)                 /*!< SCB 
 215:.\cmsis_core/core_cm0.h **** 
 216:.\cmsis_core/core_cm0.h **** #define SCB_SCR_SLEEPONEXIT_Pos             1                                             /*!< SCB 
 217:.\cmsis_core/core_cm0.h **** #define SCB_SCR_SLEEPONEXIT_Msk            (1ul << SCB_SCR_SLEEPONEXIT_Pos)               /*!< SCB 
 218:.\cmsis_core/core_cm0.h **** 
 219:.\cmsis_core/core_cm0.h **** /* SCB Configuration Control Register Definitions */
 220:.\cmsis_core/core_cm0.h **** #define SCB_CCR_STKALIGN_Pos                9                                             /*!< SCB 
 221:.\cmsis_core/core_cm0.h **** #define SCB_CCR_STKALIGN_Msk               (1ul << SCB_CCR_STKALIGN_Pos)                  /*!< SCB 
 222:.\cmsis_core/core_cm0.h **** 
 223:.\cmsis_core/core_cm0.h **** #define SCB_CCR_UNALIGN_TRP_Pos             3                                             /*!< SCB 
 224:.\cmsis_core/core_cm0.h **** #define SCB_CCR_UNALIGN_TRP_Msk            (1ul << SCB_CCR_UNALIGN_TRP_Pos)               /*!< SCB 
 225:.\cmsis_core/core_cm0.h **** 
 226:.\cmsis_core/core_cm0.h **** /* SCB System Handler Control and State Register Definitions */
 227:.\cmsis_core/core_cm0.h **** #define SCB_SHCSR_SVCALLPENDED_Pos         15                                             /*!< SCB 
 228:.\cmsis_core/core_cm0.h **** #define SCB_SHCSR_SVCALLPENDED_Msk         (1ul << SCB_SHCSR_SVCALLPENDED_Pos)            /*!< SCB 
ARM GAS  C:\Users\Mariano\AppData\Local\Temp\ccAk74Yw.s 			page 6


 229:.\cmsis_core/core_cm0.h **** 
 230:.\cmsis_core/core_cm0.h **** /* SCB Debug Fault Status Register Definitions */
 231:.\cmsis_core/core_cm0.h **** #define SCB_DFSR_EXTERNAL_Pos               4                                             /*!< SCB 
 232:.\cmsis_core/core_cm0.h **** #define SCB_DFSR_EXTERNAL_Msk              (1ul << SCB_DFSR_EXTERNAL_Pos)                 /*!< SCB 
 233:.\cmsis_core/core_cm0.h **** 
 234:.\cmsis_core/core_cm0.h **** #define SCB_DFSR_VCATCH_Pos                 3                                             /*!< SCB 
 235:.\cmsis_core/core_cm0.h **** #define SCB_DFSR_VCATCH_Msk                (1ul << SCB_DFSR_VCATCH_Pos)                   /*!< SCB 
 236:.\cmsis_core/core_cm0.h **** 
 237:.\cmsis_core/core_cm0.h **** #define SCB_DFSR_DWTTRAP_Pos                2                                             /*!< SCB 
 238:.\cmsis_core/core_cm0.h **** #define SCB_DFSR_DWTTRAP_Msk               (1ul << SCB_DFSR_DWTTRAP_Pos)                  /*!< SCB 
 239:.\cmsis_core/core_cm0.h **** 
 240:.\cmsis_core/core_cm0.h **** #define SCB_DFSR_BKPT_Pos                   1                                             /*!< SCB 
 241:.\cmsis_core/core_cm0.h **** #define SCB_DFSR_BKPT_Msk                  (1ul << SCB_DFSR_BKPT_Pos)                     /*!< SCB 
 242:.\cmsis_core/core_cm0.h **** 
 243:.\cmsis_core/core_cm0.h **** #define SCB_DFSR_HALTED_Pos                 0                                             /*!< SCB 
 244:.\cmsis_core/core_cm0.h **** #define SCB_DFSR_HALTED_Msk                (1ul << SCB_DFSR_HALTED_Pos)                   /*!< SCB 
 245:.\cmsis_core/core_cm0.h **** /*@}*/ /* end of group CMSIS_CM0_SCB */
 246:.\cmsis_core/core_cm0.h **** 
 247:.\cmsis_core/core_cm0.h **** 
 248:.\cmsis_core/core_cm0.h **** /** @addtogroup CMSIS_CM0_SysTick CMSIS CM0 SysTick
 249:.\cmsis_core/core_cm0.h ****   memory mapped structure for SysTick
 250:.\cmsis_core/core_cm0.h ****   @{
 251:.\cmsis_core/core_cm0.h ****  */
 252:.\cmsis_core/core_cm0.h **** typedef struct
 253:.\cmsis_core/core_cm0.h **** {
 254:.\cmsis_core/core_cm0.h ****   __IO uint32_t CTRL;                         /*!< Offset: 0x00  SysTick Control and Status Registe
 255:.\cmsis_core/core_cm0.h ****   __IO uint32_t LOAD;                         /*!< Offset: 0x04  SysTick Reload Value Register     
 256:.\cmsis_core/core_cm0.h ****   __IO uint32_t VAL;                          /*!< Offset: 0x08  SysTick Current Value Register    
 257:.\cmsis_core/core_cm0.h ****   __I  uint32_t CALIB;                        /*!< Offset: 0x0C  SysTick Calibration Register      
 258:.\cmsis_core/core_cm0.h **** } SysTick_Type;
 259:.\cmsis_core/core_cm0.h **** 
 260:.\cmsis_core/core_cm0.h **** /* SysTick Control / Status Register Definitions */
 261:.\cmsis_core/core_cm0.h **** #define SysTick_CTRL_COUNTFLAG_Pos         16                                             /*!< SysT
 262:.\cmsis_core/core_cm0.h **** #define SysTick_CTRL_COUNTFLAG_Msk         (1ul << SysTick_CTRL_COUNTFLAG_Pos)            /*!< SysT
 263:.\cmsis_core/core_cm0.h **** 
 264:.\cmsis_core/core_cm0.h **** #define SysTick_CTRL_CLKSOURCE_Pos          2                                             /*!< SysT
 265:.\cmsis_core/core_cm0.h **** #define SysTick_CTRL_CLKSOURCE_Msk         (1ul << SysTick_CTRL_CLKSOURCE_Pos)            /*!< SysT
 266:.\cmsis_core/core_cm0.h **** 
 267:.\cmsis_core/core_cm0.h **** #define SysTick_CTRL_TICKINT_Pos            1                                             /*!< SysT
 268:.\cmsis_core/core_cm0.h **** #define SysTick_CTRL_TICKINT_Msk           (1ul << SysTick_CTRL_TICKINT_Pos)              /*!< SysT
 269:.\cmsis_core/core_cm0.h **** 
 270:.\cmsis_core/core_cm0.h **** #define SysTick_CTRL_ENABLE_Pos             0                                             /*!< SysT
 271:.\cmsis_core/core_cm0.h **** #define SysTick_CTRL_ENABLE_Msk            (1ul << SysTick_CTRL_ENABLE_Pos)               /*!< SysT
 272:.\cmsis_core/core_cm0.h **** 
 273:.\cmsis_core/core_cm0.h **** /* SysTick Reload Register Definitions */
 274:.\cmsis_core/core_cm0.h **** #define SysTick_LOAD_RELOAD_Pos             0                                             /*!< SysT
 275:.\cmsis_core/core_cm0.h **** #define SysTick_LOAD_RELOAD_Msk            (0xFFFFFFul << SysTick_LOAD_RELOAD_Pos)        /*!< SysT
 276:.\cmsis_core/core_cm0.h **** 
 277:.\cmsis_core/core_cm0.h **** /* SysTick Current Register Definitions */
 278:.\cmsis_core/core_cm0.h **** #define SysTick_VAL_CURRENT_Pos             0                                             /*!< SysT
 279:.\cmsis_core/core_cm0.h **** #define SysTick_VAL_CURRENT_Msk            (0xFFFFFFul << SysTick_VAL_CURRENT_Pos)        /*!< SysT
 280:.\cmsis_core/core_cm0.h **** 
 281:.\cmsis_core/core_cm0.h **** /* SysTick Calibration Register Definitions */
 282:.\cmsis_core/core_cm0.h **** #define SysTick_CALIB_NOREF_Pos            31                                             /*!< SysT
 283:.\cmsis_core/core_cm0.h **** #define SysTick_CALIB_NOREF_Msk            (1ul << SysTick_CALIB_NOREF_Pos)               /*!< SysT
 284:.\cmsis_core/core_cm0.h **** 
 285:.\cmsis_core/core_cm0.h **** #define SysTick_CALIB_SKEW_Pos             30                                             /*!< SysT
ARM GAS  C:\Users\Mariano\AppData\Local\Temp\ccAk74Yw.s 			page 7


 286:.\cmsis_core/core_cm0.h **** #define SysTick_CALIB_SKEW_Msk             (1ul << SysTick_CALIB_SKEW_Pos)                /*!< SysT
 287:.\cmsis_core/core_cm0.h **** 
 288:.\cmsis_core/core_cm0.h **** #define SysTick_CALIB_TENMS_Pos             0                                             /*!< SysT
 289:.\cmsis_core/core_cm0.h **** #define SysTick_CALIB_TENMS_Msk            (0xFFFFFFul << SysTick_VAL_CURRENT_Pos)        /*!< SysT
 290:.\cmsis_core/core_cm0.h **** /*@}*/ /* end of group CMSIS_CM0_SysTick */
 291:.\cmsis_core/core_cm0.h **** 
 292:.\cmsis_core/core_cm0.h **** 
 293:.\cmsis_core/core_cm0.h **** /** @addtogroup CMSIS_CM0_CoreDebug CMSIS CM0 Core Debug
 294:.\cmsis_core/core_cm0.h ****   memory mapped structure for Core Debug Register
 295:.\cmsis_core/core_cm0.h ****   @{
 296:.\cmsis_core/core_cm0.h ****  */
 297:.\cmsis_core/core_cm0.h **** typedef struct
 298:.\cmsis_core/core_cm0.h **** {
 299:.\cmsis_core/core_cm0.h ****   __IO uint32_t DHCSR;                        /*!< Offset: 0x00  Debug Halting Control and Status R
 300:.\cmsis_core/core_cm0.h ****   __O  uint32_t DCRSR;                        /*!< Offset: 0x04  Debug Core Register Selector Regis
 301:.\cmsis_core/core_cm0.h ****   __IO uint32_t DCRDR;                        /*!< Offset: 0x08  Debug Core Register Data Register 
 302:.\cmsis_core/core_cm0.h ****   __IO uint32_t DEMCR;                        /*!< Offset: 0x0C  Debug Exception and Monitor Contro
 303:.\cmsis_core/core_cm0.h **** } CoreDebug_Type;
 304:.\cmsis_core/core_cm0.h **** 
 305:.\cmsis_core/core_cm0.h **** /* Debug Halting Control and Status Register */
 306:.\cmsis_core/core_cm0.h **** #define CoreDebug_DHCSR_DBGKEY_Pos         16                                             /*!< Core
 307:.\cmsis_core/core_cm0.h **** #define CoreDebug_DHCSR_DBGKEY_Msk         (0xFFFFul << CoreDebug_DHCSR_DBGKEY_Pos)       /*!< Core
 308:.\cmsis_core/core_cm0.h **** 
 309:.\cmsis_core/core_cm0.h **** #define CoreDebug_DHCSR_S_RESET_ST_Pos     25                                             /*!< Core
 310:.\cmsis_core/core_cm0.h **** #define CoreDebug_DHCSR_S_RESET_ST_Msk     (1ul << CoreDebug_DHCSR_S_RESET_ST_Pos)        /*!< Core
 311:.\cmsis_core/core_cm0.h **** 
 312:.\cmsis_core/core_cm0.h **** #define CoreDebug_DHCSR_S_RETIRE_ST_Pos    24                                             /*!< Core
 313:.\cmsis_core/core_cm0.h **** #define CoreDebug_DHCSR_S_RETIRE_ST_Msk    (1ul << CoreDebug_DHCSR_S_RETIRE_ST_Pos)       /*!< Core
 314:.\cmsis_core/core_cm0.h **** 
 315:.\cmsis_core/core_cm0.h **** #define CoreDebug_DHCSR_S_LOCKUP_Pos       19                                             /*!< Core
 316:.\cmsis_core/core_cm0.h **** #define CoreDebug_DHCSR_S_LOCKUP_Msk       (1ul << CoreDebug_DHCSR_S_LOCKUP_Pos)          /*!< Core
 317:.\cmsis_core/core_cm0.h **** 
 318:.\cmsis_core/core_cm0.h **** #define CoreDebug_DHCSR_S_SLEEP_Pos        18                                             /*!< Core
 319:.\cmsis_core/core_cm0.h **** #define CoreDebug_DHCSR_S_SLEEP_Msk        (1ul << CoreDebug_DHCSR_S_SLEEP_Pos)           /*!< Core
 320:.\cmsis_core/core_cm0.h **** 
 321:.\cmsis_core/core_cm0.h **** #define CoreDebug_DHCSR_S_HALT_Pos         17                                             /*!< Core
 322:.\cmsis_core/core_cm0.h **** #define CoreDebug_DHCSR_S_HALT_Msk         (1ul << CoreDebug_DHCSR_S_HALT_Pos)            /*!< Core
 323:.\cmsis_core/core_cm0.h **** 
 324:.\cmsis_core/core_cm0.h **** #define CoreDebug_DHCSR_S_REGRDY_Pos       16                                             /*!< Core
 325:.\cmsis_core/core_cm0.h **** #define CoreDebug_DHCSR_S_REGRDY_Msk       (1ul << CoreDebug_DHCSR_S_REGRDY_Pos)          /*!< Core
 326:.\cmsis_core/core_cm0.h **** 
 327:.\cmsis_core/core_cm0.h **** #define CoreDebug_DHCSR_C_MASKINTS_Pos      3                                             /*!< Core
 328:.\cmsis_core/core_cm0.h **** #define CoreDebug_DHCSR_C_MASKINTS_Msk     (1ul << CoreDebug_DHCSR_C_MASKINTS_Pos)        /*!< Core
 329:.\cmsis_core/core_cm0.h **** 
 330:.\cmsis_core/core_cm0.h **** #define CoreDebug_DHCSR_C_STEP_Pos          2                                             /*!< Core
 331:.\cmsis_core/core_cm0.h **** #define CoreDebug_DHCSR_C_STEP_Msk         (1ul << CoreDebug_DHCSR_C_STEP_Pos)            /*!< Core
 332:.\cmsis_core/core_cm0.h **** 
 333:.\cmsis_core/core_cm0.h **** #define CoreDebug_DHCSR_C_HALT_Pos          1                                             /*!< Core
 334:.\cmsis_core/core_cm0.h **** #define CoreDebug_DHCSR_C_HALT_Msk         (1ul << CoreDebug_DHCSR_C_HALT_Pos)            /*!< Core
 335:.\cmsis_core/core_cm0.h **** 
 336:.\cmsis_core/core_cm0.h **** #define CoreDebug_DHCSR_C_DEBUGEN_Pos       0                                             /*!< Core
 337:.\cmsis_core/core_cm0.h **** #define CoreDebug_DHCSR_C_DEBUGEN_Msk      (1ul << CoreDebug_DHCSR_C_DEBUGEN_Pos)         /*!< Core
 338:.\cmsis_core/core_cm0.h **** 
 339:.\cmsis_core/core_cm0.h **** /* Debug Core Register Selector Register */
 340:.\cmsis_core/core_cm0.h **** #define CoreDebug_DCRSR_REGWnR_Pos         16                                             /*!< Core
 341:.\cmsis_core/core_cm0.h **** #define CoreDebug_DCRSR_REGWnR_Msk         (1ul << CoreDebug_DCRSR_REGWnR_Pos)            /*!< Core
 342:.\cmsis_core/core_cm0.h **** 
ARM GAS  C:\Users\Mariano\AppData\Local\Temp\ccAk74Yw.s 			page 8


 343:.\cmsis_core/core_cm0.h **** #define CoreDebug_DCRSR_REGSEL_Pos          0                                             /*!< Core
 344:.\cmsis_core/core_cm0.h **** #define CoreDebug_DCRSR_REGSEL_Msk         (0x1Ful << CoreDebug_DCRSR_REGSEL_Pos)         /*!< Core
 345:.\cmsis_core/core_cm0.h **** 
 346:.\cmsis_core/core_cm0.h **** /* Debug Exception and Monitor Control Register */
 347:.\cmsis_core/core_cm0.h **** #define CoreDebug_DEMCR_DWTENA_Pos         24                                             /*!< Core
 348:.\cmsis_core/core_cm0.h **** #define CoreDebug_DEMCR_DWTENA_Msk         (1ul << CoreDebug_DEMCR_DWTENA_Pos)            /*!< Core
 349:.\cmsis_core/core_cm0.h **** 
 350:.\cmsis_core/core_cm0.h **** #define CoreDebug_DEMCR_VC_HARDERR_Pos     10                                             /*!< Core
 351:.\cmsis_core/core_cm0.h **** #define CoreDebug_DEMCR_VC_HARDERR_Msk     (1ul << CoreDebug_DEMCR_VC_HARDERR_Pos)        /*!< Core
 352:.\cmsis_core/core_cm0.h **** 
 353:.\cmsis_core/core_cm0.h **** #define CoreDebug_DEMCR_VC_CORERESET_Pos    0                                             /*!< Core
 354:.\cmsis_core/core_cm0.h **** #define CoreDebug_DEMCR_VC_CORERESET_Msk   (1ul << CoreDebug_DEMCR_VC_CORERESET_Pos)      /*!< Core
 355:.\cmsis_core/core_cm0.h **** /*@}*/ /* end of group CMSIS_CM0_CoreDebug */
 356:.\cmsis_core/core_cm0.h **** 
 357:.\cmsis_core/core_cm0.h **** 
 358:.\cmsis_core/core_cm0.h **** /* Memory mapping of Cortex-M0 Hardware */
 359:.\cmsis_core/core_cm0.h **** #define SCS_BASE            (0xE000E000)                              /*!< System Control Space Bas
 360:.\cmsis_core/core_cm0.h **** #define CoreDebug_BASE      (0xE000EDF0)                              /*!< Core Debug Base Address 
 361:.\cmsis_core/core_cm0.h **** #define SysTick_BASE        (SCS_BASE +  0x0010)                      /*!< SysTick Base Address    
 362:.\cmsis_core/core_cm0.h **** #define NVIC_BASE           (SCS_BASE +  0x0100)                      /*!< NVIC Base Address       
 363:.\cmsis_core/core_cm0.h **** #define SCB_BASE            (SCS_BASE +  0x0D00)                      /*!< System Control Block Bas
 364:.\cmsis_core/core_cm0.h **** 
 365:.\cmsis_core/core_cm0.h **** #define SCB                 ((SCB_Type *)           SCB_BASE)         /*!< SCB configuration struct
 366:.\cmsis_core/core_cm0.h **** #define SysTick             ((SysTick_Type *)       SysTick_BASE)     /*!< SysTick configuration st
 367:.\cmsis_core/core_cm0.h **** #define NVIC                ((NVIC_Type *)          NVIC_BASE)        /*!< NVIC configuration struc
 368:.\cmsis_core/core_cm0.h **** #define CoreDebug           ((CoreDebug_Type *)     CoreDebug_BASE)   /*!< Core Debug configuration
 369:.\cmsis_core/core_cm0.h **** 
 370:.\cmsis_core/core_cm0.h **** /*@}*/ /* end of group CMSIS_CM0_core_register */
 371:.\cmsis_core/core_cm0.h **** 
 372:.\cmsis_core/core_cm0.h **** 
 373:.\cmsis_core/core_cm0.h **** /*******************************************************************************
 374:.\cmsis_core/core_cm0.h ****  *                Hardware Abstraction Layer
 375:.\cmsis_core/core_cm0.h ****  ******************************************************************************/
 376:.\cmsis_core/core_cm0.h **** 
 377:.\cmsis_core/core_cm0.h **** #if defined ( __CC_ARM   )
 378:.\cmsis_core/core_cm0.h ****   #define __ASM            __asm                                      /*!< asm keyword for ARM Comp
 379:.\cmsis_core/core_cm0.h ****   #define __INLINE         __inline                                   /*!< inline keyword for ARM C
 380:.\cmsis_core/core_cm0.h **** 
 381:.\cmsis_core/core_cm0.h **** #elif defined ( __ICCARM__ )
 382:.\cmsis_core/core_cm0.h ****   #define __ASM           __asm                                       /*!< asm keyword for IAR Comp
 383:.\cmsis_core/core_cm0.h ****   #define __INLINE        inline                                      /*!< inline keyword for IAR C
 384:.\cmsis_core/core_cm0.h **** 
 385:.\cmsis_core/core_cm0.h **** #elif defined   (  __GNUC__  )
 386:.\cmsis_core/core_cm0.h ****   #define __ASM            __asm                                      /*!< asm keyword for GNU Comp
 387:.\cmsis_core/core_cm0.h ****   #define __INLINE         inline                                     /*!< inline keyword for GNU C
 388:.\cmsis_core/core_cm0.h **** 
 389:.\cmsis_core/core_cm0.h **** #elif defined   (  __TASKING__  )
 390:.\cmsis_core/core_cm0.h ****   #define __ASM            __asm                                      /*!< asm keyword for TASKING 
 391:.\cmsis_core/core_cm0.h ****   #define __INLINE         inline                                     /*!< inline keyword for TASKI
 392:.\cmsis_core/core_cm0.h **** 
 393:.\cmsis_core/core_cm0.h **** #endif
 394:.\cmsis_core/core_cm0.h **** 
 395:.\cmsis_core/core_cm0.h **** 
 396:.\cmsis_core/core_cm0.h **** /* ###################  Compiler specific Intrinsics  ########################### */
 397:.\cmsis_core/core_cm0.h **** 
 398:.\cmsis_core/core_cm0.h **** #if defined ( __CC_ARM   ) /*------------------RealView Compiler -----------------*/
 399:.\cmsis_core/core_cm0.h **** /* ARM armcc specific functions */
ARM GAS  C:\Users\Mariano\AppData\Local\Temp\ccAk74Yw.s 			page 9


 400:.\cmsis_core/core_cm0.h **** 
 401:.\cmsis_core/core_cm0.h **** #define __enable_fault_irq                __enable_fiq
 402:.\cmsis_core/core_cm0.h **** #define __disable_fault_irq               __disable_fiq
 403:.\cmsis_core/core_cm0.h **** 
 404:.\cmsis_core/core_cm0.h **** #define __NOP                             __nop
 405:.\cmsis_core/core_cm0.h **** #define __WFI                             __wfi
 406:.\cmsis_core/core_cm0.h **** #define __WFE                             __wfe
 407:.\cmsis_core/core_cm0.h **** #define __SEV                             __sev
 408:.\cmsis_core/core_cm0.h **** #define __ISB()                           __isb(0)
 409:.\cmsis_core/core_cm0.h **** #define __DSB()                           __dsb(0)
 410:.\cmsis_core/core_cm0.h **** #define __DMB()                           __dmb(0)
 411:.\cmsis_core/core_cm0.h **** #define __REV                             __rev
 412:.\cmsis_core/core_cm0.h **** 
 413:.\cmsis_core/core_cm0.h **** 
 414:.\cmsis_core/core_cm0.h **** /* intrinsic void __enable_irq();     */
 415:.\cmsis_core/core_cm0.h **** /* intrinsic void __disable_irq();    */
 416:.\cmsis_core/core_cm0.h **** 
 417:.\cmsis_core/core_cm0.h **** 
 418:.\cmsis_core/core_cm0.h **** /**
 419:.\cmsis_core/core_cm0.h ****  * @brief  Return the Process Stack Pointer
 420:.\cmsis_core/core_cm0.h ****  *
 421:.\cmsis_core/core_cm0.h ****  * @return ProcessStackPointer
 422:.\cmsis_core/core_cm0.h ****  *
 423:.\cmsis_core/core_cm0.h ****  * Return the actual process stack pointer
 424:.\cmsis_core/core_cm0.h ****  */
 425:.\cmsis_core/core_cm0.h **** extern uint32_t __get_PSP(void);
 426:.\cmsis_core/core_cm0.h **** 
 427:.\cmsis_core/core_cm0.h **** /**
 428:.\cmsis_core/core_cm0.h ****  * @brief  Set the Process Stack Pointer
 429:.\cmsis_core/core_cm0.h ****  *
 430:.\cmsis_core/core_cm0.h ****  * @param  topOfProcStack  Process Stack Pointer
 431:.\cmsis_core/core_cm0.h ****  *
 432:.\cmsis_core/core_cm0.h ****  * Assign the value ProcessStackPointer to the MSP 
 433:.\cmsis_core/core_cm0.h ****  * (process stack pointer) Cortex processor register
 434:.\cmsis_core/core_cm0.h ****  */
 435:.\cmsis_core/core_cm0.h **** extern void __set_PSP(uint32_t topOfProcStack);
 436:.\cmsis_core/core_cm0.h **** 
 437:.\cmsis_core/core_cm0.h **** /**
 438:.\cmsis_core/core_cm0.h ****  * @brief  Return the Main Stack Pointer
 439:.\cmsis_core/core_cm0.h ****  *
 440:.\cmsis_core/core_cm0.h ****  * @return Main Stack Pointer
 441:.\cmsis_core/core_cm0.h ****  *
 442:.\cmsis_core/core_cm0.h ****  * Return the current value of the MSP (main stack pointer)
 443:.\cmsis_core/core_cm0.h ****  * Cortex processor register
 444:.\cmsis_core/core_cm0.h ****  */
 445:.\cmsis_core/core_cm0.h **** extern uint32_t __get_MSP(void);
 446:.\cmsis_core/core_cm0.h **** 
 447:.\cmsis_core/core_cm0.h **** /**
 448:.\cmsis_core/core_cm0.h ****  * @brief  Set the Main Stack Pointer
 449:.\cmsis_core/core_cm0.h ****  *
 450:.\cmsis_core/core_cm0.h ****  * @param  topOfMainStack  Main Stack Pointer
 451:.\cmsis_core/core_cm0.h ****  *
 452:.\cmsis_core/core_cm0.h ****  * Assign the value mainStackPointer to the MSP 
 453:.\cmsis_core/core_cm0.h ****  * (main stack pointer) Cortex processor register
 454:.\cmsis_core/core_cm0.h ****  */
 455:.\cmsis_core/core_cm0.h **** extern void __set_MSP(uint32_t topOfMainStack);
 456:.\cmsis_core/core_cm0.h **** 
ARM GAS  C:\Users\Mariano\AppData\Local\Temp\ccAk74Yw.s 			page 10


 457:.\cmsis_core/core_cm0.h **** /**
 458:.\cmsis_core/core_cm0.h ****  * @brief  Reverse byte order in unsigned short value
 459:.\cmsis_core/core_cm0.h ****  *
 460:.\cmsis_core/core_cm0.h ****  * @param   value  value to reverse
 461:.\cmsis_core/core_cm0.h ****  * @return         reversed value
 462:.\cmsis_core/core_cm0.h ****  *
 463:.\cmsis_core/core_cm0.h ****  * Reverse byte order in unsigned short value
 464:.\cmsis_core/core_cm0.h ****  */
 465:.\cmsis_core/core_cm0.h **** extern uint32_t __REV16(uint16_t value);
 466:.\cmsis_core/core_cm0.h **** 
 467:.\cmsis_core/core_cm0.h **** /**
 468:.\cmsis_core/core_cm0.h ****  * @brief  Reverse byte order in signed short value with sign extension to integer
 469:.\cmsis_core/core_cm0.h ****  *
 470:.\cmsis_core/core_cm0.h ****  * @param   value  value to reverse
 471:.\cmsis_core/core_cm0.h ****  * @return         reversed value
 472:.\cmsis_core/core_cm0.h ****  *
 473:.\cmsis_core/core_cm0.h ****  * Reverse byte order in signed short value with sign extension to integer
 474:.\cmsis_core/core_cm0.h ****  */
 475:.\cmsis_core/core_cm0.h **** extern int32_t __REVSH(int16_t value);
 476:.\cmsis_core/core_cm0.h **** 
 477:.\cmsis_core/core_cm0.h **** 
 478:.\cmsis_core/core_cm0.h **** #if (__ARMCC_VERSION < 400000)
 479:.\cmsis_core/core_cm0.h **** 
 480:.\cmsis_core/core_cm0.h **** /**
 481:.\cmsis_core/core_cm0.h ****  * @brief  Return the Priority Mask value
 482:.\cmsis_core/core_cm0.h ****  *
 483:.\cmsis_core/core_cm0.h ****  * @return PriMask
 484:.\cmsis_core/core_cm0.h ****  *
 485:.\cmsis_core/core_cm0.h ****  * Return state of the priority mask bit from the priority mask register
 486:.\cmsis_core/core_cm0.h ****  */
 487:.\cmsis_core/core_cm0.h **** extern uint32_t __get_PRIMASK(void);
 488:.\cmsis_core/core_cm0.h **** 
 489:.\cmsis_core/core_cm0.h **** /**
 490:.\cmsis_core/core_cm0.h ****  * @brief  Set the Priority Mask value
 491:.\cmsis_core/core_cm0.h ****  *
 492:.\cmsis_core/core_cm0.h ****  * @param   priMask  PriMask
 493:.\cmsis_core/core_cm0.h ****  *
 494:.\cmsis_core/core_cm0.h ****  * Set the priority mask bit in the priority mask register
 495:.\cmsis_core/core_cm0.h ****  */
 496:.\cmsis_core/core_cm0.h **** extern void __set_PRIMASK(uint32_t priMask);
 497:.\cmsis_core/core_cm0.h **** 
 498:.\cmsis_core/core_cm0.h **** /**
 499:.\cmsis_core/core_cm0.h ****  * @brief  Return the Control Register value
 500:.\cmsis_core/core_cm0.h ****  * 
 501:.\cmsis_core/core_cm0.h ****  * @return Control value
 502:.\cmsis_core/core_cm0.h ****  *
 503:.\cmsis_core/core_cm0.h ****  * Return the content of the control register
 504:.\cmsis_core/core_cm0.h ****  */
 505:.\cmsis_core/core_cm0.h **** extern uint32_t __get_CONTROL(void);
 506:.\cmsis_core/core_cm0.h **** 
 507:.\cmsis_core/core_cm0.h **** /**
 508:.\cmsis_core/core_cm0.h ****  * @brief  Set the Control Register value
 509:.\cmsis_core/core_cm0.h ****  *
 510:.\cmsis_core/core_cm0.h ****  * @param  control  Control value
 511:.\cmsis_core/core_cm0.h ****  *
 512:.\cmsis_core/core_cm0.h ****  * Set the control register
 513:.\cmsis_core/core_cm0.h ****  */
ARM GAS  C:\Users\Mariano\AppData\Local\Temp\ccAk74Yw.s 			page 11


 514:.\cmsis_core/core_cm0.h **** extern void __set_CONTROL(uint32_t control);
 515:.\cmsis_core/core_cm0.h **** 
 516:.\cmsis_core/core_cm0.h **** #else  /* (__ARMCC_VERSION >= 400000)  */
 517:.\cmsis_core/core_cm0.h **** 
 518:.\cmsis_core/core_cm0.h **** 
 519:.\cmsis_core/core_cm0.h **** /**
 520:.\cmsis_core/core_cm0.h ****  * @brief  Return the Priority Mask value
 521:.\cmsis_core/core_cm0.h ****  *
 522:.\cmsis_core/core_cm0.h ****  * @return PriMask
 523:.\cmsis_core/core_cm0.h ****  *
 524:.\cmsis_core/core_cm0.h ****  * Return state of the priority mask bit from the priority mask register
 525:.\cmsis_core/core_cm0.h ****  */
 526:.\cmsis_core/core_cm0.h **** static __INLINE uint32_t __get_PRIMASK(void)
 527:.\cmsis_core/core_cm0.h **** {
 528:.\cmsis_core/core_cm0.h ****   register uint32_t __regPriMask         __ASM("primask");
 529:.\cmsis_core/core_cm0.h ****   return(__regPriMask);
 530:.\cmsis_core/core_cm0.h **** }
 531:.\cmsis_core/core_cm0.h **** 
 532:.\cmsis_core/core_cm0.h **** /**
 533:.\cmsis_core/core_cm0.h ****  * @brief  Set the Priority Mask value
 534:.\cmsis_core/core_cm0.h ****  *
 535:.\cmsis_core/core_cm0.h ****  * @param  priMask  PriMask
 536:.\cmsis_core/core_cm0.h ****  *
 537:.\cmsis_core/core_cm0.h ****  * Set the priority mask bit in the priority mask register
 538:.\cmsis_core/core_cm0.h ****  */
 539:.\cmsis_core/core_cm0.h **** static __INLINE void __set_PRIMASK(uint32_t priMask)
 540:.\cmsis_core/core_cm0.h **** {
 541:.\cmsis_core/core_cm0.h ****   register uint32_t __regPriMask         __ASM("primask");
 542:.\cmsis_core/core_cm0.h ****   __regPriMask = (priMask);
 543:.\cmsis_core/core_cm0.h **** }
 544:.\cmsis_core/core_cm0.h **** 
 545:.\cmsis_core/core_cm0.h **** /**
 546:.\cmsis_core/core_cm0.h ****  * @brief  Return the Control Register value
 547:.\cmsis_core/core_cm0.h ****  * 
 548:.\cmsis_core/core_cm0.h ****  * @return Control value
 549:.\cmsis_core/core_cm0.h ****  *
 550:.\cmsis_core/core_cm0.h ****  * Return the content of the control register
 551:.\cmsis_core/core_cm0.h ****  */
 552:.\cmsis_core/core_cm0.h **** static __INLINE uint32_t __get_CONTROL(void)
 553:.\cmsis_core/core_cm0.h **** {
 554:.\cmsis_core/core_cm0.h ****   register uint32_t __regControl         __ASM("control");
 555:.\cmsis_core/core_cm0.h ****   return(__regControl);
 556:.\cmsis_core/core_cm0.h **** }
 557:.\cmsis_core/core_cm0.h **** 
 558:.\cmsis_core/core_cm0.h **** /**
 559:.\cmsis_core/core_cm0.h ****  * @brief  Set the Control Register value
 560:.\cmsis_core/core_cm0.h ****  *
 561:.\cmsis_core/core_cm0.h ****  * @param  control  Control value
 562:.\cmsis_core/core_cm0.h ****  *
 563:.\cmsis_core/core_cm0.h ****  * Set the control register
 564:.\cmsis_core/core_cm0.h ****  */
 565:.\cmsis_core/core_cm0.h **** static __INLINE void __set_CONTROL(uint32_t control)
 566:.\cmsis_core/core_cm0.h **** {
 567:.\cmsis_core/core_cm0.h ****   register uint32_t __regControl         __ASM("control");
 568:.\cmsis_core/core_cm0.h ****   __regControl = control;
 569:.\cmsis_core/core_cm0.h **** }
 570:.\cmsis_core/core_cm0.h **** 
ARM GAS  C:\Users\Mariano\AppData\Local\Temp\ccAk74Yw.s 			page 12


 571:.\cmsis_core/core_cm0.h **** #endif /* __ARMCC_VERSION  */ 
 572:.\cmsis_core/core_cm0.h **** 
 573:.\cmsis_core/core_cm0.h **** 
 574:.\cmsis_core/core_cm0.h **** 
 575:.\cmsis_core/core_cm0.h **** #elif (defined (__ICCARM__)) /*------------------ ICC Compiler -------------------*/
 576:.\cmsis_core/core_cm0.h **** /* IAR iccarm specific functions */
 577:.\cmsis_core/core_cm0.h **** 
 578:.\cmsis_core/core_cm0.h **** #define __enable_irq                              __enable_interrupt        /*!< global Interrupt e
 579:.\cmsis_core/core_cm0.h **** #define __disable_irq                             __disable_interrupt       /*!< global Interrupt d
 580:.\cmsis_core/core_cm0.h **** 
 581:.\cmsis_core/core_cm0.h **** static __INLINE void __enable_fault_irq()         { __ASM ("cpsie f"); }
 582:.\cmsis_core/core_cm0.h **** static __INLINE void __disable_fault_irq()        { __ASM ("cpsid f"); }
 583:.\cmsis_core/core_cm0.h **** 
 584:.\cmsis_core/core_cm0.h **** #define __NOP                                     __no_operation            /*!< no operation intri
 585:.\cmsis_core/core_cm0.h **** static __INLINE  void __WFI()                     { __ASM ("wfi"); }
 586:.\cmsis_core/core_cm0.h **** static __INLINE  void __WFE()                     { __ASM ("wfe"); }
 587:.\cmsis_core/core_cm0.h **** static __INLINE  void __SEV()                     { __ASM ("sev"); }
 588:.\cmsis_core/core_cm0.h **** 
 589:.\cmsis_core/core_cm0.h **** /* intrinsic void __ISB(void)                                     */
 590:.\cmsis_core/core_cm0.h **** /* intrinsic void __DSB(void)                                     */
 591:.\cmsis_core/core_cm0.h **** /* intrinsic void __DMB(void)                                     */
 592:.\cmsis_core/core_cm0.h **** /* intrinsic void __set_PRIMASK();                                */
 593:.\cmsis_core/core_cm0.h **** /* intrinsic void __get_PRIMASK();                                */
 594:.\cmsis_core/core_cm0.h **** 
 595:.\cmsis_core/core_cm0.h **** 
 596:.\cmsis_core/core_cm0.h **** /* intrinsic uint32_t __REV(uint32_t value);                      */
 597:.\cmsis_core/core_cm0.h **** /* intrinsic uint32_t __REVSH(uint32_t value);                    */
 598:.\cmsis_core/core_cm0.h **** 
 599:.\cmsis_core/core_cm0.h **** 
 600:.\cmsis_core/core_cm0.h **** /**
 601:.\cmsis_core/core_cm0.h ****  * @brief  Return the Process Stack Pointer
 602:.\cmsis_core/core_cm0.h ****  *
 603:.\cmsis_core/core_cm0.h ****  * @return ProcessStackPointer
 604:.\cmsis_core/core_cm0.h ****  *
 605:.\cmsis_core/core_cm0.h ****  * Return the actual process stack pointer
 606:.\cmsis_core/core_cm0.h ****  */
 607:.\cmsis_core/core_cm0.h **** extern uint32_t __get_PSP(void);
 608:.\cmsis_core/core_cm0.h **** 
 609:.\cmsis_core/core_cm0.h **** /**
 610:.\cmsis_core/core_cm0.h ****  * @brief  Set the Process Stack Pointer
 611:.\cmsis_core/core_cm0.h ****  *
 612:.\cmsis_core/core_cm0.h ****  * @param  topOfProcStack  Process Stack Pointer
 613:.\cmsis_core/core_cm0.h ****  *
 614:.\cmsis_core/core_cm0.h ****  * Assign the value ProcessStackPointer to the MSP 
 615:.\cmsis_core/core_cm0.h ****  * (process stack pointer) Cortex processor register
 616:.\cmsis_core/core_cm0.h ****  */
 617:.\cmsis_core/core_cm0.h **** extern void __set_PSP(uint32_t topOfProcStack);
 618:.\cmsis_core/core_cm0.h **** 
 619:.\cmsis_core/core_cm0.h **** /**
 620:.\cmsis_core/core_cm0.h ****  * @brief  Return the Main Stack Pointer
 621:.\cmsis_core/core_cm0.h ****  *
 622:.\cmsis_core/core_cm0.h ****  * @return Main Stack Pointer
 623:.\cmsis_core/core_cm0.h ****  *
 624:.\cmsis_core/core_cm0.h ****  * Return the current value of the MSP (main stack pointer)
 625:.\cmsis_core/core_cm0.h ****  * Cortex processor register
 626:.\cmsis_core/core_cm0.h ****  */
 627:.\cmsis_core/core_cm0.h **** extern uint32_t __get_MSP(void);
ARM GAS  C:\Users\Mariano\AppData\Local\Temp\ccAk74Yw.s 			page 13


 628:.\cmsis_core/core_cm0.h **** 
 629:.\cmsis_core/core_cm0.h **** /**
 630:.\cmsis_core/core_cm0.h ****  * @brief  Set the Main Stack Pointer
 631:.\cmsis_core/core_cm0.h ****  *
 632:.\cmsis_core/core_cm0.h ****  * @param  topOfMainStack  Main Stack Pointer
 633:.\cmsis_core/core_cm0.h ****  *
 634:.\cmsis_core/core_cm0.h ****  * Assign the value mainStackPointer to the MSP 
 635:.\cmsis_core/core_cm0.h ****  * (main stack pointer) Cortex processor register
 636:.\cmsis_core/core_cm0.h ****  */
 637:.\cmsis_core/core_cm0.h **** extern void __set_MSP(uint32_t topOfMainStack);
 638:.\cmsis_core/core_cm0.h **** 
 639:.\cmsis_core/core_cm0.h **** /**
 640:.\cmsis_core/core_cm0.h ****  * @brief  Reverse byte order in unsigned short value
 641:.\cmsis_core/core_cm0.h ****  *
 642:.\cmsis_core/core_cm0.h ****  * @param  value  value to reverse
 643:.\cmsis_core/core_cm0.h ****  * @return        reversed value
 644:.\cmsis_core/core_cm0.h ****  *
 645:.\cmsis_core/core_cm0.h ****  * Reverse byte order in unsigned short value
 646:.\cmsis_core/core_cm0.h ****  */
 647:.\cmsis_core/core_cm0.h **** extern uint32_t __REV16(uint16_t value);
 648:.\cmsis_core/core_cm0.h **** 
 649:.\cmsis_core/core_cm0.h **** 
 650:.\cmsis_core/core_cm0.h **** #elif (defined (__GNUC__)) /*------------------ GNU Compiler ---------------------*/
 651:.\cmsis_core/core_cm0.h **** /* GNU gcc specific functions */
 652:.\cmsis_core/core_cm0.h **** 
 653:.\cmsis_core/core_cm0.h **** static __INLINE void __enable_irq()               { __ASM volatile ("cpsie i"); }
 654:.\cmsis_core/core_cm0.h **** static __INLINE void __disable_irq()              { __ASM volatile ("cpsid i"); }
 655:.\cmsis_core/core_cm0.h **** 
 656:.\cmsis_core/core_cm0.h **** static __INLINE void __enable_fault_irq()         { __ASM volatile ("cpsie f"); }
 657:.\cmsis_core/core_cm0.h **** static __INLINE void __disable_fault_irq()        { __ASM volatile ("cpsid f"); }
 658:.\cmsis_core/core_cm0.h **** 
 659:.\cmsis_core/core_cm0.h **** static __INLINE void __NOP()                      { __ASM volatile ("nop"); }
 660:.\cmsis_core/core_cm0.h **** static __INLINE void __WFI()                      { __ASM volatile ("wfi"); }
 661:.\cmsis_core/core_cm0.h **** static __INLINE void __WFE()                      { __ASM volatile ("wfe"); }
 662:.\cmsis_core/core_cm0.h **** static __INLINE void __SEV()                      { __ASM volatile ("sev"); }
 663:.\cmsis_core/core_cm0.h **** static __INLINE void __ISB()                      { __ASM volatile ("isb"); }
 664:.\cmsis_core/core_cm0.h **** static __INLINE void __DSB()                      { __ASM volatile ("dsb"); }
 665:.\cmsis_core/core_cm0.h **** static __INLINE void __DMB()                      { __ASM volatile ("dmb"); }
 666:.\cmsis_core/core_cm0.h **** 
 667:.\cmsis_core/core_cm0.h **** 
 668:.\cmsis_core/core_cm0.h **** /**
 669:.\cmsis_core/core_cm0.h ****  * @brief  Return the Process Stack Pointer
 670:.\cmsis_core/core_cm0.h ****  *
 671:.\cmsis_core/core_cm0.h ****  * @return ProcessStackPointer
 672:.\cmsis_core/core_cm0.h ****  *
 673:.\cmsis_core/core_cm0.h ****  * Return the actual process stack pointer
 674:.\cmsis_core/core_cm0.h ****  */
 675:.\cmsis_core/core_cm0.h **** extern uint32_t __get_PSP(void);
 676:.\cmsis_core/core_cm0.h **** 
 677:.\cmsis_core/core_cm0.h **** /**
 678:.\cmsis_core/core_cm0.h ****  * @brief  Set the Process Stack Pointer
 679:.\cmsis_core/core_cm0.h ****  *
 680:.\cmsis_core/core_cm0.h ****  * @param  topOfProcStack  Process Stack Pointer
 681:.\cmsis_core/core_cm0.h ****  *
 682:.\cmsis_core/core_cm0.h ****  * Assign the value ProcessStackPointer to the MSP 
 683:.\cmsis_core/core_cm0.h ****  * (process stack pointer) Cortex processor register
 684:.\cmsis_core/core_cm0.h ****  */
ARM GAS  C:\Users\Mariano\AppData\Local\Temp\ccAk74Yw.s 			page 14


 685:.\cmsis_core/core_cm0.h **** extern void __set_PSP(uint32_t topOfProcStack);
 686:.\cmsis_core/core_cm0.h **** 
 687:.\cmsis_core/core_cm0.h **** /**
 688:.\cmsis_core/core_cm0.h ****  * @brief  Return the Main Stack Pointer
 689:.\cmsis_core/core_cm0.h ****  *
 690:.\cmsis_core/core_cm0.h ****  * @return Main Stack Pointer
 691:.\cmsis_core/core_cm0.h ****  *
 692:.\cmsis_core/core_cm0.h ****  * Return the current value of the MSP (main stack pointer)
 693:.\cmsis_core/core_cm0.h ****  * Cortex processor register
 694:.\cmsis_core/core_cm0.h ****  */
 695:.\cmsis_core/core_cm0.h **** extern uint32_t __get_MSP(void);
 696:.\cmsis_core/core_cm0.h **** 
 697:.\cmsis_core/core_cm0.h **** /**
 698:.\cmsis_core/core_cm0.h ****  * @brief  Set the Main Stack Pointer
 699:.\cmsis_core/core_cm0.h ****  *
 700:.\cmsis_core/core_cm0.h ****  * @param  topOfMainStack  Main Stack Pointer
 701:.\cmsis_core/core_cm0.h ****  *
 702:.\cmsis_core/core_cm0.h ****  * Assign the value mainStackPointer to the MSP 
 703:.\cmsis_core/core_cm0.h ****  * (main stack pointer) Cortex processor register
 704:.\cmsis_core/core_cm0.h ****  */
 705:.\cmsis_core/core_cm0.h **** extern void __set_MSP(uint32_t topOfMainStack);
 706:.\cmsis_core/core_cm0.h **** 
 707:.\cmsis_core/core_cm0.h **** /**
 708:.\cmsis_core/core_cm0.h ****  * @brief  Return the Priority Mask value
 709:.\cmsis_core/core_cm0.h ****  *
 710:.\cmsis_core/core_cm0.h ****  * @return PriMask
 711:.\cmsis_core/core_cm0.h ****  *
 712:.\cmsis_core/core_cm0.h ****  * Return state of the priority mask bit from the priority mask register
 713:.\cmsis_core/core_cm0.h ****  */
 714:.\cmsis_core/core_cm0.h **** extern uint32_t  __get_PRIMASK(void);
 715:.\cmsis_core/core_cm0.h **** 
 716:.\cmsis_core/core_cm0.h **** /**
 717:.\cmsis_core/core_cm0.h ****  * @brief  Set the Priority Mask value
 718:.\cmsis_core/core_cm0.h ****  *
 719:.\cmsis_core/core_cm0.h ****  * @param  priMask  PriMask
 720:.\cmsis_core/core_cm0.h ****  *
 721:.\cmsis_core/core_cm0.h ****  * Set the priority mask bit in the priority mask register
 722:.\cmsis_core/core_cm0.h ****  */
 723:.\cmsis_core/core_cm0.h **** extern void __set_PRIMASK(uint32_t priMask);
 724:.\cmsis_core/core_cm0.h **** 
 725:.\cmsis_core/core_cm0.h **** /**
 726:.\cmsis_core/core_cm0.h ****  * @brief  Return the Control Register value
 727:.\cmsis_core/core_cm0.h **** * 
 728:.\cmsis_core/core_cm0.h **** *  @return Control value
 729:.\cmsis_core/core_cm0.h ****  *
 730:.\cmsis_core/core_cm0.h ****  * Return the content of the control register
 731:.\cmsis_core/core_cm0.h ****  */
 732:.\cmsis_core/core_cm0.h **** extern uint32_t __get_CONTROL(void);
 733:.\cmsis_core/core_cm0.h **** 
 734:.\cmsis_core/core_cm0.h **** /**
 735:.\cmsis_core/core_cm0.h ****  * @brief  Set the Control Register value
 736:.\cmsis_core/core_cm0.h ****  *
 737:.\cmsis_core/core_cm0.h ****  * @param  control  Control value
 738:.\cmsis_core/core_cm0.h ****  *
 739:.\cmsis_core/core_cm0.h ****  * Set the control register
 740:.\cmsis_core/core_cm0.h ****  */
 741:.\cmsis_core/core_cm0.h **** extern void __set_CONTROL(uint32_t control);
ARM GAS  C:\Users\Mariano\AppData\Local\Temp\ccAk74Yw.s 			page 15


 742:.\cmsis_core/core_cm0.h **** 
 743:.\cmsis_core/core_cm0.h **** /**
 744:.\cmsis_core/core_cm0.h ****  * @brief  Reverse byte order in integer value
 745:.\cmsis_core/core_cm0.h ****  *
 746:.\cmsis_core/core_cm0.h ****  * @param  value  value to reverse
 747:.\cmsis_core/core_cm0.h ****  * @return        reversed value
 748:.\cmsis_core/core_cm0.h ****  *
 749:.\cmsis_core/core_cm0.h ****  * Reverse byte order in integer value
 750:.\cmsis_core/core_cm0.h ****  */
 751:.\cmsis_core/core_cm0.h **** extern uint32_t __REV(uint32_t value);
 752:.\cmsis_core/core_cm0.h **** 
 753:.\cmsis_core/core_cm0.h **** /**
 754:.\cmsis_core/core_cm0.h ****  * @brief  Reverse byte order in unsigned short value
 755:.\cmsis_core/core_cm0.h ****  *
 756:.\cmsis_core/core_cm0.h ****  * @param  value  value to reverse
 757:.\cmsis_core/core_cm0.h ****  * @return        reversed value
 758:.\cmsis_core/core_cm0.h ****  *
 759:.\cmsis_core/core_cm0.h ****  * Reverse byte order in unsigned short value
 760:.\cmsis_core/core_cm0.h ****  */
 761:.\cmsis_core/core_cm0.h **** extern uint32_t __REV16(uint16_t value);
 762:.\cmsis_core/core_cm0.h **** 
 763:.\cmsis_core/core_cm0.h **** /**
 764:.\cmsis_core/core_cm0.h ****  * @brief  Reverse byte order in signed short value with sign extension to integer
 765:.\cmsis_core/core_cm0.h ****  *
 766:.\cmsis_core/core_cm0.h ****  * @param  value  value to reverse
 767:.\cmsis_core/core_cm0.h ****  * @return        reversed value
 768:.\cmsis_core/core_cm0.h ****  *
 769:.\cmsis_core/core_cm0.h ****  * Reverse byte order in signed short value with sign extension to integer
 770:.\cmsis_core/core_cm0.h ****  */
 771:.\cmsis_core/core_cm0.h **** extern int32_t __REVSH(int16_t value);
 772:.\cmsis_core/core_cm0.h **** 
 773:.\cmsis_core/core_cm0.h **** 
 774:.\cmsis_core/core_cm0.h **** #elif (defined (__TASKING__)) /*------------------ TASKING Compiler ---------------------*/
 775:.\cmsis_core/core_cm0.h **** /* TASKING carm specific functions */
 776:.\cmsis_core/core_cm0.h **** 
 777:.\cmsis_core/core_cm0.h **** /*
 778:.\cmsis_core/core_cm0.h ****  * The CMSIS functions have been implemented as intrinsics in the compiler.
 779:.\cmsis_core/core_cm0.h ****  * Please use "carm -?i" to get an up to date list of all instrinsics,
 780:.\cmsis_core/core_cm0.h ****  * Including the CMSIS ones.
 781:.\cmsis_core/core_cm0.h ****  */
 782:.\cmsis_core/core_cm0.h **** 
 783:.\cmsis_core/core_cm0.h **** #endif
 784:.\cmsis_core/core_cm0.h **** 
 785:.\cmsis_core/core_cm0.h **** 
 786:.\cmsis_core/core_cm0.h **** /** @addtogroup CMSIS_CM0_Core_FunctionInterface CMSIS CM0 Core Function Interface
 787:.\cmsis_core/core_cm0.h ****   Core  Function Interface containing:
 788:.\cmsis_core/core_cm0.h ****   - Core NVIC Functions
 789:.\cmsis_core/core_cm0.h ****   - Core SysTick Functions
 790:.\cmsis_core/core_cm0.h ****   - Core Reset Functions
 791:.\cmsis_core/core_cm0.h **** */
 792:.\cmsis_core/core_cm0.h **** /*@{*/
 793:.\cmsis_core/core_cm0.h **** 
 794:.\cmsis_core/core_cm0.h **** /* ##########################   NVIC functions  #################################### */
 795:.\cmsis_core/core_cm0.h **** 
 796:.\cmsis_core/core_cm0.h **** /* Interrupt Priorities are WORD accessible only under ARMv6M                   */
 797:.\cmsis_core/core_cm0.h **** /* The following MACROS handle generation of the register offset and byte masks */
 798:.\cmsis_core/core_cm0.h **** #define _BIT_SHIFT(IRQn)         (  (((uint32_t)(IRQn)       )    &  0x03) * 8 )
ARM GAS  C:\Users\Mariano\AppData\Local\Temp\ccAk74Yw.s 			page 16


 799:.\cmsis_core/core_cm0.h **** #define _SHP_IDX(IRQn)           ( ((((uint32_t)(IRQn) & 0x0F)-8) >>    2)     )
 800:.\cmsis_core/core_cm0.h **** #define _IP_IDX(IRQn)            (   ((uint32_t)(IRQn)            >>    2)     )
 801:.\cmsis_core/core_cm0.h **** 
 802:.\cmsis_core/core_cm0.h **** 
 803:.\cmsis_core/core_cm0.h **** /**
 804:.\cmsis_core/core_cm0.h ****  * @brief  Enable Interrupt in NVIC Interrupt Controller
 805:.\cmsis_core/core_cm0.h ****  *
 806:.\cmsis_core/core_cm0.h ****  * @param  IRQn   The positive number of the external interrupt to enable
 807:.\cmsis_core/core_cm0.h ****  *
 808:.\cmsis_core/core_cm0.h ****  * Enable a device specific interupt in the NVIC interrupt controller.
 809:.\cmsis_core/core_cm0.h ****  * The interrupt number cannot be a negative value.
 810:.\cmsis_core/core_cm0.h ****  */
 811:.\cmsis_core/core_cm0.h **** static __INLINE void NVIC_EnableIRQ(IRQn_Type IRQn)
 812:.\cmsis_core/core_cm0.h **** {
  58              		.loc 1 812 0
  59              		.cfi_startproc
  60 0000 82B0     		sub	sp, sp, #8	@,,
  61              	.LCFI0:
  62              		.cfi_def_cfa_offset 8
  63 0002 021C     		mov	r2, r0	@ tmp140, IRQn
  64 0004 6B46     		mov	r3, sp	@ tmp141,
  65 0006 0733     		add	r3, r3, #7	@ tmp141,
  66 0008 1A70     		strb	r2, [r3]	@ tmp142, IRQn
 813:.\cmsis_core/core_cm0.h ****   NVIC->ISER[0] = (1 << ((uint32_t)(IRQn) & 0x1F)); /* enable interrupt */
  67              		.loc 1 813 0
  68 000a 074B     		ldr	r3, .L2	@ D.4762,
  69 000c 6A46     		mov	r2, sp	@ tmp143,
  70 000e 0732     		add	r2, r2, #7	@ tmp143,
  71 0010 1278     		ldrb	r2, [r2]	@ IRQn.0, IRQn
  72 0012 111C     		mov	r1, r2	@ D.4764, IRQn.0
  73 0014 1F22     		mov	r2, #31	@ tmp144,
  74 0016 0A40     		and	r2, r1	@ D.4765, D.4764
  75 0018 0121     		mov	r1, #1	@ tmp145,
  76 001a 081C     		mov	r0, r1	@, tmp145
  77 001c 9040     		lsl	r0, r0, r2	@,, D.4765
  78 001e 021C     		mov	r2, r0	@ D.4766,
  79 0020 1A60     		str	r2, [r3]	@ D.4767, D.4762_1->ISER
 814:.\cmsis_core/core_cm0.h **** }
  80              		.loc 1 814 0
  81 0022 02B0     		add	sp, sp, #8	@,,
  82              		@ sp needed for prologue	@
  83 0024 7047     		bx	lr
  84              	.L3:
  85 0026 C046     		.align	2
  86              	.L2:
  87 0028 00E100E0 		.word	-536813312
  88              		.cfi_endproc
  89              	.LFE11:
  90              		.size	NVIC_EnableIRQ, .-NVIC_EnableIRQ
  91              		.section	.text.NVIC_SetPriority,"ax",%progbits
  92              		.align	2
  93              		.code	16
  94              		.thumb_func
  95              		.type	NVIC_SetPriority, %function
  96              	NVIC_SetPriority:
  97              	.LFB16:
 815:.\cmsis_core/core_cm0.h **** 
ARM GAS  C:\Users\Mariano\AppData\Local\Temp\ccAk74Yw.s 			page 17


 816:.\cmsis_core/core_cm0.h **** /**
 817:.\cmsis_core/core_cm0.h ****  * @brief  Disable the interrupt line for external interrupt specified
 818:.\cmsis_core/core_cm0.h ****  * 
 819:.\cmsis_core/core_cm0.h ****  * @param  IRQn   The positive number of the external interrupt to disable
 820:.\cmsis_core/core_cm0.h ****  * 
 821:.\cmsis_core/core_cm0.h ****  * Disable a device specific interupt in the NVIC interrupt controller.
 822:.\cmsis_core/core_cm0.h ****  * The interrupt number cannot be a negative value.
 823:.\cmsis_core/core_cm0.h ****  */
 824:.\cmsis_core/core_cm0.h **** static __INLINE void NVIC_DisableIRQ(IRQn_Type IRQn)
 825:.\cmsis_core/core_cm0.h **** {
 826:.\cmsis_core/core_cm0.h ****   NVIC->ICER[0] = (1 << ((uint32_t)(IRQn) & 0x1F)); /* disable interrupt */
 827:.\cmsis_core/core_cm0.h **** }
 828:.\cmsis_core/core_cm0.h **** 
 829:.\cmsis_core/core_cm0.h **** /**
 830:.\cmsis_core/core_cm0.h ****  * @brief  Read the interrupt pending bit for a device specific interrupt source
 831:.\cmsis_core/core_cm0.h ****  * 
 832:.\cmsis_core/core_cm0.h ****  * @param  IRQn    The number of the device specifc interrupt
 833:.\cmsis_core/core_cm0.h ****  * @return         1 = interrupt pending, 0 = interrupt not pending
 834:.\cmsis_core/core_cm0.h ****  *
 835:.\cmsis_core/core_cm0.h ****  * Read the pending register in NVIC and return 1 if its status is pending, 
 836:.\cmsis_core/core_cm0.h ****  * otherwise it returns 0
 837:.\cmsis_core/core_cm0.h ****  */
 838:.\cmsis_core/core_cm0.h **** static __INLINE uint32_t NVIC_GetPendingIRQ(IRQn_Type IRQn)
 839:.\cmsis_core/core_cm0.h **** {
 840:.\cmsis_core/core_cm0.h ****   return((uint32_t) ((NVIC->ISPR[0] & (1 << ((uint32_t)(IRQn) & 0x1F)))?1:0)); /* Return 1 if pendi
 841:.\cmsis_core/core_cm0.h **** }
 842:.\cmsis_core/core_cm0.h **** 
 843:.\cmsis_core/core_cm0.h **** /**
 844:.\cmsis_core/core_cm0.h ****  * @brief  Set the pending bit for an external interrupt
 845:.\cmsis_core/core_cm0.h ****  * 
 846:.\cmsis_core/core_cm0.h ****  * @param  IRQn    The number of the interrupt for set pending
 847:.\cmsis_core/core_cm0.h ****  *
 848:.\cmsis_core/core_cm0.h ****  * Set the pending bit for the specified interrupt.
 849:.\cmsis_core/core_cm0.h ****  * The interrupt number cannot be a negative value.
 850:.\cmsis_core/core_cm0.h ****  */
 851:.\cmsis_core/core_cm0.h **** static __INLINE void NVIC_SetPendingIRQ(IRQn_Type IRQn)
 852:.\cmsis_core/core_cm0.h **** {
 853:.\cmsis_core/core_cm0.h ****   NVIC->ISPR[0] = (1 << ((uint32_t)(IRQn) & 0x1F)); /* set interrupt pending */
 854:.\cmsis_core/core_cm0.h **** }
 855:.\cmsis_core/core_cm0.h **** 
 856:.\cmsis_core/core_cm0.h **** /**
 857:.\cmsis_core/core_cm0.h ****  * @brief  Clear the pending bit for an external interrupt
 858:.\cmsis_core/core_cm0.h ****  *
 859:.\cmsis_core/core_cm0.h ****  * @param  IRQn    The number of the interrupt for clear pending
 860:.\cmsis_core/core_cm0.h ****  *
 861:.\cmsis_core/core_cm0.h ****  * Clear the pending bit for the specified interrupt. 
 862:.\cmsis_core/core_cm0.h ****  * The interrupt number cannot be a negative value.
 863:.\cmsis_core/core_cm0.h ****  */
 864:.\cmsis_core/core_cm0.h **** static __INLINE void NVIC_ClearPendingIRQ(IRQn_Type IRQn)
 865:.\cmsis_core/core_cm0.h **** {
 866:.\cmsis_core/core_cm0.h ****   NVIC->ICPR[0] = (1 << ((uint32_t)(IRQn) & 0x1F)); /* Clear pending interrupt */
 867:.\cmsis_core/core_cm0.h **** }
 868:.\cmsis_core/core_cm0.h **** 
 869:.\cmsis_core/core_cm0.h **** /**
 870:.\cmsis_core/core_cm0.h ****  * @brief  Set the priority for an interrupt
 871:.\cmsis_core/core_cm0.h ****  *
 872:.\cmsis_core/core_cm0.h ****  * @param  IRQn      The number of the interrupt for set priority
ARM GAS  C:\Users\Mariano\AppData\Local\Temp\ccAk74Yw.s 			page 18


 873:.\cmsis_core/core_cm0.h ****  * @param  priority  The priority to set
 874:.\cmsis_core/core_cm0.h ****  *
 875:.\cmsis_core/core_cm0.h ****  * Set the priority for the specified interrupt. The interrupt 
 876:.\cmsis_core/core_cm0.h ****  * number can be positive to specify an external (device specific) 
 877:.\cmsis_core/core_cm0.h ****  * interrupt, or negative to specify an internal (core) interrupt.
 878:.\cmsis_core/core_cm0.h ****  *
 879:.\cmsis_core/core_cm0.h ****  * Note: The priority cannot be set for every core interrupt.
 880:.\cmsis_core/core_cm0.h ****  */
 881:.\cmsis_core/core_cm0.h **** /*
 882:.\cmsis_core/core_cm0.h **** static __INLINE void NVIC_SetPriority(IRQn_Type IRQn, uint32_t priority)
 883:.\cmsis_core/core_cm0.h **** {
 884:.\cmsis_core/core_cm0.h ****   if(IRQn < 0) {
 885:.\cmsis_core/core_cm0.h ****     SCB->SHP[_SHP_IDX(IRQn)] = (SCB->SHP[_SHP_IDX(IRQn)] & ~(0xFF << _BIT_SHIFT(IRQn))) | 
 886:.\cmsis_core/core_cm0.h ****         (((priority << (8 - __NVIC_PRIO_BITS)) & 0xFF) << _BIT_SHIFT(IRQn)); }
 887:.\cmsis_core/core_cm0.h ****   else {
 888:.\cmsis_core/core_cm0.h ****     NVIC->IPR[_IP_IDX(IRQn)] = (NVIC->IPR[_IP_IDX(IRQn)] & ~(0xFF << _BIT_SHIFT(IRQn))) |
 889:.\cmsis_core/core_cm0.h ****         (((priority << (8 - __NVIC_PRIO_BITS)) & 0xFF) << _BIT_SHIFT(IRQn)); }
 890:.\cmsis_core/core_cm0.h **** }
 891:.\cmsis_core/core_cm0.h **** */
 892:.\cmsis_core/core_cm0.h **** static __INLINE void NVIC_SetPriority(IRQn_Type IRQn, uint32_t priority)
 893:.\cmsis_core/core_cm0.h **** {
  98              		.loc 1 893 0
  99              		.cfi_startproc
 100 0000 30B5     		push	{r4, r5, lr}	@
 101              	.LCFI1:
 102              		.cfi_def_cfa_offset 12
 103              		.cfi_offset 4, -12
 104              		.cfi_offset 5, -8
 105              		.cfi_offset 14, -4
 106 0002 83B0     		sub	sp, sp, #12	@,,
 107              	.LCFI2:
 108              		.cfi_def_cfa_offset 24
 109 0004 021C     		mov	r2, r0	@ tmp190, IRQn
 110 0006 0091     		str	r1, [sp]	@ priority, priority
 111 0008 6B46     		mov	r3, sp	@ tmp191,
 112 000a 0733     		add	r3, r3, #7	@ tmp191,
 113 000c 1A70     		strb	r2, [r3]	@ tmp192, IRQn
 894:.\cmsis_core/core_cm0.h ****   if(IRQn < 0) {
 114              		.loc 1 894 0
 115 000e 6B46     		mov	r3, sp	@ tmp193,
 116 0010 0733     		add	r3, r3, #7	@ tmp193,
 117 0012 1B78     		ldrb	r3, [r3]	@ tmp194, IRQn
 118 0014 7F2B     		cmp	r3, #127	@ tmp194,
 119 0016 36D9     		bls	.L5	@,
 895:.\cmsis_core/core_cm0.h ****     SCB->SHP[_SHP_IDX(IRQn)] = (SCB->SHP[_SHP_IDX(IRQn)] & ~(0xFF << _BIT_SHIFT(IRQn))) |
 120              		.loc 1 895 0
 121 0018 3349     		ldr	r1, .L7	@ D.4770,
 122 001a 6B46     		mov	r3, sp	@ tmp195,
 123 001c 0733     		add	r3, r3, #7	@ tmp195,
 124 001e 1B78     		ldrb	r3, [r3]	@ IRQn.1, IRQn
 125 0020 1A1C     		mov	r2, r3	@ D.4772, IRQn.1
 126 0022 0F23     		mov	r3, #15	@ tmp196,
 127 0024 1340     		and	r3, r2	@ D.4773, D.4772
 128 0026 083B     		sub	r3, r3, #8	@ D.4774,
 129 0028 9808     		lsr	r0, r3, #2	@ D.4775, D.4774,
 130 002a 2F4A     		ldr	r2, .L7	@ D.4776,
 131 002c 6B46     		mov	r3, sp	@ tmp197,
ARM GAS  C:\Users\Mariano\AppData\Local\Temp\ccAk74Yw.s 			page 19


 132 002e 0733     		add	r3, r3, #7	@ tmp197,
 133 0030 1B78     		ldrb	r3, [r3]	@ IRQn.2, IRQn
 134 0032 1C1C     		mov	r4, r3	@ D.4778, IRQn.2
 135 0034 0F23     		mov	r3, #15	@ tmp198,
 136 0036 2340     		and	r3, r4	@ D.4779, D.4778
 137 0038 083B     		sub	r3, r3, #8	@ D.4780,
 138 003a 9B08     		lsr	r3, r3, #2	@ D.4781, D.4780,
 139 003c 0633     		add	r3, r3, #6	@ tmp199,
 140 003e 9B00     		lsl	r3, r3, #2	@ tmp200, tmp199,
 141 0040 D318     		add	r3, r2, r3	@ tmp201, D.4776, tmp200
 142 0042 5B68     		ldr	r3, [r3, #4]	@ D.4782, D.4776_8->SHP
 143 0044 6A46     		mov	r2, sp	@ tmp202,
 144 0046 0732     		add	r2, r2, #7	@ tmp202,
 145 0048 1278     		ldrb	r2, [r2]	@ IRQn.3, IRQn
 146 004a 141C     		mov	r4, r2	@ D.4784, IRQn.3
 147 004c 0322     		mov	r2, #3	@ tmp203,
 148 004e 2240     		and	r2, r4	@ D.4785, D.4784
 149 0050 D200     		lsl	r2, r2, #3	@ D.4786, D.4785,
 150 0052 FF24     		mov	r4, #255	@ tmp204,
 151 0054 251C     		mov	r5, r4	@, tmp204
 152 0056 9540     		lsl	r5, r5, r2	@,, D.4787
 153 0058 2A1C     		mov	r2, r5	@ D.4788,
 154 005a D243     		mvn	r2, r2	@ D.4789, D.4788
 155 005c 1A40     		and	r2, r3	@ D.4791, D.4782
 896:.\cmsis_core/core_cm0.h ****         (((priority << (8 - __NVIC_PRIO_BITS)) & 0xFF) << _BIT_SHIFT(IRQn)); }
 156              		.loc 1 896 0
 157 005e 009B     		ldr	r3, [sp]	@ tmp205, priority
 158 0060 9C01     		lsl	r4, r3, #6	@ D.4792, tmp205,
 159 0062 FF23     		mov	r3, #255	@ tmp206,
 160 0064 1C40     		and	r4, r3	@ D.4793, tmp206
 161 0066 6B46     		mov	r3, sp	@ tmp207,
 162 0068 0733     		add	r3, r3, #7	@ tmp207,
 163 006a 1B78     		ldrb	r3, [r3]	@ IRQn.4, IRQn
 164 006c 1D1C     		mov	r5, r3	@ D.4795, IRQn.4
 165 006e 0323     		mov	r3, #3	@ tmp208,
 166 0070 2B40     		and	r3, r5	@ D.4796, D.4795
 167 0072 DB00     		lsl	r3, r3, #3	@ D.4797, D.4796,
 168 0074 251C     		mov	r5, r4	@, D.4793
 169 0076 9D40     		lsl	r5, r5, r3	@,, D.4798
 170 0078 2B1C     		mov	r3, r5	@ D.4799,
 895:.\cmsis_core/core_cm0.h ****     SCB->SHP[_SHP_IDX(IRQn)] = (SCB->SHP[_SHP_IDX(IRQn)] & ~(0xFF << _BIT_SHIFT(IRQn))) |
 171              		.loc 1 895 0
 172 007a 1A43     		orr	r2, r3	@ D.4800, D.4799
 173 007c 831D     		add	r3, r0, #6	@ tmp209, D.4775,
 174 007e 9B00     		lsl	r3, r3, #2	@ tmp210, tmp209,
 175 0080 CB18     		add	r3, r1, r3	@ tmp211, D.4770, tmp210
 176 0082 5A60     		str	r2, [r3, #4]	@ D.4800, D.4770_2->SHP
 177 0084 2DE0     		b	.L4	@
 178              	.L5:
 897:.\cmsis_core/core_cm0.h ****   else {
 898:.\cmsis_core/core_cm0.h ****     NVIC->IP[_IP_IDX(IRQn)] = (NVIC->IP[_IP_IDX(IRQn)] & ~(0xFF << _BIT_SHIFT(IRQn))) |
 179              		.loc 1 898 0
 180 0086 194B     		ldr	r3, .L7+4	@ D.4802,
 181 0088 6A46     		mov	r2, sp	@ tmp212,
 182 008a 0732     		add	r2, r2, #7	@ tmp212,
 183 008c 1278     		ldrb	r2, [r2]	@ D.4803, IRQn
 184 008e 52B2     		sxtb	r2, r2	@ D.4803, D.4803
ARM GAS  C:\Users\Mariano\AppData\Local\Temp\ccAk74Yw.s 			page 20


 185 0090 9208     		lsr	r2, r2, #2	@ D.4804, D.4803,
 186 0092 1649     		ldr	r1, .L7+4	@ D.4805,
 187 0094 6846     		mov	r0, sp	@ tmp213,
 188 0096 0730     		add	r0, r0, #7	@ tmp213,
 189 0098 0078     		ldrb	r0, [r0]	@ D.4806, IRQn
 190 009a 40B2     		sxtb	r0, r0	@ D.4806, D.4806
 191 009c 8008     		lsr	r0, r0, #2	@ D.4807, D.4806,
 192 009e C030     		add	r0, r0, #192	@ tmp214,
 193 00a0 8000     		lsl	r0, r0, #2	@ tmp215, tmp214,
 194 00a2 4158     		ldr	r1, [r0, r1]	@ D.4808, D.4805_37->IP
 195 00a4 6846     		mov	r0, sp	@ tmp216,
 196 00a6 0730     		add	r0, r0, #7	@ tmp216,
 197 00a8 0078     		ldrb	r0, [r0]	@ IRQn.5, IRQn
 198 00aa 041C     		mov	r4, r0	@ D.4810, IRQn.5
 199 00ac 0320     		mov	r0, #3	@ tmp217,
 200 00ae 2040     		and	r0, r4	@ D.4811, D.4810
 201 00b0 C000     		lsl	r0, r0, #3	@ D.4812, D.4811,
 202 00b2 FF24     		mov	r4, #255	@ tmp218,
 203 00b4 251C     		mov	r5, r4	@, tmp218
 204 00b6 8540     		lsl	r5, r5, r0	@,, D.4813
 205 00b8 281C     		mov	r0, r5	@ D.4814,
 206 00ba C043     		mvn	r0, r0	@ D.4815, D.4814
 207 00bc 0840     		and	r0, r1	@ D.4817, D.4808
 899:.\cmsis_core/core_cm0.h ****         (((priority << (8 - __NVIC_PRIO_BITS)) & 0xFF) << _BIT_SHIFT(IRQn)); }
 208              		.loc 1 899 0
 209 00be 0099     		ldr	r1, [sp]	@ tmp219, priority
 210 00c0 8C01     		lsl	r4, r1, #6	@ D.4818, tmp219,
 211 00c2 FF21     		mov	r1, #255	@ tmp220,
 212 00c4 0C40     		and	r4, r1	@ D.4819, tmp220
 213 00c6 6946     		mov	r1, sp	@ tmp221,
 214 00c8 0731     		add	r1, r1, #7	@ tmp221,
 215 00ca 0978     		ldrb	r1, [r1]	@ IRQn.6, IRQn
 216 00cc 0D1C     		mov	r5, r1	@ D.4821, IRQn.6
 217 00ce 0321     		mov	r1, #3	@ tmp222,
 218 00d0 2940     		and	r1, r5	@ D.4822, D.4821
 219 00d2 C900     		lsl	r1, r1, #3	@ D.4823, D.4822,
 220 00d4 251C     		mov	r5, r4	@, D.4819
 221 00d6 8D40     		lsl	r5, r5, r1	@,, D.4824
 222 00d8 291C     		mov	r1, r5	@ D.4825,
 898:.\cmsis_core/core_cm0.h ****     NVIC->IP[_IP_IDX(IRQn)] = (NVIC->IP[_IP_IDX(IRQn)] & ~(0xFF << _BIT_SHIFT(IRQn))) |
 223              		.loc 1 898 0
 224 00da 0143     		orr	r1, r0	@ D.4826, D.4817
 225 00dc C032     		add	r2, r2, #192	@ tmp223,
 226 00de 9200     		lsl	r2, r2, #2	@ tmp224, tmp223,
 227 00e0 D150     		str	r1, [r2, r3]	@ D.4826, D.4802_34->IP
 228              	.L4:
 900:.\cmsis_core/core_cm0.h **** }
 229              		.loc 1 900 0
 230 00e2 03B0     		add	sp, sp, #12	@,,
 231              		@ sp needed for prologue	@
 232 00e4 30BD     		pop	{r4, r5, pc}
 233              	.L8:
 234 00e6 C046     		.align	2
 235              	.L7:
 236 00e8 00ED00E0 		.word	-536810240
 237 00ec 00E100E0 		.word	-536813312
 238              		.cfi_endproc
ARM GAS  C:\Users\Mariano\AppData\Local\Temp\ccAk74Yw.s 			page 21


 239              	.LFE16:
 240              		.size	NVIC_SetPriority, .-NVIC_SetPriority
 241              		.section	.text.GPIO_Config,"ax",%progbits
 242              		.align	2
 243              		.global	GPIO_Config
 244              		.code	16
 245              		.thumb_func
 246              		.type	GPIO_Config, %function
 247              	GPIO_Config:
 248              	.LFB20:
 249              		.file 2 ".\\src\\stm32f0x_gpio.c"
   1:.\src/stm32f0x_gpio.c **** /**
   2:.\src/stm32f0x_gpio.c ****   ******************************************************************************
   3:.\src/stm32f0x_gpio.c ****   * @file    Template_2/stm32f0_gpio.c
   4:.\src/stm32f0x_gpio.c ****   * @author  Nahuel
   5:.\src/stm32f0x_gpio.c ****   * @version V1.0
   6:.\src/stm32f0x_gpio.c ****   * @date    22-August-2014
   7:.\src/stm32f0x_gpio.c ****   * @brief   GPIO functions.
   8:.\src/stm32f0x_gpio.c ****   ******************************************************************************
   9:.\src/stm32f0x_gpio.c ****   * @attention
  10:.\src/stm32f0x_gpio.c ****   *
  11:.\src/stm32f0x_gpio.c ****   * Use this functions to configure global inputs/outputs.
  12:.\src/stm32f0x_gpio.c ****   *
  13:.\src/stm32f0x_gpio.c ****   ******************************************************************************
  14:.\src/stm32f0x_gpio.c ****   */
  15:.\src/stm32f0x_gpio.c **** 
  16:.\src/stm32f0x_gpio.c **** /* Includes ------------------------------------------------------------------*/
  17:.\src/stm32f0x_gpio.c **** #include "stm32f0x_gpio.h"
  18:.\src/stm32f0x_gpio.c **** #include "stm32f0xx_gpio.h"
  19:.\src/stm32f0x_gpio.c **** #include "stm32f0xx_misc.h"
  20:.\src/stm32f0x_gpio.c **** #include "stm32f0xx_exti.h"
  21:.\src/stm32f0x_gpio.c **** 
  22:.\src/stm32f0x_gpio.c **** #include "hard.h"
  23:.\src/stm32f0x_gpio.c **** 
  24:.\src/stm32f0x_gpio.c **** 
  25:.\src/stm32f0x_gpio.c **** 
  26:.\src/stm32f0x_gpio.c **** //--- Private typedef ---//
  27:.\src/stm32f0x_gpio.c **** //--- Private define ---//
  28:.\src/stm32f0x_gpio.c **** //--- Private macro ---//
  29:.\src/stm32f0x_gpio.c **** //--- Private variables ---//
  30:.\src/stm32f0x_gpio.c **** //--- Private function prototypes ---//
  31:.\src/stm32f0x_gpio.c **** //--- Private functions ---//
  32:.\src/stm32f0x_gpio.c **** 
  33:.\src/stm32f0x_gpio.c **** //-------------------------------------------//
  34:.\src/stm32f0x_gpio.c **** // @brief  GPIO configure.
  35:.\src/stm32f0x_gpio.c **** // @param  None
  36:.\src/stm32f0x_gpio.c **** // @retval None
  37:.\src/stm32f0x_gpio.c **** //------------------------------------------//
  38:.\src/stm32f0x_gpio.c **** void GPIO_Config (void)
  39:.\src/stm32f0x_gpio.c **** {
 250              		.loc 2 39 0
 251              		.cfi_startproc
 252 0000 00B5     		push	{lr}	@
 253              	.LCFI3:
 254              		.cfi_def_cfa_offset 4
 255              		.cfi_offset 14, -4
 256 0002 85B0     		sub	sp, sp, #20	@,,
ARM GAS  C:\Users\Mariano\AppData\Local\Temp\ccAk74Yw.s 			page 22


 257              	.LCFI4:
 258              		.cfi_def_cfa_offset 24
  40:.\src/stm32f0x_gpio.c **** 	unsigned long temp;
  41:.\src/stm32f0x_gpio.c **** 	EXTI_InitTypeDef EXTI_InitStructure;
  42:.\src/stm32f0x_gpio.c **** //	NVIC_InitTypeDef NVIC_InitStructure;
  43:.\src/stm32f0x_gpio.c **** 
  44:.\src/stm32f0x_gpio.c **** 
  45:.\src/stm32f0x_gpio.c **** 	//--- MODER ---//
  46:.\src/stm32f0x_gpio.c **** 	//00: Input mode (reset state)
  47:.\src/stm32f0x_gpio.c **** 	//01: General purpose output mode
  48:.\src/stm32f0x_gpio.c **** 	//10: Alternate function mode
  49:.\src/stm32f0x_gpio.c **** 	//11: Analog mode
  50:.\src/stm32f0x_gpio.c **** 
  51:.\src/stm32f0x_gpio.c **** 	//--- OTYPER ---//
  52:.\src/stm32f0x_gpio.c **** 	//These bits are written by software to configure the I/O output type.
  53:.\src/stm32f0x_gpio.c **** 	//0: Output push-pull (reset state)
  54:.\src/stm32f0x_gpio.c **** 	//1: Output open-drain
  55:.\src/stm32f0x_gpio.c **** 
  56:.\src/stm32f0x_gpio.c **** 	//--- ORSPEEDR ---//
  57:.\src/stm32f0x_gpio.c **** 	//These bits are written by software to configure the I/O output speed.
  58:.\src/stm32f0x_gpio.c **** 	//x0: Low speed.
  59:.\src/stm32f0x_gpio.c **** 	//01: Medium speed.
  60:.\src/stm32f0x_gpio.c **** 	//11: High speed.
  61:.\src/stm32f0x_gpio.c **** 	//Note: Refer to the device datasheet for the frequency.
  62:.\src/stm32f0x_gpio.c **** 
  63:.\src/stm32f0x_gpio.c **** 	//--- PUPDR ---//
  64:.\src/stm32f0x_gpio.c **** 	//These bits are written by software to configure the I/O pull-up or pull-down
  65:.\src/stm32f0x_gpio.c **** 	//00: No pull-up, pull-down
  66:.\src/stm32f0x_gpio.c **** 	//01: Pull-up
  67:.\src/stm32f0x_gpio.c **** 	//10: Pull-down
  68:.\src/stm32f0x_gpio.c **** 	//11: Reserved
  69:.\src/stm32f0x_gpio.c **** 
  70:.\src/stm32f0x_gpio.c **** 
  71:.\src/stm32f0x_gpio.c **** #ifdef GPIOA_ENABLE
  72:.\src/stm32f0x_gpio.c **** 
  73:.\src/stm32f0x_gpio.c **** 	//--- GPIO A ---//
  74:.\src/stm32f0x_gpio.c **** 	if (!GPIOA_CLK)
 259              		.loc 2 74 0
 260 0004 524B     		ldr	r3, .L12	@ D.4724,
 261 0006 5A69     		ldr	r2, [r3, #20]	@ D.4725, D.4724_1->AHBENR
 262 0008 8023     		mov	r3, #128	@ tmp257,
 263 000a 9B02     		lsl	r3, r3, #10	@ tmp168, tmp257,
 264 000c 1340     		and	r3, r2	@ D.4726, D.4725
 265 000e 06D1     		bne	.L10	@,
  75:.\src/stm32f0x_gpio.c **** 		GPIOA_CLK_ON;
 266              		.loc 2 75 0
 267 0010 4F4B     		ldr	r3, .L12	@ D.4729,
 268 0012 4F4A     		ldr	r2, .L12	@ D.4730,
 269 0014 5269     		ldr	r2, [r2, #20]	@ D.4731, D.4730_5->AHBENR
 270 0016 8021     		mov	r1, #128	@ tmp256,
 271 0018 8902     		lsl	r1, r1, #10	@ tmp169, tmp256,
 272 001a 0A43     		orr	r2, r1	@ D.4732, tmp169
 273 001c 5A61     		str	r2, [r3, #20]	@ D.4732, D.4729_4->AHBENR
 274              	.L10:
  76:.\src/stm32f0x_gpio.c **** 
  77:.\src/stm32f0x_gpio.c **** #ifdef VER_1_0
  78:.\src/stm32f0x_gpio.c **** 	temp = GPIOA->MODER;	//2 bits por pin
ARM GAS  C:\Users\Mariano\AppData\Local\Temp\ccAk74Yw.s 			page 23


 275              		.loc 2 78 0
 276 001e 9023     		mov	r3, #144	@ tmp245,
 277 0020 DB05     		lsl	r3, r3, #23	@ D.4733, tmp245,
 278 0022 1B68     		ldr	r3, [r3]	@ tmp170, D.4733_8->MODER
 279 0024 0393     		str	r3, [sp, #12]	@ tmp170, temp
  79:.\src/stm32f0x_gpio.c **** 	temp &= 0x3C000000;		//PA0 - PA5 out push_pull; PA6 alternate function; PA7 out push pull;
 280              		.loc 2 79 0
 281 0026 039A     		ldr	r2, [sp, #12]	@ tmp172, temp
 282 0028 F023     		mov	r3, #240	@ tmp246,
 283 002a 9B05     		lsl	r3, r3, #22	@ tmp173, tmp246,
 284 002c 1340     		and	r3, r2	@ tmp171, tmp172
 285 002e 0393     		str	r3, [sp, #12]	@ tmp171, temp
  80:.\src/stm32f0x_gpio.c **** 	temp |= 0x01686555;		//PA8 input; PA9 PA10 alternativa; PA11 PA12 out push_pull; PA15 input
 286              		.loc 2 80 0
 287 0030 039B     		ldr	r3, [sp, #12]	@ tmp175, temp
 288 0032 484A     		ldr	r2, .L12+4	@ tmp176,
 289 0034 1343     		orr	r3, r2	@ tmp174, tmp176
 290 0036 0393     		str	r3, [sp, #12]	@ tmp174, temp
  81:.\src/stm32f0x_gpio.c **** 	GPIOA->MODER = temp;
 291              		.loc 2 81 0
 292 0038 9023     		mov	r3, #144	@ tmp247,
 293 003a DB05     		lsl	r3, r3, #23	@ D.4734, tmp247,
 294 003c 039A     		ldr	r2, [sp, #12]	@ tmp177, temp
 295 003e 1A60     		str	r2, [r3]	@ tmp177, D.4734_12->MODER
  82:.\src/stm32f0x_gpio.c **** 
  83:.\src/stm32f0x_gpio.c **** 	temp = GPIOA->OTYPER;	//1 bit por pin
 296              		.loc 2 83 0
 297 0040 9023     		mov	r3, #144	@ tmp248,
 298 0042 DB05     		lsl	r3, r3, #23	@ D.4735, tmp248,
 299 0044 9B88     		ldrh	r3, [r3, #4]	@ tmp178,
 300 0046 9BB2     		uxth	r3, r3	@ D.4736, tmp178
 301 0048 0393     		str	r3, [sp, #12]	@ D.4736, temp
  84:.\src/stm32f0x_gpio.c **** 	temp &= 0xFFFFE700;
 302              		.loc 2 84 0
 303 004a 039A     		ldr	r2, [sp, #12]	@ tmp180, temp
 304 004c 424B     		ldr	r3, .L12+8	@ tmp181,
 305 004e 1340     		and	r3, r2	@ tmp179, tmp180
 306 0050 0393     		str	r3, [sp, #12]	@ tmp179, temp
  85:.\src/stm32f0x_gpio.c **** 	temp |= 0x00000000;		//PA0 a PA7 push pull; PA11 PA12 push pull
  86:.\src/stm32f0x_gpio.c **** 	GPIOA->OTYPER = temp;
 307              		.loc 2 86 0
 308 0052 9023     		mov	r3, #144	@ tmp249,
 309 0054 DB05     		lsl	r3, r3, #23	@ D.4737, tmp249,
 310 0056 039A     		ldr	r2, [sp, #12]	@ tmp183, temp
 311 0058 92B2     		uxth	r2, r2	@ D.4738, tmp182
 312 005a 9A80     		strh	r2, [r3, #4]	@ tmp184, D.4737_18->OTYPER
  87:.\src/stm32f0x_gpio.c **** 
  88:.\src/stm32f0x_gpio.c **** 	temp = GPIOA->OSPEEDR;	//2 bits por pin
 313              		.loc 2 88 0
 314 005c 9023     		mov	r3, #144	@ tmp250,
 315 005e DB05     		lsl	r3, r3, #23	@ D.4739, tmp250,
 316 0060 9B68     		ldr	r3, [r3, #8]	@ tmp185, D.4739_20->OSPEEDR
 317 0062 0393     		str	r3, [sp, #12]	@ tmp185, temp
  89:.\src/stm32f0x_gpio.c **** 	temp &= 0xFC3F0000;
 318              		.loc 2 89 0
 319 0064 039A     		ldr	r2, [sp, #12]	@ tmp187, temp
 320 0066 3D4B     		ldr	r3, .L12+12	@ tmp188,
ARM GAS  C:\Users\Mariano\AppData\Local\Temp\ccAk74Yw.s 			page 24


 321 0068 1340     		and	r3, r2	@ tmp186, tmp187
 322 006a 0393     		str	r3, [sp, #12]	@ tmp186, temp
  90:.\src/stm32f0x_gpio.c **** 	temp |= 0x00000000;		//low speed
  91:.\src/stm32f0x_gpio.c **** 	GPIOA->OSPEEDR = temp;
 323              		.loc 2 91 0
 324 006c 9023     		mov	r3, #144	@ tmp251,
 325 006e DB05     		lsl	r3, r3, #23	@ D.4740, tmp251,
 326 0070 039A     		ldr	r2, [sp, #12]	@ tmp189, temp
 327 0072 9A60     		str	r2, [r3, #8]	@ tmp189, D.4740_24->OSPEEDR
  92:.\src/stm32f0x_gpio.c **** 
  93:.\src/stm32f0x_gpio.c **** 	temp = GPIOA->PUPDR;	//2 bits por pin
 328              		.loc 2 93 0
 329 0074 9023     		mov	r3, #144	@ tmp252,
 330 0076 DB05     		lsl	r3, r3, #23	@ D.4741, tmp252,
 331 0078 DB68     		ldr	r3, [r3, #12]	@ tmp190, D.4741_25->PUPDR
 332 007a 0393     		str	r3, [sp, #12]	@ tmp190, temp
  94:.\src/stm32f0x_gpio.c **** 	temp &= 0x3FFFFFFF;
 333              		.loc 2 94 0
 334 007c 039B     		ldr	r3, [sp, #12]	@ tmp192, temp
 335 007e 9B00     		lsl	r3, r3, #2	@ tmp193, tmp192,
 336 0080 9B08     		lsr	r3, r3, #2	@ tmp191, tmp193,
 337 0082 0393     		str	r3, [sp, #12]	@ tmp191, temp
  95:.\src/stm32f0x_gpio.c **** 	temp |= 0x40000000;		//PA15 con pullup
 338              		.loc 2 95 0
 339 0084 039B     		ldr	r3, [sp, #12]	@ tmp195, temp
 340 0086 8022     		mov	r2, #128	@ tmp253,
 341 0088 D205     		lsl	r2, r2, #23	@ tmp196, tmp253,
 342 008a 1343     		orr	r3, r2	@ tmp194, tmp196
 343 008c 0393     		str	r3, [sp, #12]	@ tmp194, temp
  96:.\src/stm32f0x_gpio.c **** 	GPIOA->PUPDR = temp;
 344              		.loc 2 96 0
 345 008e 9023     		mov	r3, #144	@ tmp254,
 346 0090 DB05     		lsl	r3, r3, #23	@ D.4742, tmp254,
 347 0092 039A     		ldr	r2, [sp, #12]	@ tmp197, temp
 348 0094 DA60     		str	r2, [r3, #12]	@ tmp197, D.4742_29->PUPDR
  97:.\src/stm32f0x_gpio.c **** #endif
  98:.\src/stm32f0x_gpio.c **** 
  99:.\src/stm32f0x_gpio.c **** 
 100:.\src/stm32f0x_gpio.c **** 	//Alternate Fuction
 101:.\src/stm32f0x_gpio.c **** 	//GPIOA->AFR[0] = 0x11000000;	//PA7 -> AF1; PA6 -> AF1
 102:.\src/stm32f0x_gpio.c **** 
 103:.\src/stm32f0x_gpio.c **** 
 104:.\src/stm32f0x_gpio.c **** #endif
 105:.\src/stm32f0x_gpio.c **** 
 106:.\src/stm32f0x_gpio.c **** #ifdef GPIOB_ENABLE
 107:.\src/stm32f0x_gpio.c **** 
 108:.\src/stm32f0x_gpio.c **** 	//--- GPIO B ---//
 109:.\src/stm32f0x_gpio.c **** 	if (!GPIOB_CLK)
 349              		.loc 2 109 0
 350 0096 2E4B     		ldr	r3, .L12	@ D.4743,
 351 0098 5A69     		ldr	r2, [r3, #20]	@ D.4744, D.4743_30->AHBENR
 352 009a 8023     		mov	r3, #128	@ tmp255,
 353 009c DB02     		lsl	r3, r3, #11	@ tmp198, tmp255,
 354 009e 1340     		and	r3, r2	@ D.4745, D.4744
 355 00a0 06D1     		bne	.L11	@,
 110:.\src/stm32f0x_gpio.c **** 		GPIOB_CLK_ON;
 356              		.loc 2 110 0
ARM GAS  C:\Users\Mariano\AppData\Local\Temp\ccAk74Yw.s 			page 25


 357 00a2 2B4B     		ldr	r3, .L12	@ D.4748,
 358 00a4 2A4A     		ldr	r2, .L12	@ D.4749,
 359 00a6 5269     		ldr	r2, [r2, #20]	@ D.4750, D.4749_34->AHBENR
 360 00a8 8021     		mov	r1, #128	@ tmp244,
 361 00aa C902     		lsl	r1, r1, #11	@ tmp199, tmp244,
 362 00ac 0A43     		orr	r2, r1	@ D.4751, tmp199
 363 00ae 5A61     		str	r2, [r3, #20]	@ D.4751, D.4748_33->AHBENR
 364              	.L11:
 111:.\src/stm32f0x_gpio.c **** 
 112:.\src/stm32f0x_gpio.c **** 	temp = GPIOB->MODER;	//2 bits por pin
 365              		.loc 2 112 0
 366 00b0 2B4B     		ldr	r3, .L12+16	@ D.4752,
 367 00b2 1B68     		ldr	r3, [r3]	@ tmp200, D.4752_37->MODER
 368 00b4 0393     		str	r3, [sp, #12]	@ tmp200, temp
 113:.\src/stm32f0x_gpio.c **** 	temp &= 0xFFFF0F30;		//PB0 analog input; PB1 PB3 input PB6 PB7 output
 369              		.loc 2 113 0
 370 00b6 039A     		ldr	r2, [sp, #12]	@ tmp202, temp
 371 00b8 2A4B     		ldr	r3, .L12+20	@ tmp203,
 372 00ba 1340     		and	r3, r2	@ tmp201, tmp202
 373 00bc 0393     		str	r3, [sp, #12]	@ tmp201, temp
 114:.\src/stm32f0x_gpio.c **** 	temp |= 0x00005003;
 374              		.loc 2 114 0
 375 00be 039B     		ldr	r3, [sp, #12]	@ tmp205, temp
 376 00c0 294A     		ldr	r2, .L12+24	@ tmp206,
 377 00c2 1343     		orr	r3, r2	@ tmp204, tmp206
 378 00c4 0393     		str	r3, [sp, #12]	@ tmp204, temp
 115:.\src/stm32f0x_gpio.c **** 	GPIOB->MODER = temp;
 379              		.loc 2 115 0
 380 00c6 264B     		ldr	r3, .L12+16	@ D.4753,
 381 00c8 039A     		ldr	r2, [sp, #12]	@ tmp207, temp
 382 00ca 1A60     		str	r2, [r3]	@ tmp207, D.4753_41->MODER
 116:.\src/stm32f0x_gpio.c **** 
 117:.\src/stm32f0x_gpio.c **** 	temp = GPIOB->OTYPER;	//1 bit por pin
 383              		.loc 2 117 0
 384 00cc 244B     		ldr	r3, .L12+16	@ D.4754,
 385 00ce 9B88     		ldrh	r3, [r3, #4]	@ tmp208,
 386 00d0 9BB2     		uxth	r3, r3	@ D.4755, tmp208
 387 00d2 0393     		str	r3, [sp, #12]	@ D.4755, temp
 118:.\src/stm32f0x_gpio.c **** 	temp &= 0xFFFFFF3F;
 388              		.loc 2 118 0
 389 00d4 039B     		ldr	r3, [sp, #12]	@ tmp210, temp
 390 00d6 C022     		mov	r2, #192	@ tmp211,
 391 00d8 9343     		bic	r3, r2	@ tmp209, tmp211
 392 00da 0393     		str	r3, [sp, #12]	@ tmp209, temp
 119:.\src/stm32f0x_gpio.c **** 	temp |= 0x00000040;		//PB6 open drain PB7 push pull
 393              		.loc 2 119 0
 394 00dc 039B     		ldr	r3, [sp, #12]	@ tmp213, temp
 395 00de 4022     		mov	r2, #64	@ tmp214,
 396 00e0 1343     		orr	r3, r2	@ tmp212, tmp214
 397 00e2 0393     		str	r3, [sp, #12]	@ tmp212, temp
 120:.\src/stm32f0x_gpio.c **** 	GPIOB->OTYPER = temp;
 398              		.loc 2 120 0
 399 00e4 1E4B     		ldr	r3, .L12+16	@ D.4756,
 400 00e6 039A     		ldr	r2, [sp, #12]	@ tmp216, temp
 401 00e8 92B2     		uxth	r2, r2	@ D.4757, tmp215
 402 00ea 9A80     		strh	r2, [r3, #4]	@ tmp217, D.4756_47->OTYPER
 121:.\src/stm32f0x_gpio.c **** 
ARM GAS  C:\Users\Mariano\AppData\Local\Temp\ccAk74Yw.s 			page 26


 122:.\src/stm32f0x_gpio.c **** 	temp = GPIOB->OSPEEDR;	//2 bits por pin
 403              		.loc 2 122 0
 404 00ec 1C4B     		ldr	r3, .L12+16	@ D.4758,
 405 00ee 9B68     		ldr	r3, [r3, #8]	@ tmp218, D.4758_49->OSPEEDR
 406 00f0 0393     		str	r3, [sp, #12]	@ tmp218, temp
 123:.\src/stm32f0x_gpio.c **** 	temp &= 0xFFFF0FFF;
 407              		.loc 2 123 0
 408 00f2 039A     		ldr	r2, [sp, #12]	@ tmp220, temp
 409 00f4 1D4B     		ldr	r3, .L12+28	@ tmp221,
 410 00f6 1340     		and	r3, r2	@ tmp219, tmp220
 411 00f8 0393     		str	r3, [sp, #12]	@ tmp219, temp
 124:.\src/stm32f0x_gpio.c **** 	temp |= 0x00000000;		//low speed
 125:.\src/stm32f0x_gpio.c **** 	GPIOB->OSPEEDR = temp;
 412              		.loc 2 125 0
 413 00fa 194B     		ldr	r3, .L12+16	@ D.4759,
 414 00fc 039A     		ldr	r2, [sp, #12]	@ tmp222, temp
 415 00fe 9A60     		str	r2, [r3, #8]	@ tmp222, D.4759_53->OSPEEDR
 126:.\src/stm32f0x_gpio.c **** 
 127:.\src/stm32f0x_gpio.c **** 	temp = GPIOB->PUPDR;	//2 bits por pin
 416              		.loc 2 127 0
 417 0100 174B     		ldr	r3, .L12+16	@ D.4760,
 418 0102 DB68     		ldr	r3, [r3, #12]	@ tmp223, D.4760_54->PUPDR
 419 0104 0393     		str	r3, [sp, #12]	@ tmp223, temp
 128:.\src/stm32f0x_gpio.c **** 	temp &= 0xFFFFFF33;		//PB1 PB3 pull up
 420              		.loc 2 128 0
 421 0106 039B     		ldr	r3, [sp, #12]	@ tmp225, temp
 422 0108 CC22     		mov	r2, #204	@ tmp226,
 423 010a 9343     		bic	r3, r2	@ tmp224, tmp226
 424 010c 0393     		str	r3, [sp, #12]	@ tmp224, temp
 129:.\src/stm32f0x_gpio.c **** 	temp |= 0x00000044;
 425              		.loc 2 129 0
 426 010e 039B     		ldr	r3, [sp, #12]	@ tmp228, temp
 427 0110 4422     		mov	r2, #68	@ tmp229,
 428 0112 1343     		orr	r3, r2	@ tmp227, tmp229
 429 0114 0393     		str	r3, [sp, #12]	@ tmp227, temp
 130:.\src/stm32f0x_gpio.c **** 	GPIOB->PUPDR = temp;
 430              		.loc 2 130 0
 431 0116 124B     		ldr	r3, .L12+16	@ D.4761,
 432 0118 039A     		ldr	r2, [sp, #12]	@ tmp230, temp
 433 011a DA60     		str	r2, [r3, #12]	@ tmp230, D.4761_58->PUPDR
 131:.\src/stm32f0x_gpio.c **** 
 132:.\src/stm32f0x_gpio.c **** 	//Alternate Fuction
 133:.\src/stm32f0x_gpio.c **** 	//GPIOB->AFR[0] = 0x11000000;	//PA7 -> AF1; PA6 -> AF1
 134:.\src/stm32f0x_gpio.c **** 
 135:.\src/stm32f0x_gpio.c **** #endif
 136:.\src/stm32f0x_gpio.c **** 
 137:.\src/stm32f0x_gpio.c **** #ifdef GPIOF_ENABLE
 138:.\src/stm32f0x_gpio.c **** 
 139:.\src/stm32f0x_gpio.c **** 	//--- GPIO F ---//
 140:.\src/stm32f0x_gpio.c **** 	if (!GPIOF_CLK)
 141:.\src/stm32f0x_gpio.c **** 		GPIOF_CLK_ON;
 142:.\src/stm32f0x_gpio.c **** 
 143:.\src/stm32f0x_gpio.c **** 	temp = GPIOF->MODER;
 144:.\src/stm32f0x_gpio.c **** 	temp &= 0xFFFFFFFF;
 145:.\src/stm32f0x_gpio.c **** 	temp |= 0x00000000;
 146:.\src/stm32f0x_gpio.c **** 	GPIOF->MODER = temp;
 147:.\src/stm32f0x_gpio.c **** 
ARM GAS  C:\Users\Mariano\AppData\Local\Temp\ccAk74Yw.s 			page 27


 148:.\src/stm32f0x_gpio.c **** 	temp = GPIOF->OTYPER;
 149:.\src/stm32f0x_gpio.c **** 	temp &= 0xFFFFFFFF;
 150:.\src/stm32f0x_gpio.c **** 	temp |= 0x00000000;
 151:.\src/stm32f0x_gpio.c **** 	GPIOF->OTYPER = temp;
 152:.\src/stm32f0x_gpio.c **** 
 153:.\src/stm32f0x_gpio.c **** 	temp = GPIOF->OSPEEDR;
 154:.\src/stm32f0x_gpio.c **** 	temp &= 0xFFFFFFFF;
 155:.\src/stm32f0x_gpio.c **** 	temp |= 0x00000000;
 156:.\src/stm32f0x_gpio.c **** 	GPIOF->OSPEEDR = temp;
 157:.\src/stm32f0x_gpio.c **** 
 158:.\src/stm32f0x_gpio.c **** 	temp = GPIOF->PUPDR;
 159:.\src/stm32f0x_gpio.c **** 	temp &= 0xFFFFFFFF;
 160:.\src/stm32f0x_gpio.c **** 	temp |= 0x00000000;
 161:.\src/stm32f0x_gpio.c **** 	GPIOF->PUPDR = temp;
 162:.\src/stm32f0x_gpio.c **** 
 163:.\src/stm32f0x_gpio.c **** #endif
 164:.\src/stm32f0x_gpio.c **** 
 165:.\src/stm32f0x_gpio.c **** 
 166:.\src/stm32f0x_gpio.c **** 	//EXTI_InitStructure.EXTI_Line = EXTI_Line0;
 167:.\src/stm32f0x_gpio.c **** 	//EXTI_InitStructure.EXTI_Mode = EXTI_Mode_Interrupt;
 168:.\src/stm32f0x_gpio.c **** 	//EXTI_InitStructure.EXTI_Trigger = EXTI_Trigger_Rising_Falling;
 169:.\src/stm32f0x_gpio.c **** 	//EXTI_InitStructure.EXTI_LineCmd = ENABLE;
 170:.\src/stm32f0x_gpio.c **** 	//EXTI_Init(&EXTI_InitStructure);
 171:.\src/stm32f0x_gpio.c **** 	EXTI_InitStructure.EXTI_Line = EXTI_Line8;
 434              		.loc 2 171 0
 435 011c 01AB     		add	r3, sp, #4	@ tmp231,,
 436 011e 8022     		mov	r2, #128	@ tmp243,
 437 0120 5200     		lsl	r2, r2, #1	@ tmp232, tmp243,
 438 0122 1A60     		str	r2, [r3]	@ tmp232, EXTI_InitStructure.EXTI_Line
 172:.\src/stm32f0x_gpio.c **** 	EXTI_InitStructure.EXTI_Mode = EXTI_Mode_Interrupt;
 439              		.loc 2 172 0
 440 0124 01AB     		add	r3, sp, #4	@ tmp233,,
 441 0126 0022     		mov	r2, #0	@ tmp234,
 442 0128 1A71     		strb	r2, [r3, #4]	@ tmp235, EXTI_InitStructure.EXTI_Mode
 173:.\src/stm32f0x_gpio.c **** 	EXTI_InitStructure.EXTI_Trigger = EXTI_Trigger_Rising_Falling;
 443              		.loc 2 173 0
 444 012a 01AB     		add	r3, sp, #4	@ tmp236,,
 445 012c 1022     		mov	r2, #16	@ tmp237,
 446 012e 5A71     		strb	r2, [r3, #5]	@ tmp238, EXTI_InitStructure.EXTI_Trigger
 174:.\src/stm32f0x_gpio.c **** 	EXTI_InitStructure.EXTI_LineCmd = ENABLE;
 447              		.loc 2 174 0
 448 0130 01AB     		add	r3, sp, #4	@ tmp239,,
 449 0132 0122     		mov	r2, #1	@ tmp240,
 450 0134 9A71     		strb	r2, [r3, #6]	@ tmp241, EXTI_InitStructure.EXTI_LineCmd
 175:.\src/stm32f0x_gpio.c **** 	EXTI_Init(&EXTI_InitStructure);
 451              		.loc 2 175 0
 452 0136 01AB     		add	r3, sp, #4	@ tmp242,,
 453 0138 181C     		mov	r0, r3	@, tmp242
 454 013a FFF7FEFF 		bl	EXTI_Init	@
 176:.\src/stm32f0x_gpio.c **** 
 177:.\src/stm32f0x_gpio.c **** 		//GPIO_EXTILineConfig(GPIO_PortSourceGPIOB, GPIO_PinSource12);
 178:.\src/stm32f0x_gpio.c **** 
 179:.\src/stm32f0x_gpio.c **** 	// Enable and set Button EXTI Interrupt to the lowest priority
 180:.\src/stm32f0x_gpio.c **** 	//NVIC_InitStructure.NVIC_IRQChannel = EXTI0_IRQn;
 181:.\src/stm32f0x_gpio.c **** 	//NVIC_InitStructure.NVIC_IRQChannelPreemptionPriority = 0x0F;
 182:.\src/stm32f0x_gpio.c **** 	//NVIC_InitStructure.NVIC_IRQChannelSubPriority = 0x0F;
 183:.\src/stm32f0x_gpio.c **** 	//NVIC_InitStructure.NVIC_IRQChannelCmd = ENABLE;
ARM GAS  C:\Users\Mariano\AppData\Local\Temp\ccAk74Yw.s 			page 28


 184:.\src/stm32f0x_gpio.c **** 
 185:.\src/stm32f0x_gpio.c **** 	/*
 186:.\src/stm32f0x_gpio.c **** 	NVIC_InitStructure.NVIC_IRQChannel = EXTI4_15_IRQn;
 187:.\src/stm32f0x_gpio.c **** 	NVIC_InitStructure.NVIC_IRQChannelPriority = 0x5;
 188:.\src/stm32f0x_gpio.c **** 	NVIC_InitStructure.NVIC_IRQChannelCmd = ENABLE;
 189:.\src/stm32f0x_gpio.c **** 
 190:.\src/stm32f0x_gpio.c **** 	NVIC_Init(&NVIC_InitStructure);
 191:.\src/stm32f0x_gpio.c **** 	*/
 192:.\src/stm32f0x_gpio.c **** 
 193:.\src/stm32f0x_gpio.c **** 	/*
 194:.\src/stm32f0x_gpio.c **** 	SYSCFG->EXTICR[3] = 0x00000000; //Select Port A for pin 8 external interrupt by writing 0000 in EX
 195:.\src/stm32f0x_gpio.c **** 	EXTI->IMR = 0x0010; //Configure the corresponding mask bit in the EXTI_IMR register
 196:.\src/stm32f0x_gpio.c **** 	EXTI->EMR = 0x0010; //Configure the corresponding mask bit in the EXTI_IMR register
 197:.\src/stm32f0x_gpio.c **** 	EXTI->RTSR = 0x0010; //Configure the Trigger Selection bits of the Interrupt line on rising edge
 198:.\src/stm32f0x_gpio.c **** 	EXTI->FTSR = 0x0010; //Configure the Trigger Selection bits of the Interrupt line on falling edge
 199:.\src/stm32f0x_gpio.c **** 	*/
 200:.\src/stm32f0x_gpio.c **** 	NVIC_EnableIRQ(EXTI4_15_IRQn);
 455              		.loc 2 200 0
 456 013e 0720     		mov	r0, #7	@,
 457 0140 FFF7FEFF 		bl	NVIC_EnableIRQ	@
 201:.\src/stm32f0x_gpio.c **** 	NVIC_SetPriority(EXTI4_15_IRQn, 6);
 458              		.loc 2 201 0
 459 0144 0720     		mov	r0, #7	@,
 460 0146 0621     		mov	r1, #6	@,
 461 0148 FFF7FEFF 		bl	NVIC_SetPriority	@
 202:.\src/stm32f0x_gpio.c **** 
 203:.\src/stm32f0x_gpio.c **** 
 204:.\src/stm32f0x_gpio.c **** }
 462              		.loc 2 204 0
 463 014c 05B0     		add	sp, sp, #20	@,,
 464              		@ sp needed for prologue	@
 465 014e 00BD     		pop	{pc}
 466              	.L13:
 467              		.align	2
 468              	.L12:
 469 0150 00100240 		.word	1073876992
 470 0154 55656801 		.word	23618901
 471 0158 00E7FFFF 		.word	-6400
 472 015c 00003FFC 		.word	-62980096
 473 0160 00040048 		.word	1207960576
 474 0164 300FFFFF 		.word	-61648
 475 0168 03500000 		.word	20483
 476 016c FF0FFFFF 		.word	-61441
 477              		.cfi_endproc
 478              	.LFE20:
 479              		.size	GPIO_Config, .-GPIO_Config
 480              		.section	.text.EXTIOff,"ax",%progbits
 481              		.align	2
 482              		.global	EXTIOff
 483              		.code	16
 484              		.thumb_func
 485              		.type	EXTIOff, %function
 486              	EXTIOff:
 487              	.LFB21:
 205:.\src/stm32f0x_gpio.c **** 
 206:.\src/stm32f0x_gpio.c **** inline void EXTIOff (void)
 207:.\src/stm32f0x_gpio.c **** {
ARM GAS  C:\Users\Mariano\AppData\Local\Temp\ccAk74Yw.s 			page 29


 488              		.loc 2 207 0
 489              		.cfi_startproc
 208:.\src/stm32f0x_gpio.c **** 	EXTI->IMR &= ~0x00000100;
 490              		.loc 2 208 0
 491 0000 034B     		ldr	r3, .L15	@ D.4720,
 492 0002 034A     		ldr	r2, .L15	@ D.4721,
 493 0004 1168     		ldr	r1, [r2]	@ D.4722, D.4721_2->IMR
 494 0006 034A     		ldr	r2, .L15+4	@ tmp138,
 495 0008 0A40     		and	r2, r1	@ D.4723, D.4722
 496 000a 1A60     		str	r2, [r3]	@ D.4723, D.4720_1->IMR
 209:.\src/stm32f0x_gpio.c **** }
 497              		.loc 2 209 0
 498              		@ sp needed for prologue	@
 499 000c 7047     		bx	lr
 500              	.L16:
 501 000e C046     		.align	2
 502              	.L15:
 503 0010 00040140 		.word	1073808384
 504 0014 FFFEFFFF 		.word	-257
 505              		.cfi_endproc
 506              	.LFE21:
 507              		.size	EXTIOff, .-EXTIOff
 508              		.section	.text.EXTIOn,"ax",%progbits
 509              		.align	2
 510              		.global	EXTIOn
 511              		.code	16
 512              		.thumb_func
 513              		.type	EXTIOn, %function
 514              	EXTIOn:
 515              	.LFB22:
 210:.\src/stm32f0x_gpio.c **** 
 211:.\src/stm32f0x_gpio.c **** inline void EXTIOn (void)
 212:.\src/stm32f0x_gpio.c **** {
 516              		.loc 2 212 0
 517              		.cfi_startproc
 213:.\src/stm32f0x_gpio.c **** 	EXTI->IMR |= 0x00000100;
 518              		.loc 2 213 0
 519 0000 034B     		ldr	r3, .L18	@ D.4716,
 520 0002 034A     		ldr	r2, .L18	@ D.4717,
 521 0004 1268     		ldr	r2, [r2]	@ D.4718, D.4717_2->IMR
 522 0006 8021     		mov	r1, #128	@ tmp139,
 523 0008 4900     		lsl	r1, r1, #1	@ tmp138, tmp139,
 524 000a 0A43     		orr	r2, r1	@ D.4719, tmp138
 525 000c 1A60     		str	r2, [r3]	@ D.4719, D.4716_1->IMR
 214:.\src/stm32f0x_gpio.c **** }
 526              		.loc 2 214 0
 527              		@ sp needed for prologue	@
 528 000e 7047     		bx	lr
 529              	.L19:
 530              		.align	2
 531              	.L18:
 532 0010 00040140 		.word	1073808384
 533              		.cfi_endproc
 534              	.LFE22:
 535              		.size	EXTIOn, .-EXTIOn
 536              		.text
 537              	.Letext0:
ARM GAS  C:\Users\Mariano\AppData\Local\Temp\ccAk74Yw.s 			page 30


 538              		.file 3 ".\\cmsis_boot/stm32f0xx.h"
 539              		.file 4 "c:\\program files (x86)\\gnu tools arm embedded\\4.7 2013q2\\bin\\../lib/gcc/arm-none-eab
 540              		.file 5 "..\\STM32F0xx_StdPeriph_Lib_V1.3.1\\Libraries\\STM32F0xx_StdPeriph_Driver\\inc/stm32f0xx_