ARM GAS  C:\Users\Mariano\AppData\Local\Temp\ccAk74Yw.s 			page 1


   1              		.cpu cortex-m0
   2              		.fpu softvfp
   3              		.eabi_attribute 20, 1	@ Tag_ABI_FP_denormal
   4              		.eabi_attribute 21, 1	@ Tag_ABI_FP_exceptions
   5              		.eabi_attribute 23, 3	@ Tag_ABI_FP_number_model
   6              		.eabi_attribute 24, 1	@ Tag_ABI_align8_needed
   7              		.eabi_attribute 25, 1	@ Tag_ABI_align8_preserved
   8              		.eabi_attribute 26, 1	@ Tag_ABI_enum_size
   9              		.eabi_attribute 30, 6	@ Tag_ABI_optimization_goals
  10              		.eabi_attribute 34, 0	@ Tag_CPU_unaligned_access
  11              		.eabi_attribute 18, 4	@ Tag_ABI_PCS_wchar_t
  12              		.file	"stm32f0x_gpio.c"
  13              	@ GNU C (GNU Tools for ARM Embedded Processors) version 4.7.4 20130613 (release) [ARM/embedded-4_7-
  14              	@	compiled by GNU C version 4.2.1-sjlj (mingw32-2), GMP version 4.3.2, MPFR version 2.4.2, MPC vers
  15              	@ GGC heuristics: --param ggc-min-expand=100 --param ggc-min-heapsize=131072
  16              	@ options passed:  -I . -I .\src -I .\cmsis_boot -I .\cmsis_core
  17              	@ -I ..\STM32F0xx_StdPeriph_Lib_V1.3.1\Libraries\STM32F0xx_StdPeriph_Driver\inc
  18              	@ -I .\inc -I .\cmsis_boot -imultilib armv6-m
  19              	@ -iprefix c:\program files (x86)\gnu tools arm embedded\4.7 2013q2\bin\../lib/gcc/arm-none-eabi/4.
  20              	@ -isysroot c:\program files (x86)\gnu tools arm embedded\4.7 2013q2\bin\../arm-none-eabi
  21              	@ -MD .\src\stm32f0x_gpio.d -MF .dep\stm32f0x_gpio.o.d -MP
  22              	@ -MQ .\src\stm32f0x_gpio.o -D__USES_INITFINI__ -D RUN_FROM_FLASH=1
  23              	@ .\src\stm32f0x_gpio.c -mcpu=cortex-m0 -mthumb
  24              	@ -auxbase-strip .\src\stm32f0x_gpio.o -g -gdwarf-2 -O0 -Wall
  25              	@ -fomit-frame-pointer -fdata-sections -ffunction-sections -fverbose-asm
  26              	@ options enabled:  -fauto-inc-dec -fbranch-count-reg -fcommon
  27              	@ -fdata-sections -fdebug-types-section -fdelete-null-pointer-checks
  28              	@ -fdwarf2-cfi-asm -fearly-inlining -feliminate-unused-debug-types
  29              	@ -ffunction-cse -ffunction-sections -fgcse-lm -fgnu-runtime -fident
  30              	@ -finline-atomics -fira-hoist-pressure -fira-share-save-slots
  31              	@ -fira-share-spill-slots -fivopts -fkeep-static-consts
  32              	@ -fleading-underscore -fmath-errno -fmerge-debug-strings
  33              	@ -fmove-loop-invariants -fomit-frame-pointer -fpeephole
  34              	@ -fprefetch-loop-arrays -freg-struct-return
  35              	@ -fsched-critical-path-heuristic -fsched-dep-count-heuristic
  36              	@ -fsched-group-heuristic -fsched-interblock -fsched-last-insn-heuristic
  37              	@ -fsched-rank-heuristic -fsched-spec -fsched-spec-insn-heuristic
  38              	@ -fsched-stalled-insns-dep -fshow-column -fsigned-zeros
  39              	@ -fsplit-ivs-in-unroller -fstrict-volatile-bitfields -ftrapping-math
  40              	@ -ftree-cselim -ftree-forwprop -ftree-loop-if-convert -ftree-loop-im
  41              	@ -ftree-loop-ivcanon -ftree-loop-optimize -ftree-parallelize-loops=
  42              	@ -ftree-phiprop -ftree-pta -ftree-reassoc -ftree-scev-cprop
  43              	@ -ftree-slp-vectorize -ftree-vect-loop-version -funit-at-a-time
  44              	@ -fverbose-asm -fzero-initialized-in-bss -mlittle-endian -msched-prolog
  45              	@ -mthumb -mvectorize-with-neon-quad
  46              	
  47              		.text
  48              	.Ltext0:
  49              		.cfi_sections	.debug_frame
  50              		.section	.text.NVIC_EnableIRQ,"ax",%progbits
  51              		.align	2
  52              		.code	16
  53              		.thumb_func
  54              		.type	NVIC_EnableIRQ, %function
  55              	NVIC_EnableIRQ:
  56              	.LFB11:
  57              		.file 1 ".\\cmsis_core/core_cm0.h"
ARM GAS  C:\Users\Mariano\AppData\Local\Temp\ccAk74Yw.s 			page 2


   1:.\cmsis_core/core_cm0.h **** /**************************************************************************//**
   2:.\cmsis_core/core_cm0.h ****  * @file     core_cm0.h
   3:.\cmsis_core/core_cm0.h ****  * @brief    CMSIS Cortex-M0 Core Peripheral Access Layer Header File
   4:.\cmsis_core/core_cm0.h ****  * @version  V1.30
   5:.\cmsis_core/core_cm0.h ****  * @date     30. October 2009
   6:.\cmsis_core/core_cm0.h ****  *
   7:.\cmsis_core/core_cm0.h ****  * @note
   8:.\cmsis_core/core_cm0.h ****  * Copyright (C) 2009 ARM Limited. All rights reserved.
   9:.\cmsis_core/core_cm0.h ****  *
  10:.\cmsis_core/core_cm0.h ****  * @par
  11:.\cmsis_core/core_cm0.h ****  * ARM Limited (ARM) is supplying this software for use with Cortex-M 
  12:.\cmsis_core/core_cm0.h ****  * processor based microcontrollers.  This file can be freely distributed 
  13:.\cmsis_core/core_cm0.h ****  * within development tools that are supporting such ARM based processors. 
  14:.\cmsis_core/core_cm0.h ****  *
  15:.\cmsis_core/core_cm0.h ****  * @par
  16:.\cmsis_core/core_cm0.h ****  * THIS SOFTWARE IS PROVIDED "AS IS".  NO WARRANTIES, WHETHER EXPRESS, IMPLIED
  17:.\cmsis_core/core_cm0.h ****  * OR STATUTORY, INCLUDING, BUT NOT LIMITED TO, IMPLIED WARRANTIES OF
  18:.\cmsis_core/core_cm0.h ****  * MERCHANTABILITY AND FITNESS FOR A PARTICULAR PURPOSE APPLY TO THIS SOFTWARE.
  19:.\cmsis_core/core_cm0.h ****  * ARM SHALL NOT, IN ANY CIRCUMSTANCES, BE LIABLE FOR SPECIAL, INCIDENTAL, OR
  20:.\cmsis_core/core_cm0.h ****  * CONSEQUENTIAL DAMAGES, FOR ANY REASON WHATSOEVER.
  21:.\cmsis_core/core_cm0.h ****  *
  22:.\cmsis_core/core_cm0.h ****  ******************************************************************************/
  23:.\cmsis_core/core_cm0.h **** 
  24:.\cmsis_core/core_cm0.h **** #ifndef __CM0_CORE_H__
  25:.\cmsis_core/core_cm0.h **** #define __CM0_CORE_H__
  26:.\cmsis_core/core_cm0.h **** 
  27:.\cmsis_core/core_cm0.h **** /** @addtogroup CMSIS_CM0_core_LintCinfiguration CMSIS CM0 Core Lint Configuration
  28:.\cmsis_core/core_cm0.h ****  *
  29:.\cmsis_core/core_cm0.h ****  * List of Lint messages which will be suppressed and not shown:
  30:.\cmsis_core/core_cm0.h ****  *   - not yet checked
  31:.\cmsis_core/core_cm0.h ****  * .
  32:.\cmsis_core/core_cm0.h ****  * Note:  To re-enable a Message, insert a space before 'lint' *
  33:.\cmsis_core/core_cm0.h ****  *
  34:.\cmsis_core/core_cm0.h ****  */
  35:.\cmsis_core/core_cm0.h **** 
  36:.\cmsis_core/core_cm0.h **** 
  37:.\cmsis_core/core_cm0.h **** /** @addtogroup CMSIS_CM0_core_definitions CM0 Core Definitions
  38:.\cmsis_core/core_cm0.h ****   This file defines all structures and symbols for CMSIS core:
  39:.\cmsis_core/core_cm0.h ****     - CMSIS version number
  40:.\cmsis_core/core_cm0.h ****     - Cortex-M core registers and bitfields
  41:.\cmsis_core/core_cm0.h ****     - Cortex-M core peripheral base address
  42:.\cmsis_core/core_cm0.h ****   @{
  43:.\cmsis_core/core_cm0.h ****  */
  44:.\cmsis_core/core_cm0.h **** 
  45:.\cmsis_core/core_cm0.h **** #ifdef __cplusplus
  46:.\cmsis_core/core_cm0.h ****  extern "C" {
  47:.\cmsis_core/core_cm0.h **** #endif 
  48:.\cmsis_core/core_cm0.h **** 
  49:.\cmsis_core/core_cm0.h **** #define __CM0_CMSIS_VERSION_MAIN  (0x01)                                                       /*!<
  50:.\cmsis_core/core_cm0.h **** #define __CM0_CMSIS_VERSION_SUB   (0x30)                                                       /*!<
  51:.\cmsis_core/core_cm0.h **** #define __CM0_CMSIS_VERSION       ((__CM0_CMSIS_VERSION_MAIN << 16) | __CM0_CMSIS_VERSION_SUB) /*!<
  52:.\cmsis_core/core_cm0.h **** 
  53:.\cmsis_core/core_cm0.h **** #define __CORTEX_M                (0x00)                                                       /*!<
  54:.\cmsis_core/core_cm0.h **** 
  55:.\cmsis_core/core_cm0.h **** #include <stdint.h>                           /* Include standard types */
  56:.\cmsis_core/core_cm0.h **** 
  57:.\cmsis_core/core_cm0.h **** #if defined (__ICCARM__)
ARM GAS  C:\Users\Mariano\AppData\Local\Temp\ccAk74Yw.s 			page 3


  58:.\cmsis_core/core_cm0.h ****   #include <intrinsics.h>                     /* IAR Intrinsics   */
  59:.\cmsis_core/core_cm0.h **** #endif
  60:.\cmsis_core/core_cm0.h **** 
  61:.\cmsis_core/core_cm0.h **** 
  62:.\cmsis_core/core_cm0.h **** #ifndef __NVIC_PRIO_BITS
  63:.\cmsis_core/core_cm0.h ****   #define __NVIC_PRIO_BITS    2               /*!< standard definition for NVIC Priority Bits */
  64:.\cmsis_core/core_cm0.h **** #endif
  65:.\cmsis_core/core_cm0.h **** 
  66:.\cmsis_core/core_cm0.h **** 
  67:.\cmsis_core/core_cm0.h **** 
  68:.\cmsis_core/core_cm0.h **** 
  69:.\cmsis_core/core_cm0.h **** /**
  70:.\cmsis_core/core_cm0.h ****  * IO definitions
  71:.\cmsis_core/core_cm0.h ****  *
  72:.\cmsis_core/core_cm0.h ****  * define access restrictions to peripheral registers
  73:.\cmsis_core/core_cm0.h ****  */
  74:.\cmsis_core/core_cm0.h **** 
  75:.\cmsis_core/core_cm0.h **** #ifdef __cplusplus
  76:.\cmsis_core/core_cm0.h ****   #define     __I     volatile                /*!< defines 'read only' permissions      */
  77:.\cmsis_core/core_cm0.h **** #else
  78:.\cmsis_core/core_cm0.h ****   #define     __I     volatile const          /*!< defines 'read only' permissions      */
  79:.\cmsis_core/core_cm0.h **** #endif
  80:.\cmsis_core/core_cm0.h **** #define     __O     volatile                  /*!< defines 'write only' permissions     */
  81:.\cmsis_core/core_cm0.h **** #define     __IO    volatile                  /*!< defines 'read / write' permissions   */
  82:.\cmsis_core/core_cm0.h **** 
  83:.\cmsis_core/core_cm0.h **** 
  84:.\cmsis_core/core_cm0.h **** 
  85:.\cmsis_core/core_cm0.h **** /*******************************************************************************
  86:.\cmsis_core/core_cm0.h ****  *                 Register Abstraction
  87:.\cmsis_core/core_cm0.h ****  ******************************************************************************/
  88:.\cmsis_core/core_cm0.h **** /** @addtogroup CMSIS_CM0_core_register CMSIS CM0 Core Register
  89:.\cmsis_core/core_cm0.h ****  @{
  90:.\cmsis_core/core_cm0.h **** */
  91:.\cmsis_core/core_cm0.h **** 
  92:.\cmsis_core/core_cm0.h **** 
  93:.\cmsis_core/core_cm0.h **** /** @addtogroup CMSIS_CM0_NVIC CMSIS CM0 NVIC
  94:.\cmsis_core/core_cm0.h ****   memory mapped structure for Nested Vectored Interrupt Controller (NVIC)
  95:.\cmsis_core/core_cm0.h ****   @{
  96:.\cmsis_core/core_cm0.h ****  */
  97:.\cmsis_core/core_cm0.h ****  /*
  98:.\cmsis_core/core_cm0.h **** typedef struct
  99:.\cmsis_core/core_cm0.h **** {
 100:.\cmsis_core/core_cm0.h ****   __IO uint32_t ISER[1];                      //!< (Offset: 0x000) Interrupt Set Enable Register
 101:.\cmsis_core/core_cm0.h ****        uint32_t RESERVED0[31];
 102:.\cmsis_core/core_cm0.h ****   __IO uint32_t ICER[1];                      //!< (Offset: 0x080) Interrupt Clear Enable Register
 103:.\cmsis_core/core_cm0.h ****        uint32_t RSERVED1[31];
 104:.\cmsis_core/core_cm0.h ****   __IO uint32_t ISPR[1];                      //!< (Offset: 0x100) Interrupt Set Pending Register
 105:.\cmsis_core/core_cm0.h ****        uint32_t RESERVED2[31];
 106:.\cmsis_core/core_cm0.h ****   __IO uint32_t ICPR[1];                      //!< (Offset: 0x180) Interrupt Clear Pending Register
 107:.\cmsis_core/core_cm0.h ****        uint32_t RESERVED3[31];
 108:.\cmsis_core/core_cm0.h ****        uint32_t RESERVED4[64];
 109:.\cmsis_core/core_cm0.h ****   __IO uint32_t IPR[8];                       //!< (Offset: 0x3EC) Interrupt Priority Register
 110:.\cmsis_core/core_cm0.h **** }  NVIC_Type;
 111:.\cmsis_core/core_cm0.h **** */
 112:.\cmsis_core/core_cm0.h **** 
 113:.\cmsis_core/core_cm0.h ****  typedef struct
 114:.\cmsis_core/core_cm0.h ****  {
ARM GAS  C:\Users\Mariano\AppData\Local\Temp\ccAk74Yw.s 			page 4


 115:.\cmsis_core/core_cm0.h ****    __IO uint32_t ISER[1];                 /*!< Offset: 0x000 (R/W)  Interrupt Set Enable Register  
 116:.\cmsis_core/core_cm0.h ****         uint32_t RESERVED0[31];
 117:.\cmsis_core/core_cm0.h ****    __IO uint32_t ICER[1];                 /*!< Offset: 0x080 (R/W)  Interrupt Clear Enable Register
 118:.\cmsis_core/core_cm0.h ****         uint32_t RSERVED1[31];
 119:.\cmsis_core/core_cm0.h ****    __IO uint32_t ISPR[1];                 /*!< Offset: 0x100 (R/W)  Interrupt Set Pending Register 
 120:.\cmsis_core/core_cm0.h ****         uint32_t RESERVED2[31];
 121:.\cmsis_core/core_cm0.h ****    __IO uint32_t ICPR[1];                 /*!< Offset: 0x180 (R/W)  Interrupt Clear Pending Registe
 122:.\cmsis_core/core_cm0.h ****         uint32_t RESERVED3[31];
 123:.\cmsis_core/core_cm0.h ****         uint32_t RESERVED4[64];
 124:.\cmsis_core/core_cm0.h ****    __IO uint32_t IP[8];                   /*!< Offset: 0x300 (R/W)  Interrupt Priority Register    
 125:.\cmsis_core/core_cm0.h ****  }  NVIC_Type;
 126:.\cmsis_core/core_cm0.h **** 
 127:.\cmsis_core/core_cm0.h **** /*@}*/ /* end of group CMSIS_CM0_NVIC */
 128:.\cmsis_core/core_cm0.h **** 
 129:.\cmsis_core/core_cm0.h **** 
 130:.\cmsis_core/core_cm0.h **** /** @addtogroup CMSIS_CM0_SCB CMSIS CM0 SCB
 131:.\cmsis_core/core_cm0.h ****   memory mapped structure for System Control Block (SCB)
 132:.\cmsis_core/core_cm0.h ****   @{
 133:.\cmsis_core/core_cm0.h ****  */
 134:.\cmsis_core/core_cm0.h **** typedef struct
 135:.\cmsis_core/core_cm0.h **** {
 136:.\cmsis_core/core_cm0.h ****   __I  uint32_t CPUID;                        /*!< Offset: 0x00  CPU ID Base Register              
 137:.\cmsis_core/core_cm0.h ****   __IO uint32_t ICSR;                         /*!< Offset: 0x04  Interrupt Control State Register  
 138:.\cmsis_core/core_cm0.h ****        uint32_t RESERVED0;                                      
 139:.\cmsis_core/core_cm0.h ****   __IO uint32_t AIRCR;                        /*!< Offset: 0x0C  Application Interrupt / Reset Cont
 140:.\cmsis_core/core_cm0.h ****   __IO uint32_t SCR;                          /*!< Offset: 0x10  System Control Register           
 141:.\cmsis_core/core_cm0.h ****   __IO uint32_t CCR;                          /*!< Offset: 0x14  Configuration Control Register    
 142:.\cmsis_core/core_cm0.h ****        uint32_t RESERVED1;                                      
 143:.\cmsis_core/core_cm0.h ****   __IO uint32_t SHP[2];                       /*!< Offset: 0x1C  System Handlers Priority Registers
 144:.\cmsis_core/core_cm0.h ****   __IO uint32_t SHCSR;                        /*!< Offset: 0x24  System Handler Control and State R
 145:.\cmsis_core/core_cm0.h ****        uint32_t RESERVED2[2];                                   
 146:.\cmsis_core/core_cm0.h ****   __IO uint32_t DFSR;                         /*!< Offset: 0x30  Debug Fault Status Register       
 147:.\cmsis_core/core_cm0.h **** } SCB_Type;                                                
 148:.\cmsis_core/core_cm0.h **** 
 149:.\cmsis_core/core_cm0.h **** /* SCB CPUID Register Definitions */
 150:.\cmsis_core/core_cm0.h **** #define SCB_CPUID_IMPLEMENTER_Pos          24                                             /*!< SCB 
 151:.\cmsis_core/core_cm0.h **** #define SCB_CPUID_IMPLEMENTER_Msk          (0xFFul << SCB_CPUID_IMPLEMENTER_Pos)          /*!< SCB 
 152:.\cmsis_core/core_cm0.h **** 
 153:.\cmsis_core/core_cm0.h **** #define SCB_CPUID_VARIANT_Pos              20                                             /*!< SCB 
 154:.\cmsis_core/core_cm0.h **** #define SCB_CPUID_VARIANT_Msk              (0xFul << SCB_CPUID_VARIANT_Pos)               /*!< SCB 
 155:.\cmsis_core/core_cm0.h **** 
 156:.\cmsis_core/core_cm0.h **** #define SCB_CPUID_ARCHITECTURE_Pos         16                                             /*!< SCB 
 157:.\cmsis_core/core_cm0.h **** #define SCB_CPUID_ARCHITECTURE_Msk         (0xFul << SCB_CPUID_ARCHITECTURE_Pos)          /*!< SCB 
 158:.\cmsis_core/core_cm0.h **** 
 159:.\cmsis_core/core_cm0.h **** #define SCB_CPUID_PARTNO_Pos                4                                             /*!< SCB 
 160:.\cmsis_core/core_cm0.h **** #define SCB_CPUID_PARTNO_Msk               (0xFFFul << SCB_CPUID_PARTNO_Pos)              /*!< SCB 
 161:.\cmsis_core/core_cm0.h **** 
 162:.\cmsis_core/core_cm0.h **** #define SCB_CPUID_REVISION_Pos              0                                             /*!< SCB 
 163:.\cmsis_core/core_cm0.h **** #define SCB_CPUID_REVISION_Msk             (0xFul << SCB_CPUID_REVISION_Pos)              /*!< SCB 
 164:.\cmsis_core/core_cm0.h **** 
 165:.\cmsis_core/core_cm0.h **** /* SCB Interrupt Control State Register Definitions */
 166:.\cmsis_core/core_cm0.h **** #define SCB_ICSR_NMIPENDSET_Pos            31                                             /*!< SCB 
 167:.\cmsis_core/core_cm0.h **** #define SCB_ICSR_NMIPENDSET_Msk            (1ul << SCB_ICSR_NMIPENDSET_Pos)               /*!< SCB 
 168:.\cmsis_core/core_cm0.h **** 
 169:.\cmsis_core/core_cm0.h **** #define SCB_ICSR_PENDSVSET_Pos             28                                             /*!< SCB 
 170:.\cmsis_core/core_cm0.h **** #define SCB_ICSR_PENDSVSET_Msk             (1ul << SCB_ICSR_PENDSVSET_Pos)                /*!< SCB 
 171:.\cmsis_core/core_cm0.h **** 
ARM GAS  C:\Users\Mariano\AppData\Local\Temp\ccAk74Yw.s 			page 5


 172:.\cmsis_core/core_cm0.h **** #define SCB_ICSR_PENDSVCLR_Pos             27                                             /*!< SCB 
 173:.\cmsis_core/core_cm0.h **** #define SCB_ICSR_PENDSVCLR_Msk             (1ul << SCB_ICSR_PENDSVCLR_Pos)                /*!< SCB 
 174:.\cmsis_core/core_cm0.h **** 
 175:.\cmsis_core/core_cm0.h **** #define SCB_ICSR_PENDSTSET_Pos             26                                             /*!< SCB 
 176:.\cmsis_core/core_cm0.h **** #define SCB_ICSR_PENDSTSET_Msk             (1ul << SCB_ICSR_PENDSTSET_Pos)                /*!< SCB 
 177:.\cmsis_core/core_cm0.h **** 
 178:.\cmsis_core/core_cm0.h **** #define SCB_ICSR_PENDSTCLR_Pos             25                                             /*!< SCB 
 179:.\cmsis_core/core_cm0.h **** #define SCB_ICSR_PENDSTCLR_Msk             (1ul << SCB_ICSR_PENDSTCLR_Pos)                /*!< SCB 
 180:.\cmsis_core/core_cm0.h **** 
 181:.\cmsis_core/core_cm0.h **** #define SCB_ICSR_ISRPREEMPT_Pos            23                                             /*!< SCB 
 182:.\cmsis_core/core_cm0.h **** #define SCB_ICSR_ISRPREEMPT_Msk            (1ul << SCB_ICSR_ISRPREEMPT_Pos)               /*!< SCB 
 183:.\cmsis_core/core_cm0.h **** 
 184:.\cmsis_core/core_cm0.h **** #define SCB_ICSR_ISRPENDING_Pos            22                                             /*!< SCB 
 185:.\cmsis_core/core_cm0.h **** #define SCB_ICSR_ISRPENDING_Msk            (1ul << SCB_ICSR_ISRPENDING_Pos)               /*!< SCB 
 186:.\cmsis_core/core_cm0.h **** 
 187:.\cmsis_core/core_cm0.h **** #define SCB_ICSR_VECTPENDING_Pos           12                                             /*!< SCB 
 188:.\cmsis_core/core_cm0.h **** #define SCB_ICSR_VECTPENDING_Msk           (0x1FFul << SCB_ICSR_VECTPENDING_Pos)          /*!< SCB 
 189:.\cmsis_core/core_cm0.h **** 
 190:.\cmsis_core/core_cm0.h **** #define SCB_ICSR_VECTACTIVE_Pos             0                                             /*!< SCB 
 191:.\cmsis_core/core_cm0.h **** #define SCB_ICSR_VECTACTIVE_Msk            (0x1FFul << SCB_ICSR_VECTACTIVE_Pos)           /*!< SCB 
 192:.\cmsis_core/core_cm0.h **** 
 193:.\cmsis_core/core_cm0.h **** /* SCB Application Interrupt and Reset Control Register Definitions */
 194:.\cmsis_core/core_cm0.h **** #define SCB_AIRCR_VECTKEY_Pos              16                                             /*!< SCB 
 195:.\cmsis_core/core_cm0.h **** #define SCB_AIRCR_VECTKEY_Msk              (0xFFFFul << SCB_AIRCR_VECTKEY_Pos)            /*!< SCB 
 196:.\cmsis_core/core_cm0.h **** 
 197:.\cmsis_core/core_cm0.h **** #define SCB_AIRCR_VECTKEYSTAT_Pos          16                                             /*!< SCB 
 198:.\cmsis_core/core_cm0.h **** #define SCB_AIRCR_VECTKEYSTAT_Msk          (0xFFFFul << SCB_AIRCR_VECTKEYSTAT_Pos)        /*!< SCB 
 199:.\cmsis_core/core_cm0.h **** 
 200:.\cmsis_core/core_cm0.h **** #define SCB_AIRCR_ENDIANESS_Pos            15                                             /*!< SCB 
 201:.\cmsis_core/core_cm0.h **** #define SCB_AIRCR_ENDIANESS_Msk            (1ul << SCB_AIRCR_ENDIANESS_Pos)               /*!< SCB 
 202:.\cmsis_core/core_cm0.h **** 
 203:.\cmsis_core/core_cm0.h **** #define SCB_AIRCR_SYSRESETREQ_Pos           2                                             /*!< SCB 
 204:.\cmsis_core/core_cm0.h **** #define SCB_AIRCR_SYSRESETREQ_Msk          (1ul << SCB_AIRCR_SYSRESETREQ_Pos)             /*!< SCB 
 205:.\cmsis_core/core_cm0.h **** 
 206:.\cmsis_core/core_cm0.h **** #define SCB_AIRCR_VECTCLRACTIVE_Pos         1                                             /*!< SCB 
 207:.\cmsis_core/core_cm0.h **** #define SCB_AIRCR_VECTCLRACTIVE_Msk        (1ul << SCB_AIRCR_VECTCLRACTIVE_Pos)           /*!< SCB 
 208:.\cmsis_core/core_cm0.h **** 
 209:.\cmsis_core/core_cm0.h **** /* SCB System Control Register Definitions */
 210:.\cmsis_core/core_cm0.h **** #define SCB_SCR_SEVONPEND_Pos               4                                             /*!< SCB 
 211:.\cmsis_core/core_cm0.h **** #define SCB_SCR_SEVONPEND_Msk              (1ul << SCB_SCR_SEVONPEND_Pos)                 /*!< SCB 
 212:.\cmsis_core/core_cm0.h **** 
 213:.\cmsis_core/core_cm0.h **** #define SCB_SCR_SLEEPDEEP_Pos               2                                             /*!< SCB 
 214:.\cmsis_core/core_cm0.h **** #define SCB_SCR_SLEEPDEEP_Msk              (1ul << SCB_SCR_SLEEPDEEP_Pos)                 /*!< SCB 
 215:.\cmsis_core/core_cm0.h **** 
 216:.\cmsis_core/core_cm0.h **** #define SCB_SCR_SLEEPONEXIT_Pos             1                                             /*!< SCB 
 217:.\cmsis_core/core_cm0.h **** #define SCB_SCR_SLEEPONEXIT_Msk            (1ul << SCB_SCR_SLEEPONEXIT_Pos)               /*!< SCB 
 218:.\cmsis_core/core_cm0.h **** 
 219:.\cmsis_core/core_cm0.h **** /* SCB Configuration Control Register Definitions */
 220:.\cmsis_core/core_cm0.h **** #define SCB_CCR_STKALIGN_Pos                9                                             /*!< SCB 
 221:.\cmsis_core/core_cm0.h **** #define SCB_CCR_STKALIGN_Msk               (1ul << SCB_CCR_STKALIGN_Pos)                  /*!< SCB 
 222:.\cmsis_core/core_cm0.h **** 
 223:.\cmsis_core/core_cm0.h **** #define SCB_CCR_UNALIGN_TRP_Pos             3                                             /*!< SCB 
 224:.\cmsis_core/core_cm0.h **** #define SCB_CCR_UNALIGN_TRP_Msk            (1ul << SCB_CCR_UNALIGN_TRP_Pos)               /*!< SCB 
 225:.\cmsis_core/core_cm0.h **** 
 226:.\cmsis_core/core_cm0.h **** /* SCB System Handler Control and State Register Definitions */
 227:.\cmsis_core/core_cm0.h **** #define SCB_SHCSR_SVCALLPENDED_Pos         15                                             /*!< SCB 
 228:.\cmsis_core/core_cm0.h **** #define SCB_SHCSR_SVCALLPENDED_Msk         (1ul << SCB_SHCSR_SVCALLPENDED_Pos)            /*!< SCB 
ARM GAS  C:\Users\Mariano\AppData\Local\Temp\ccAk74Yw.s 			page 6


 229:.\cmsis_core/core_cm0.h **** 
 230:.\cmsis_core/core_cm0.h **** /* SCB Debug Fault Status Register Definitions */
 231:.\cmsis_core/core_cm0.h **** #define SCB_DFSR_EXTERNAL_Pos               4                                             /*!< SCB 
 232:.\cmsis_core/core_cm0.h **** #define SCB_DFSR_EXTERNAL_Msk              (1ul << SCB_DFSR_EXTERNAL_Pos)                 /*!< SCB 
 233:.\cmsis_core/core_cm0.h **** 
 234:.\cmsis_core/core_cm0.h **** #define SCB_DFSR_VCATCH_Pos                 3                                             /*!< SCB 
 235:.\cmsis_core/core_cm0.h **** #define SCB_DFSR_VCATCH_Msk                (1ul << SCB_DFSR_VCATCH_Pos)                   /*!< SCB 
 236:.\cmsis_core/core_cm0.h **** 
 237:.\cmsis_core/core_cm0.h **** #define SCB_DFSR_DWTTRAP_Pos                2                                             /*!< SCB 
 238:.\cmsis_core/core_cm0.h **** #define SCB_DFSR_DWTTRAP_Msk               (1ul << SCB_DFSR_DWTTRAP_Pos)                  /*!< SCB 
 239:.\cmsis_core/core_cm0.h **** 
 240:.\cmsis_core/core_cm0.h **** #define SCB_DFSR_BKPT_Pos                   1                                             /*!< SCB 
 241:.\cmsis_core/core_cm0.h **** #define SCB_DFSR_BKPT_Msk                  (1ul << SCB_DFSR_BKPT_Pos)                     /*!< SCB 
 242:.\cmsis_core/core_cm0.h **** 
 243:.\cmsis_core/core_cm0.h **** #define SCB_DFSR_HALTED_Pos                 0                                             /*!< SCB 
 244:.\cmsis_core/core_cm0.h **** #define SCB_DFSR_HALTED_Msk                (1ul << SCB_DFSR_HALTED_Pos)                   /*!< SCB 
 245:.\cmsis_core/core_cm0.h **** /*@}*/ /* end of group CMSIS_CM0_SCB */
 246:.\cmsis_core/core_cm0.h **** 
 247:.\cmsis_core/core_cm0.h **** 
 248:.\cmsis_core/core_cm0.h **** /** @addtogroup CMSIS_CM0_SysTick CMSIS CM0 SysTick
 249:.\cmsis_core/core_cm0.h ****   memory mapped structure for SysTick
 250:.\cmsis_core/core_cm0.h ****   @{
 251:.\cmsis_core/core_cm0.h ****  */
 252:.\cmsis_core/core_cm0.h **** typedef struct
 253:.\cmsis_core/core_cm0.h **** {
 254:.\cmsis_core/core_cm0.h ****   __IO uint32_t CTRL;                         /*!< Offset: 0x00  SysTick Control and Status Registe
 255:.\cmsis_core/core_cm0.h ****   __IO uint32_t LOAD;                         /*!< Offset: 0x04  SysTick Reload Value Register     
 256:.\cmsis_core/core_cm0.h ****   __IO uint32_t VAL;                          /*!< Offset: 0x08  SysTick Current Value Register    
 257:.\cmsis_core/core_cm0.h ****   __I  uint32_t CALIB;                        /*!< Offset: 0x0C  SysTick Calibration Register      
 258:.\cmsis_core/core_cm0.h **** } SysTick_Type;
 259:.\cmsis_core/core_cm0.h **** 
 260:.\cmsis_core/core_cm0.h **** /* SysTick Control / Status Register Definitions */
 261:.\cmsis_core/core_cm0.h **** #define SysTick_CTRL_COUNTFLAG_Pos         16                                             /*!< SysT
 262:.\cmsis_core/core_cm0.h **** #define SysTick_CTRL_COUNTFLAG_Msk         (1ul << SysTick_CTRL_COUNTFLAG_Pos)            /*!< SysT
 263:.\cmsis_core/core_cm0.h **** 
 264:.\cmsis_core/core_cm0.h **** #define SysTick_CTRL_CLKSOURCE_Pos          2                                             /*!< SysT
 265:.\cmsis_core/core_cm0.h **** #define SysTick_CTRL_CLKSOURCE_Msk         (1ul << SysTick_CTRL_CLKSOURCE_Pos)            /*!< SysT
 266:.\cmsis_core/core_cm0.h **** 
 267:.\cmsis_core/core_cm0.h **** #define SysTick_CTRL_TICKINT_Pos            1                                             /*!< SysT
 268:.\cmsis_core/core_cm0.h **** #define SysTick_CTRL_TICKINT_Msk           (1ul << SysTick_CTRL_TICKINT_Pos)              /*!< SysT
 269:.\cmsis_core/core_cm0.h **** 
 270:.\cmsis_core/core_cm0.h **** #define SysTick_CTRL_ENABLE_Pos             0                                             /*!< SysT
 271:.\cmsis_core/core_cm0.h **** #define SysTick_CTRL_ENABLE_Msk            (1ul << SysTick_CTRL_ENABLE_Pos)               /*!< SysT
 272:.\cmsis_core/core_cm0.h **** 
 273:.\cmsis_core/core_cm0.h **** /* SysTick Reload Register Definitions */
 274:.\cmsis_core/core_cm0.h **** #define SysTick_LOAD_RELOAD_Pos             0                                             /*!< SysT
 275:.\cmsis_core/core_cm0.h **** #define SysTick_LOAD_RELOAD_Msk            (0xFFFFFFul << SysTick_LOAD_RELOAD_Pos)        /*!< SysT
 276:.\cmsis_core/core_cm0.h **** 
 277:.\cmsis_core/core_cm0.h **** /* SysTick Current Register Definitions */
 278:.\cmsis_core/core_cm0.h **** #define SysTick_VAL_CURRENT_Pos             0                                             /*!< SysT
 279:.\cmsis_core/core_cm0.h **** #define SysTick_VAL_CURRENT_Msk            (0xFFFFFFul << SysTick_VAL_CURRENT_Pos)        /*!< SysT
 280:.\cmsis_core/core_cm0.h **** 
 281:.\cmsis_core/core_cm0.h **** /* SysTick Calibration Register Definitions */
 282:.\cmsis_core/core_cm0.h **** #define SysTick_CALIB_NOREF_Pos            31                                             /*!< SysT
 283:.\cmsis_core/core_cm0.h **** #define SysTick_CALIB_NOREF_Msk            (1ul << SysTick_CALIB_NOREF_Pos)               /*!< SysT
 284:.\cmsis_core/core_cm0.h **** 
 285:.\cmsis_core/core_cm0.h **** #define SysTick_CALIB_SKEW_Pos             30                                             /*!< SysT
ARM GAS  C:\Users\Mariano\AppData\Local\Temp\ccAk74Yw.s 			page 7


 286:.\cmsis_core/core_cm0.h **** #define SysTick_CALIB_SKEW_Msk             (1ul << SysTick_CALIB_SKEW_Pos)                /*!< SysT
 287:.\cmsis_core/core_cm0.h **** 
 288:.\cmsis_core/core_cm0.h **** #define SysTick_CALIB_TENMS_Pos             0                                             /*!< SysT
 289:.\cmsis_core/core_cm0.h **** #define SysTick_CALIB_TENMS_Msk            (0xFFFFFFul << SysTick_VAL_CURRENT_Pos)        /*!< SysT
 290:.\cmsis_core/core_cm0.h **** /*@}*/ /* end of group CMSIS_CM0_SysTick */
 291:.\cmsis_core/core_cm0.h **** 
 292:.\cmsis_core/core_cm0.h **** 
 293:.\cmsis_core/core_cm0.h **** /** @addtogroup CMSIS_CM0_CoreDebug CMSIS CM0 Core Debug
 294:.\cmsis_core/core_cm0.h ****   memory mapped structure for Core Debug Register
 295:.\cmsis_core/core_cm0.h ****   @{
 296:.\cmsis_core/core_cm0.h ****  */
 297:.\cmsis_core/core_cm0.h **** typedef struct
 298:.\cmsis_core/core_cm0.h **** {
 299:.\cmsis_core/core_cm0.h ****   __IO uint32_t DHCSR;                        /*!< Offset: 0x00  Debug Halting Control and Status R
 300:.\cmsis_core/core_cm0.h ****   __O  uint32_t DCRSR;                        /*!< Offset: 0x04  Debug Core Register Selector Regis
 301:.\cmsis_core/core_cm0.h ****   __IO uint32_t DCRDR;                        /*!< Offset: 0x08  Debug Core Register Data Register 
 302:.\cmsis_core/core_cm0.h ****   __IO uint32_t DEMCR;                        /*!< Offset: 0x0C  Debug Exception and Monitor Contro
 303:.\cmsis_core/core_cm0.h **** } CoreDebug_Type;
 304:.\cmsis_core/core_cm0.h **** 
 305:.\cmsis_core/core_cm0.h **** /* Debug Halting Control and Status Register */
 306:.\cmsis_core/core_cm0.h **** #define CoreDebug_DHCSR_DBGKEY_Pos         16                                             /*!< Core
 307:.\cmsis_core/core_cm0.h **** #define CoreDebug_DHCSR_DBGKEY_Msk         (0xFFFFul << CoreDebug_DHCSR_DBGKEY_Pos)       /*!< Core
 308:.\cmsis_core/core_cm0.h **** 
 309:.\cmsis_core/core_cm0.h **** #define CoreDebug_DHCSR_S_RESET_ST_Pos     25                                             /*!< Core
 310:.\cmsis_core/core_cm0.h **** #define CoreDebug_DHCSR_S_RESET_ST_Msk     (1ul << CoreDebug_DHCSR_S_RESET_ST_Pos)        /*!< Core
 311:.\cmsis_core/core_cm0.h **** 
 312:.\cmsis_core/core_cm0.h **** #define CoreDebug_DHCSR_S_RETIRE_ST_Pos    24                                             /*!< Core
 313:.\cmsis_core/core_cm0.h **** #define CoreDebug_DHCSR_S_RETIRE_ST_Msk    (1ul << CoreDebug_DHCSR_S_RETIRE_ST_Pos)       /*!< Core
 314:.\cmsis_core/core_cm0.h **** 
 315:.\cmsis_core/core_cm0.h **** #define CoreDebug_DHCSR_S_LOCKUP_Pos       19                                             /*!< Core
 316:.\cmsis_core/core_cm0.h **** #define CoreDebug_DHCSR_S_LOCKUP_Msk       (1ul << CoreDebug_DHCSR_S_LOCKUP_Pos)          /*!< Core
 317:.\cmsis_core/core_cm0.h **** 
 318:.\cmsis_core/core_cm0.h **** #define CoreDebug_DHCSR_S_SLEEP_Pos        18                                             /*!< Core
 319:.\cmsis_core/core_cm0.h **** #define CoreDebug_DHCSR_S_SLEEP_Msk        (1ul << CoreDebug_DHCSR_S_SLEEP_Pos)           /*!< Core
 320:.\cmsis_core/core_cm0.h **** 
 321:.\cmsis_core/core_cm0.h **** #define CoreDebug_DHCSR_S_HALT_Pos         17                                             /*!< Core
 322:.\cmsis_core/core_cm0.h **** #define CoreDebug_DHCSR_S_HALT_Msk         (1ul << CoreDebug_DHCSR_S_HALT_Pos)            /*!< Core
 323:.\cmsis_core/core_cm0.h **** 
 324:.\cmsis_core/core_cm0.h **** #define CoreDebug_DHCSR_S_REGRDY_Pos       16                                             /*!< Core
 325:.\cmsis_core/core_cm0.h **** #define CoreDebug_DHCSR_S_REGRDY_Msk       (1ul << CoreDebug_DHCSR_S_REGRDY_Pos)          /*!< Core
 326:.\cmsis_core/core_cm0.h **** 
 327:.\cmsis_core/core_cm0.h **** #define CoreDebug_DHCSR_C_MASKINTS_Pos      3                                             /*!< Core
 328:.\cmsis_core/core_cm0.h **** #define CoreDebug_DHCSR_C_MASKINTS_Msk     (1ul << CoreDebug_DHCSR_C_MASKINTS_Pos)        /*!< Core
 329:.\cmsis_core/core_cm0.h **** 
 330:.\cmsis_core/core_cm0.h **** #define CoreDebug_DHCSR_C_STEP_Pos          2                                             /*!< Core
 331:.\cmsis_core/core_cm0.h **** #define CoreDebug_DHCSR_C_STEP_Msk         (1ul << CoreDebug_DHCSR_C_STEP_Pos)            /*!< Core
 332:.\cmsis_core/core_cm0.h **** 
 333:.\cmsis_core/core_cm0.h **** #define CoreDebug_DHCSR_C_HALT_Pos          1                                             /*!< Core
 334:.\cmsis_core/core_cm0.h **** #define CoreDebug_DHCSR_C_HALT_Msk         (1ul << CoreDebug_DHCSR_C_HALT_Pos)            /*!< Core
 335:.\cmsis_core/core_cm0.h **** 
 336:.\cmsis_core/core_cm0.h **** #define CoreDebug_DHCSR_C_DEBUGEN_Pos       0                                             /*!< Core
 337:.\cmsis_core/core_cm0.h **** #define CoreDebug_DHCSR_C_DEBUGEN_Msk      (1ul << CoreDebug_DHCSR_C_DEBUGEN_Pos)         /*!< Core
 338:.\cmsis_core/core_cm0.h **** 
 339:.\cmsis_core/core_cm0.h **** /* Debug Core Register Selector Register */
 340:.\cmsis_core/core_cm0.h **** #define CoreDebug_DCRSR_REGWnR_Pos         16                                             /*!< Core
 341:.\cmsis_core/core_cm0.h **** #define CoreDebug_DCRSR_REGWnR_Msk         (1ul << CoreDebug_DCRSR_REGWnR_Pos)            /*!< Core
 342:.\cmsis_core/core_cm0.h **** 
ARM GAS  C:\Users\Mariano\AppData\Local\Temp\ccAk74Yw.s 			page 8


 343:.\cmsis_core/core_cm0.h **** #define CoreDebug_DCRSR_REGSEL_Pos          0                                             /*!< Core
 344:.\cmsis_core/core_cm0.h **** #define CoreDebug_DCRSR_REGSEL_Msk         (0x1Ful << CoreDebug_DCRSR_REGSEL_Pos)         /*!< Core
 345:.\cmsis_core/core_cm0.h **** 
 346:.\cmsis_core/core_cm0.h **** /* Debug Exception and Monitor Control Register */
 347:.\cmsis_core/core_cm0.h **** #define CoreDebug_DEMCR_DWTENA_Pos         24                                             /*!< Core
 348:.\cmsis_core/core_cm0.h **** #define CoreDebug_DEMCR_DWTENA_Msk         (1ul << CoreDebug_DEMCR_DWTENA_Pos)            /*!< Core
 349:.\cmsis_core/core_cm0.h **** 
 350:.\cmsis_core/core_cm0.h **** #define CoreDebug_DEMCR_VC_HARDERR_Pos     10                                             /*!< Core
 351:.\cmsis_core/core_cm0.h **** #define CoreDebug_DEMCR_VC_HARDERR_Msk     (1ul << CoreDebug_DEMCR_VC_HARDERR_Pos)        /*!< Core
 352:.\cmsis_core/core_cm0.h **** 
 353:.\cmsis_core/core_cm0.h **** #define CoreDebug_DEMCR_VC_CORERESET_Pos    0                                             /*!< Core
 354:.\cmsis_core/core_cm0.h **** #define CoreDebug_DEMCR_VC_CORERESET_Msk   (1ul << CoreDebug_DEMCR_VC_CORERESET_Pos)      /*!< Core
 355:.\cmsis_core/core_cm0.h **** /*@}*/ /* end of group CMSIS_CM0_CoreDebug */
 356:.\cmsis_core/core_cm0.h **** 
 357:.\cmsis_core/core_cm0.h **** 
 358:.\cmsis_core/core_cm0.h **** /* Memory mapping of Cortex-M0 Hardware */
 359:.\cmsis_core/core_cm0.h **** #define SCS_BASE            (0xE000E000)                              /*!< System Control Space Bas
 360:.\cmsis_core/core_cm0.h **** #define CoreDebug_BASE      (0xE000EDF0)                              /*!< Core Debug Base Address 
 361:.\cmsis_core/core_cm0.h **** #define SysTick_BASE        (SCS_BASE +  0x0010)                      /*!< SysTick Base Address    
 362:.\cmsis_core/core_cm0.h **** #define NVIC_BASE           (SCS_BASE +  0x0100)                      /*!< NVIC Base Address       
 363:.\cmsis_core/core_cm0.h **** #define SCB_BASE            (SCS_BASE +  0x0D00)                      /*!< System Control Block Bas
 364:.\cmsis_core/core_cm0.h **** 
 365:.\cmsis_core/core_cm0.h **** #define SCB                 ((SCB_Type *)           SCB_BASE)         /*!< SCB configuration struct
 366:.\cmsis_core/core_cm0.h **** #define SysTick             ((SysTick_Type *)       SysTick_BASE)     /*!< SysTick configuration st
 367:.\cmsis_core/core_cm0.h **** #define NVIC                ((NVIC_Type *)          NVIC_BASE)        /*!< NVIC configuration struc
 368:.\cmsis_core/core_cm0.h **** #define CoreDebug           ((CoreDebug_Type *)     CoreDebug_BASE)   /*!< Core Debug configuration
 369:.\cmsis_core/core_cm0.h **** 
 370:.\cmsis_core/core_cm0.h **** /*@}*/ /* end of group CMSIS_CM0_core_register */
 371:.\cmsis_core/core_cm0.h **** 
 372:.\cmsis_core/core_cm0.h **** 
 373:.\cmsis_core/core_cm0.h **** /*******************************************************************************
 374:.\cmsis_core/core_cm0.h ****  *                Hardware Abstraction Layer
 375:.\cmsis_core/core_cm0.h ****  ******************************************************************************/
 376:.\cmsis_core/core_cm0.h **** 
 377:.\cmsis_core/core_cm0.h **** #if defined ( __CC_ARM   )
 378:.\cmsis_core/core_cm0.h ****   #define __ASM            __asm                                      /*!< asm keyword for ARM Comp
 379:.\cmsis_core/core_cm0.h ****   #define __INLINE         __inline                                   /*!< inline keyword for ARM C
 380:.\cmsis_core/core_cm0.h **** 
 381:.\cmsis_core/core_cm0.h **** #elif defined ( __ICCARM__ )
 382:.\cmsis_core/core_cm0.h ****   #define __ASM           __asm                                       /*!< asm keyword for IAR Comp
 383:.\cmsis_core/core_cm0.h ****   #define __INLINE        inline                                      /*!< inline keyword for IAR C
 384:.\cmsis_core/core_cm0.h **** 
 385:.\cmsis_core/core_cm0.h **** #elif defined   (  __GNUC__  )
 386:.\cmsis_core/core_cm0.h ****   #define __ASM            __asm                                      /*!< asm keyword for GNU Comp
 387:.\cmsis_core/core_cm0.h ****   #define __INLINE         inline                                     /*!< inline keyword for GNU C
 388:.\cmsis_core/core_cm0.h **** 
 389:.\cmsis_core/core_cm0.h **** #elif defined   (  __TASKING__  )
 390:.\cmsis_core/core_cm0.h ****   #define __ASM            __asm                                      /*!< asm keyword for TASKING 
 391:.\cmsis_core/core_cm0.h ****   #define __INLINE         inline                                     /*!< inline keyword for TASKI
 392:.\cmsis_core/core_cm0.h **** 
 393:.\cmsis_core/core_cm0.h **** #endif
 394:.\cmsis_core/core_cm0.h **** 
 395:.\cmsis_core/core_cm0.h **** 
 396:.\cmsis_core/core_cm0.h **** /* ###################  Compiler specific Intrinsics  ########################### */
 397:.\cmsis_core/core_cm0.h **** 
 398:.\cmsis_core/core_cm0.h **** #if defined ( __CC_ARM   ) /*------------------RealView Compiler -----------------*/
 399:.\cmsis_core/core_cm0.h **** /* ARM armcc specific functions */
ARM GAS  C:\Users\Mariano\AppData\Local\Temp\ccAk74Yw.s 			page 9


 400:.\cmsis_core/core_cm0.h **** 
 401:.\cmsis_core/core_cm0.h **** #define __enable_fault_irq                __enable_fiq
 402:.\cmsis_core/core_cm0.h **** #define __disable_fault_irq               __disable_fiq
 403:.\cmsis_core/core_cm0.h **** 
 404:.\cmsis_core/core_cm0.h **** #define __NOP                             __nop
 405:.\cmsis_core/core_cm0.h **** #define __WFI                             __wfi
 406:.\cmsis_core/core_cm0.h **** #define __WFE                             __wfe
 407:.\cmsis_core/core_cm0.h **** #define __SEV                             __sev
 408:.\cmsis_core/core_cm0.h **** #define __ISB()                           __isb(0)
 409:.\cmsis_core/core_cm0.h **** #define __DSB()                           __dsb(0)
 410:.\cmsis_core/core_cm0.h **** #define __DMB()                           __dmb(0)
 411:.\cmsis_core/core_cm0.h **** #define __REV                             __rev
 412:.\cmsis_core/core_cm0.h **** 
 413:.\cmsis_core/core_cm0.h **** 
 414:.\cmsis_core/core_cm0.h **** /* intrinsic void __enable_irq();     */
 415:.\cmsis_core/core_cm0.h **** /* intrinsic void __disable_irq();    */
 416:.\cmsis_core/core_cm0.h **** 
 417:.\cmsis_core/core_cm0.h **** 
 418:.\cmsis_core/core_cm0.h **** /**
 419:.\cmsis_core/core_cm0.h ****  * @brief  Return the Process Stack Pointer
 420:.\cmsis_core/core_cm0.h ****  *
 421:.\cmsis_core/core_cm0.h ****  * @return ProcessStackPointer
 422:.\cmsis_core/core_cm0.h ****  *
 423:.\cmsis_core/core_cm0.h ****  * Return the actual process stack pointer
 424:.\cmsis_core/core_cm0.h ****  */
 425:.\cmsis_core/core_cm0.h **** extern uint32_t __get_PSP(void);
 426:.\cmsis_core/core_cm0.h **** 
 427:.\cmsis_core/core_cm0.h **** /**
 428:.\cmsis_core/core_cm0.h ****  * @brief  Set the Process Stack Pointer
 429:.\cmsis_core/core_cm0.h ****  *
 430:.\cmsis_core/core_cm0.h ****  * @param  topOfProcStack  Process Stack Pointer
 431:.\cmsis_core/core_cm0.h ****  *
 432:.\cmsis_core/core_cm0.h ****  * Assign the value ProcessStackPointer to the MSP 
 433:.\cmsis_core/core_cm0.h ****  * (process stack pointer) Cortex processor register
 434:.\cmsis_core/core_cm0.h ****  */
 435:.\cmsis_core/core_cm0.h **** extern void __set_PSP(uint32_t topOfProcStack);
 436:.\cmsis_core/core_cm0.h **** 
 437:.\cmsis_core/core_cm0.h **** /**
 438:.\cmsis_core/core_cm0.h ****  * @brief  Return the Main Stack Pointer
 439:.\cmsis_core/core_cm0.h ****  *
 440:.\cmsis_core/core_cm0.h ****  * @return Main Stack Pointer
 441:.\cmsis_core/core_cm0.h ****  *
 442:.\cmsis_core/core_cm0.h ****  * Return the current value of the MSP (main stack pointer)
 443:.\cmsis_core/core_cm0.h ****  * Cortex processor register
 444:.\cmsis_core/core_cm0.h ****  */
 445:.\cmsis_core/core_cm0.h **** extern uint32_t __get_MSP(void);
 446:.\cmsis_core/core_cm0.h **** 
 447:.\cmsis_core/core_cm0.h **** /**
 448:.\cmsis_core/core_cm0.h ****  * @brief  Set the Main Stack Pointer
 449:.\cmsis_core/core_cm0.h ****  *
 450:.\cmsis_core/core_cm0.h ****  * @param  topOfMainStack  Main Stack Pointer
 451:.\cmsis_core/core_cm0.h ****  *
 452:.\cmsis_core/core_cm0.h ****  * Assign the value mainStackPointer to the MSP 
 453:.\cmsis_core/core_cm0.h ****  * (main stack pointer) Cortex processor register
 454:.\cmsis_core/core_cm0.h ****  */
 455:.\cmsis_core/core_cm0.h **** extern void __set_MSP(uint32_t topOfMainStack);
 456:.\cmsis_core/core_cm0.h **** 
ARM GAS  C:\Users\Mariano\AppData\Local\Temp\ccAk74Yw.s 			page 10


 457:.\cmsis_core/core_cm0.h **** /**
 458:.\cmsis_core/core_cm0.h ****  * @brief  Reverse byte order in unsigned short value
 459:.\cmsis_core/core_cm0.h ****  *
 460:.\cmsis_core/core_cm0.h ****  * @param   value  value to reverse
 461:.\cmsis_core/core_cm0.h ****  * @return         reversed value
 462:.\cmsis_core/core_cm0.h ****  *
 463:.\cmsis_core/core_cm0.h ****  * Reverse byte order in unsigned short value
 464:.\cmsis_core/core_cm0.h ****  */
 465:.\cmsis_core/core_cm0.h **** extern uint32_t __REV16(uint16_t value);
 466:.\cmsis_core/core_cm0.h **** 
 467:.\cmsis_core/core_cm0.h **** /**
 468:.\cmsis_core/core_cm0.h ****  * @brief  Reverse byte order in signed short value with sign extension to integer
 469:.\cmsis_core/core_cm0.h ****  *
 470:.\cmsis_core/core_cm0.h ****  * @param   value  value to reverse
 471:.\cmsis_core/core_cm0.h ****  * @return         reversed value
 472:.\cmsis_core/core_cm0.h ****  *
 473:.\cmsis_core/core_cm0.h ****  * Reverse byte order in signed short value with sign extension to integer
 474:.\cmsis_core/core_cm0.h ****  */
 475:.\cmsis_core/core_cm0.h **** extern int32_t __REVSH(int16_t value);
 476:.\cmsis_core/core_cm0.h **** 
 477:.\cmsis_core/core_cm0.h **** 
 478:.\cmsis_core/core_cm0.h **** #if (__ARMCC_VERSION < 400000)
 479:.\cmsis_core/core_cm0.h **** 
 480:.\cmsis_core/core_cm0.h **** /**
 481:.\cmsis_core/core_cm0.h ****  * @brief  Return the Priority Mask value
 482:.\cmsis_core/core_cm0.h ****  *
 483:.\cmsis_core/core_cm0.h ****  * @return PriMask
 484:.\cmsis_core/core_cm0.h ****  *
 485:.\cmsis_core/core_cm0.h ****  * Return state of the priority mask bit from the priority mask register
 486:.\cmsis_core/core_cm0.h ****  */
 487:.\cmsis_core/core_cm0.h **** extern uint32_t __get_PRIMASK(void);
 488:.\cmsis_core/core_cm0.h **** 
 489:.\cmsis_core/core_cm0.h **** /**
 490:.\cmsis_core/core_cm0.h ****  * @brief  Set the Priority Mask value
 491:.\cmsis_core/core_cm0.h ****  *
 492:.\cmsis_core/core_cm0.h ****  * @param   priMask  PriMask
 493:.\cmsis_core/core_cm0.h ****  *
 494:.\cmsis_core/core_cm0.h ****  * Set the priority mask bit in the priority mask register
 495:.\cmsis_core/core_cm0.h ****  */
 496:.\cmsis_core/core_cm0.h **** extern void __set_PRIMASK(uint32_t priMask);
 497:.\cmsis_core/core_cm0.h **** 
 498:.\cmsis_core/core_cm0.h **** /**
 499:.\cmsis_core/core_cm0.h ****  * @brief  Return the Control Register value
 500:.\cmsis_core/core_cm0.h ****  * 
 501:.\cmsis_core/core_cm0.h ****  * @return Control value
 502:.\cmsis_core/core_cm0.h ****  *
 503:.\cmsis_core/core_cm0.h ****  * Return the content of the control register
 504:.\cmsis_core/core_cm0.h ****  */
 505:.\cmsis_core/core_cm0.h **** extern uint32_t __get_CONTROL(void);
 506:.\cmsis_core/core_cm0.h **** 
 507:.\cmsis_core/core_cm0.h **** /**
 508:.\cmsis_core/core_cm0.h ****  * @brief  Set the Control Register value
 509:.\cmsis_core/core_cm0.h ****  *
 510:.\cmsis_core/core_cm0.h ****  * @param  control  Control value
 511:.\cmsis_core/core_cm0.h ****  *
 512:.\cmsis_core/core_cm0.h ****  * Set the control register
 513:.\cmsis_core/core_cm0.h ****  */
ARM GAS  C:\Users\Mariano\AppData\Local\Temp\ccAk74Yw.s 			page 11


 514:.\cmsis_core/core_cm0.h **** extern void __set_CONTROL(uint32_t control);
 515:.\cmsis_core/core_cm0.h **** 
 516:.\cmsis_core/core_cm0.h **** #else  /* (__ARMCC_VERSION >= 400000)  */
 517:.\cmsis_core/core_cm0.h **** 
 518:.\cmsis_core/core_cm0.h **** 
 519:.\cmsis_core/core_cm0.h **** /**
 520:.\cmsis_core/core_cm0.h ****  * @brief  Return the Priority Mask value
 521:.\cmsis_core/core_cm0.h ****  *
 522:.\cmsis_core/core_cm0.h ****  * @return PriMask
 523:.\cmsis_core/core_cm0.h ****  *
 524:.\cmsis_core/core_cm0.h ****  * Return state of the priority mask bit from the priority mask register
 525:.\cmsis_core/core_cm0.h ****  */
 526:.\cmsis_core/core_cm0.h **** static __INLINE uint32_t __get_PRIMASK(void)
 527:.\cmsis_core/core_cm0.h **** {
 528:.\cmsis_core/core_cm0.h ****   register uint32_t __regPriMask         __ASM("primask");
 529:.\cmsis_core/core_cm0.h ****   return(__regPriMask);
 530:.\cmsis_core/core_cm0.h **** }
 531:.\cmsis_core/core_cm0.h **** 
 532:.\cmsis_core/core_cm0.h **** /**
 533:.\cmsis_core/core_cm0.h ****  * @brief  Set the Priority Mask value
 534:.\cmsis_core/core_cm0.h ****  *
 535:.\cmsis_core/core_cm0.h ****  * @param  priMask  PriMask
 536:.\cmsis_core/core_cm0.h ****  *
 537:.\cmsis_core/core_cm0.h ****  * Set the priority mask bit in the priority mask register
 538:.\cmsis_core/core_cm0.h ****  */
 539:.\cmsis_core/core_cm0.h **** static __INLINE void __set_PRIMASK(uint32_t priMask)
 540:.\cmsis_core/core_cm0.h **** {
 541:.\cmsis_core/core_cm0.h ****   register uint32_t __regPriMask         __ASM("primask");
 542:.\cmsis_core/core_cm0.h ****   __regPriMask = (priMask);
 543:.\cmsis_core/core_cm0.h **** }
 544:.\cmsis_core/core_cm0.h **** 
 545:.\cmsis_core/core_cm0.h **** /**
 546:.\cmsis_core/core_cm0.h ****  * @brief  Return the Control Register value
 547:.\cmsis_core/core_cm0.h ****  * 
 548:.\cmsis_core/core_cm0.h ****  * @return Control value
 549:.\cmsis_core/core_cm0.h ****  *
 550:.\cmsis_core/core_cm0.h ****  * Return the content of the control register
 551:.\cmsis_core/core_cm0.h ****  */
 552:.\cmsis_core/core_cm0.h **** static __INLINE uint32_t __get_CONTROL(void)
 553:.\cmsis_core/core_cm0.h **** {
 554:.\cmsis_core/core_cm0.h ****   register uint32_t __regControl         __ASM("control");
 555:.\cmsis_core/core_cm0.h ****   return(__regControl);
 556:.\cmsis_core/core_cm0.h **** }
 557:.\cmsis_core/core_cm0.h **** 
 558:.\cmsis_core/core_cm0.h **** /**
 559:.\cmsis_core/core_cm0.h ****  * @brief  Set the Control Register value
 560:.\cmsis_core/core_cm0.h ****  *
 561:.\cmsis_core/core_cm0.h ****  * @param  control  Control value
 562:.\cmsis_core/core_cm0.h ****  *
 563:.\cmsis_core/core_cm0.h ****  * Set the control register
 564:.\cmsis_core/core_cm0.h ****  */
 565:.\cmsis_core/core_cm0.h **** static __INLINE void __set_CONTROL(uint32_t control)
 566:.\cmsis_core/core_cm0.h **** {
 567:.\cmsis_core/core_cm0.h ****   register uint32_t __regControl         __ASM("control");
 568:.\cmsis_core/core_cm0.h ****   __regControl = control;
 569:.\cmsis_core/core_cm0.h **** }
 570:.\cmsis_core/core_cm0.h **** 
ARM GAS  C:\Users\Mariano\AppData\Local\Temp\ccAk74Yw.s 			page 12


 571:.\cmsis_core/core_cm0.h **** #endif /* __ARMCC_VERSION  */ 
 572:.\cmsis_core/core_cm0.h **** 
 573:.\cmsis_core/core_cm0.h **** 
 574:.\cmsis_core/core_cm0.h **** 
 575:.\cmsis_core/core_cm0.h **** #elif (defined (__ICCARM__)) /*------------------ ICC Compiler -------------------*/
 576:.\cmsis_core/core_cm0.h **** /* IAR iccarm specific functions */
 577:.\cmsis_core/core_cm0.h **** 
 578:.\cmsis_core/core_cm0.h **** #define __enable_irq                              __enable_interrupt        /*!< global Interrupt e
 579:.\cmsis_core/core_cm0.h **** #define __disable_irq                             __disable_interrupt       /*!< global Interrupt d
 580:.\cmsis_core/core_cm0.h **** 
 581:.\cmsis_core/core_cm0.h **** static __INLINE void __enable_fault_irq()         { __ASM ("cpsie f"); }
 582:.\cmsis_core/core_cm0.h **** static __INLINE void __disable_fault_irq()        { __ASM ("cpsid f"); }
 583:.\cmsis_core/core_cm0.h **** 
 584:.\cmsis_core/core_cm0.h **** #define __NOP                                     __no_operation            /*!< no operation intri
 585:.\cmsis_core/core_cm0.h **** static __INLINE  void __WFI()                     { __ASM ("wfi"); }
 586:.\cmsis_core/core_cm0.h **** static __INLINE  void __WFE()                     { __ASM ("wfe"); }
 587:.\cmsis_core/core_cm0.h **** static __INLINE  void __SEV()                     { __ASM ("sev"); }
 588:.\cmsis_core/core_cm0.h **** 
 589:.\cmsis_core/core_cm0.h **** /* intrinsic void __ISB(void)                                     */
 590:.\cmsis_core/core_cm0.h **** /* intrinsic void __DSB(void)                                     */
 591:.\cmsis_core/core_cm0.h **** /* intrinsic void __DMB(void)                                     */
 592:.\cmsis_core/core_cm0.h **** /* intrinsic void __set_PRIMASK();                                */
 593:.\cmsis_core/core_cm0.h **** /* intrinsic void __get_PRIMASK();                                */
 594:.\cmsis_core/core_cm0.h **** 
 595:.\cmsis_core/core_cm0.h **** 
 596:.\cmsis_core/core_cm0.h **** /* intrinsic uint32_t __REV(uint32_t value);                      */
 597:.\cmsis_core/core_cm0.h **** /* intrinsic uint32_t __REVSH(uint32_t value);                    */
 598:.\cmsis_core/core_cm0.h **** 
 599:.\cmsis_core/core_cm0.h **** 
 600:.\cmsis_core/core_cm0.h **** /**
 601:.\cmsis_core/core_cm0.h ****  * @brief  Return the Process Stack Pointer
 602:.\cmsis_core/core_cm0.h ****  *
 603:.\cmsis_core/core_cm0.h ****  * @return ProcessStackPointer
 604:.\cmsis_core/core_cm0.h ****  *
 605:.\cmsis_core/core_cm0.h ****  * Return the actual process stack pointer
 606:.\cmsis_core/core_cm0.h ****  */
 607:.\cmsis_core/core_cm0.h **** extern uint32_t __get_PSP(void);
 608:.\cmsis_core/core_cm0.h **** 
 609:.\cmsis_core/core_cm0.h **** /**
 610:.\cmsis_core/core_cm0.h ****  * @brief  Set the Process Stack Pointer
 611:.\cmsis_core/core_cm0.h ****  *
 612:.\cmsis_core/core_cm0.h ****  * @param  topOfProcStack  Process Stack Pointer
 613:.\cmsis_core/core_cm0.h ****  *
 614:.\cmsis_core/core_cm0.h ****  * Assign the value ProcessStackPointer to the MSP 
 615:.\cmsis_core/core_cm0.h ****  * (process stack pointer) Cortex processor register
 616:.\cmsis_core/core_cm0.h ****  */
 617:.\cmsis_core/core_cm0.h **** extern void __set_PSP(uint32_t topOfProcStack);
 618:.\cmsis_core/core_cm0.h **** 
 619:.\cmsis_core/core_cm0.h **** /**
 620:.\cmsis_core/core_cm0.h ****  * @brief  Return the Main Stack Pointer
 621:.\cmsis_core/core_cm0.h ****  *
 622:.\cmsis_core/core_cm0.h ****  * @return Main Stack Pointer
 623:.\cmsis_core/core_cm0.h ****  *
 624:.\cmsis_core/core_cm0.h ****  * Return the current value of the MSP (main stack pointer)
 625:.\cmsis_core/core_cm0.h ****  * Cortex processor register
 626:.\cmsis_core/core_cm0.h ****  */
 627:.\cmsis_core/core_cm0.h **** extern uint32_t __get_MSP(void);
ARM GAS  C:\Users\Mariano\AppData\Local\Temp\ccAk74Yw.s 			page 13


 628:.\cmsis_core/core_cm0.h **** 
 629:.\cmsis_core/core_cm0.h **** /**
 630:.\cmsis_core/core_cm0.h ****  * @brief  Set the Main Stack Pointer
 631:.\cmsis_core/core_cm0.h ****  *
 632:.\cmsis_core/core_cm0.h ****  * @param  topOfMainStack  Main Stack Pointer
 633:.\cmsis_core/core_cm0.h ****  *
 634:.\cmsis_core/core_cm0.h ****  * Assign the value mainStackPointer to the MSP 
 635:.\cmsis_core/core_cm0.h ****  * (main stack pointer) Cortex processor register
 636:.\cmsis_core/core_cm0.h ****  */
 637:.\cmsis_core/core_cm0.h **** extern void __set_MSP(uint32_t topOfMainStack);
 638:.\cmsis_core/core_cm0.h **** 
 639:.\cmsis_core/core_cm0.h **** /**
 640:.\cmsis_core/core_cm0.h ****  * @brief  Reverse byte order in unsigned short value
 641:.\cmsis_core/core_cm0.h ****  *
 642:.\cmsis_core/core_cm0.h ****  * @param  value  value to reverse
 643:.\cmsis_core/core_cm0.h ****  * @return        reversed value
 644:.\cmsis_core/core_cm0.h ****  *
 645:.\cmsis_core/core_cm0.h ****  * Reverse byte order in unsigned short value
 646:.\cmsis_core/core_cm0.h ****  */
 647:.\cmsis_core/core_cm0.h **** extern uint32_t __REV16(uint16_t value);
 648:.\cmsis_core/core_cm0.h **** 
 649:.\cmsis_core/core_cm0.h **** 
 650:.\cmsis_core/core_cm0.h **** #elif (defined (__GNUC__)) /*------------------ GNU Compiler ---------------------*/
 651:.\cmsis_core/core_cm0.h **** /* GNU gcc specific functions */
 652:.\cmsis_core/core_cm0.h **** 
 653:.\cmsis_core/core_cm0.h **** static __INLINE void __enable_irq()               { __ASM volatile ("cpsie i"); }
 654:.\cmsis_core/core_cm0.h **** static __INLINE void __disable_irq()              { __ASM volatile ("cpsid i"); }
 655:.\cmsis_core/core_cm0.h **** 
 656:.\cmsis_core/core_cm0.h **** static __INLINE void __enable_fault_irq()         { __ASM volatile ("cpsie f"); }
 657:.\cmsis_core/core_cm0.h **** static __INLINE void __disable_fault_irq()        { __ASM volatile ("cpsid f"); }
 658:.\cmsis_core/core_cm0.h **** 
 659:.\cmsis_core/core_cm0.h **** static __INLINE void __NOP()                      { __ASM volatile ("nop"); }
 660:.\cmsis_core/core_cm0.h **** static __INLINE void __WFI()                      { __ASM volatile ("wfi"); }
 661:.\cmsis_core/core_cm0.h **** static __INLINE void __WFE()                      { __ASM volatile ("wfe"); }
 662:.\cmsis_core/core_cm0.h **** static __INLINE void __SEV()                      { __ASM volatile ("sev"); }
 663:.\cmsis_core/core_cm0.h **** static __INLINE void __ISB()                      { __ASM volatile ("isb"); }
 664:.\cmsis_core/core_cm0.h **** static __INLINE void __DSB()                      { __ASM volatile ("dsb"); }
 665:.\cmsis_core/core_cm0.h **** static __INLINE void __DMB()                      { __ASM volatile ("dmb"); }
 666:.\cmsis_core/core_cm0.h **** 
 667:.\cmsis_core/core_cm0.h **** 
 668:.\cmsis_core/core_cm0.h **** /**
 669:.\cmsis_core/core_cm0.h ****  * @brief  Return the Process Stack Pointer
 670:.\cmsis_core/core_cm0.h ****  *
 671:.\cmsis_core/core_cm0.h ****  * @return ProcessStackPointer
 672:.\cmsis_core/core_cm0.h ****  *
 673:.\cmsis_core/core_cm0.h ****  * Return the actual process stack pointer
 674:.\cmsis_core/core_cm0.h ****  */
 675:.\cmsis_core/core_cm0.h **** extern uint32_t __get_PSP(void);
 676:.\cmsis_core/core_cm0.h **** 
 677:.\cmsis_core/core_cm0.h **** /**
 678:.\cmsis_core/core_cm0.h ****  * @brief  Set the Process Stack Pointer
 679:.\cmsis_core/core_cm0.h ****  *
 680:.\cmsis_core/core_cm0.h ****  * @param  topOfProcStack  Process Stack Pointer
 681:.\cmsis_core/core_cm0.h ****  *
 682:.\cmsis_core/core_cm0.h ****  * Assign the value ProcessStackPointer to the MSP 
 683:.\cmsis_core/core_cm0.h ****  * (process stack pointer) Cortex processor register
 684:.\cmsis_core/core_cm0.h ****  */
ARM GAS  C:\Users\Mariano\AppData\Local\Temp\ccAk74Yw.s 			page 14


 685:.\cmsis_core/core_cm0.h **** extern void __set_PSP(uint32_t topOfProcStack);
 686:.\cmsis_core/core_cm0.h **** 
 687:.\cmsis_core/core_cm0.h **** /**
 688:.\cmsis_core/core_cm0.h ****  * @brief  Return the Main Stack Pointer
 689:.\cmsis_core/core_cm0.h ****  *
 690:.\cmsis_core/core_cm0.h ****  * @return Main Stack Pointer
 691:.\cmsis_core/core_cm0.h ****  *
 692:.\cmsis_core/core_cm0.h ****  * Return the current value of the MSP (main stack pointer)
 693:.\cmsis_core/core_cm0.h ****  * Cortex processor register
 694:.\cmsis_core/core_cm0.h ****  */
 695:.\cmsis_core/core_cm0.h **** extern uint32_t __get_MSP(void);
 696:.\cmsis_core/core_cm0.h **** 
 697:.\cmsis_core/core_cm0.h **** /**
 698:.\cmsis_core/core_cm0.h ****  * @brief  Set the Main Stack Pointer
 699:.\cmsis_core/core_cm0.h ****  *
 700:.\cmsis_core/core_cm0.h ****  * @param  topOfMainStack  Main Stack Pointer
 701:.\cmsis_core/core_cm0.h ****  *
 702:.\cmsis_core/core_cm0.h ****  * Assign the value mainStackPointer to the MSP 
 703:.\cmsis_core/core_cm0.h ****  * (main stack pointer) Cortex processor register
 704:.\cmsis_core/core_cm0.h ****  */
 705:.\cmsis_core/core_cm0.h **** extern void __set_MSP(uint32_t topOfMainStack);
 706:.\cmsis_core/core_cm0.h **** 
 707:.\cmsis_core/core_cm0.h **** /**
 708:.\cmsis_core/core_cm0.h ****  * @brief  Return the Priority Mask value
 709:.\cmsis_core/core_cm0.h ****  *
 710:.\cmsis_core/core_cm0.h ****  * @return PriMask
 711:.\cmsis_core/core_cm0.h ****  *
 712:.\cmsis_core/core_cm0.h ****  * Return state of the priority mask bit from the priority mask register
 713:.\cmsis_core/core_cm0.h ****  */
 714:.\cmsis_core/core_cm0.h **** extern uint32_t  __get_PRIMASK(void);
 715:.\cmsis_core/core_cm0.h **** 
 716:.\cmsis_core/core_cm0.h **** /**
 717:.\cmsis_core/core_cm0.h ****  * @brief  Set the Priority Mask value
 718:.\cmsis_core/core_cm0.h ****  *
 719:.\cmsis_core/core_cm0.h ****  * @param  priMask  PriMask
 720:.\cmsis_core/core_cm0.h ****  *
 721:.\cmsis_core/core_cm0.h ****  * Set the priority mask bit in the priority mask register
 722:.\cmsis_core/core_cm0.h ****  */
 723:.\cmsis_core/core_cm0.h **** extern void __set_PRIMASK(uint32_t priMask);
 724:.\cmsis_core/core_cm0.h **** 
 725:.\cmsis_core/core_cm0.h **** /**
 726:.\cmsis_core/core_cm0.h ****  * @brief  Return the Control Register value
 727:.\cmsis_core/core_cm0.h **** * 
 728:.\cmsis_core/core_cm0.h **** *  @return Control value
 729:.\cmsis_core/core_cm0.h ****  *
 730:.\cmsis_core/core_cm0.h ****  * Return the content of the control register
 731:.\cmsis_core/core_cm0.h ****  */
 732:.\cmsis_core/core_cm0.h **** extern uint32_t __get_CONTROL(void);
 733:.\cmsis_core/core_cm0.h **** 
 734:.\cmsis_core/core_cm0.h **** /**
 735:.\cmsis_core/core_cm0.h ****  * @brief  Set the Control Register value
 736:.\cmsis_core/core_cm0.h ****  *
 737:.\cmsis_core/core_cm0.h ****  * @param  control  Control value
 738:.\cmsis_core/core_cm0.h ****  *
 739:.\cmsis_core/core_cm0.h ****  * Set the control register
 740:.\cmsis_core/core_cm0.h ****  */
 741:.\cmsis_core/core_cm0.h **** extern void __set_CONTROL(uint32_t control);
ARM GAS  C:\Users\Mariano\AppData\Local\Temp\ccAk74Yw.s 			page 15


 742:.\cmsis_core/core_cm0.h **** 
 743:.\cmsis_core/core_cm0.h **** /**
 744:.\cmsis_core/core_cm0.h ****  * @brief  Reverse byte order in integer value
 745:.\cmsis_core/core_cm0.h ****  *
 746:.\cmsis_core/core_cm0.h ****  * @param  value  value to reverse
 747:.\cmsis_core/core_cm0.h ****  * @return        reversed value
 748:.\cmsis_core/core_cm0.h ****  *
 749:.\cmsis_core/core_cm0.h ****  * Reverse byte order in integer value
 750:.\cmsis_core/core_cm0.h ****  */
 751:.\cmsis_core/core_cm0.h **** extern uint32_t __REV(uint32_t value);
 752:.\cmsis_core/core_cm0.h **** 
 753:.\cmsis_core/core_cm0.h **** /**
 754:.\cmsis_core/core_cm0.h ****  * @brief  Reverse byte order in unsigned short value
 755:.\cmsis_core/core_cm0.h ****  *
 756:.\cmsis_core/core_cm0.h ****  * @param  value  value to reverse
 757:.\cmsis_core/core_cm0.h ****  * @return        reversed value
 758:.\cmsis_core/core_cm0.h ****  *
 759:.\cmsis_core/core_cm0.h ****  * Reverse byte order in unsigned short value
 760:.\cmsis_core/core_cm0.h ****  */
 761:.\cmsis_core/core_cm0.h **** extern uint32_t __REV16(uint16_t value);
 762:.\cmsis_core/core_cm0.h **** 
 763:.\cmsis_core/core_cm0.h **** /**
 764:.\cmsis_core/core_cm0.h ****  * @brief  Reverse byte order in signed short value with sign extension to integer
 765:.\cmsis_core/core_cm0.h ****  *
 766:.\cmsis_core/core_cm0.h ****  * @param  value  value to reverse
 767:.\cmsis_core/core_cm0.h ****  * @return        reversed value
 768:.\cmsis_core/core_cm0.h ****  *
 769:.\cmsis_core/core_cm0.h ****  * Reverse byte order in signed short value with sign extension to integer
 770:.\cmsis_core/core_cm0.h ****  */
 771:.\cmsis_core/core_cm0.h **** extern int32_t __REVSH(int16_t value);
 772:.\cmsis_core/core_cm0.h **** 
 773:.\cmsis_core/core_cm0.h **** 
 774:.\cmsis_core/core_cm0.h **** #elif (defined (__TASKING__)) /*------------------ TASKING Compiler ---------------------*/
 775:.\cmsis_core/core_cm0.h **** /* TASKING carm specific functions */
 776:.\cmsis_core/core_cm0.h **** 
 777:.\cmsis_core/core_cm0.h **** /*
 778:.\cmsis_core/core_cm0.h ****  * The CMSIS functions have been implemented as intrinsics in the compiler.
 779:.\cmsis_core/core_cm0.h ****  * Please use "carm -?i" to get an up to date list of all instrinsics,
 780:.\cmsis_core/core_cm0.h ****  * Including the CMSIS ones.
 781:.\cmsis_core/core_cm0.h ****  */
 782:.\cmsis_core/core_cm0.h **** 
 783:.\cmsis_core/core_cm0.h **** #endif
 784:.\cmsis_core/core_cm0.h **** 
 785:.\cmsis_core/core_cm0.h **** 
 786:.\cmsis_core/core_cm0.h **** /** @addtogroup CMSIS_CM0_Core_FunctionInterface CMSIS CM0 Core Function Interface
 787:.\cmsis_core/core_cm0.h ****   Core  Function Interface containing:
 788:.\cmsis_core/core_cm0.h ****   - Core NVIC Functions
 789:.\cmsis_core/core_cm0.h ****   - Core SysTick Functions
 790:.\cmsis_core/core_cm0.h ****   - Core Reset Functions
 791:.\cmsis_core/core_cm0.h **** */
 792:.\cmsis_core/core_cm0.h **** /*@{*/
 793:.\cmsis_core/core_cm0.h **** 
 794:.\cmsis_core/core_cm0.h **** /* ##########################   NVIC functions  #################################### */
 795:.\cmsis_core/core_cm0.h **** 
 796:.\cmsis_core/core_cm0.h **** /* Interrupt Priorities are WORD accessible only under ARMv6M                   */
 797:.\cmsis_core/core_cm0.h **** /* The following MACROS handle generation of the register offset and byte masks */
 798:.\cmsis_core/core_cm0.h **** #define _BIT_SHIFT(IRQn)         (  (((uint32_t)(IRQn)       )    &  0x03) * 8 )
ARM GAS  C:\Users\Mariano\AppData\Local\Temp\ccAk74Yw.s 			page 16


 799:.\cmsis_core/core_cm0.h **** #define _SHP_IDX(IRQn)           ( ((((uint32_t)(IRQn) & 0x0F)-8) >>    2)     )
 800:.\cmsis_core/core_cm0.h **** #define _IP_IDX(IRQn)            (   ((uint32_t)(IRQn)            >>    2)     )
 801:.\cmsis_core/core_cm0.h **** 
 802:.\cmsis_core/core_cm0.h **** 
 803:.\cmsis_core/core_cm0.h **** /**
 804:.\cmsis_core/core_cm0.h ****  * @brief  Enable Interrupt in NVIC Interrupt Controller
 805:.\cmsis_core/core_cm0.h ****  *
 806:.\cmsis_core/core_cm0.h ****  * @param  IRQn   The positive number of the external interrupt to enable
 807:.\cmsis_core/core_cm0.h ****  *
 808:.\cmsis_core/core_cm0.h ****  * Enable a device specific interupt in the NVIC interrupt controller.
 809:.\cmsis_core/core_cm0.h ****  * The interrupt number cannot be a negative value.
 810:.\cmsis_core/core_cm0.h ****  */
 811:.\cmsis_core/core_cm0.h **** static __INLINE void NVIC_EnableIRQ(IRQn_Type IRQn)
 812:.\cmsis_core/core_cm0.h **** {
  58              		.loc 1 812 0
  59              		.cfi_startproc
  60 0000 82B0     		sub	sp, sp, #8	@,,
  61              	.LCFI0:
  62              		.cfi_def_cfa_offset 8
  63 0002 021C     		mov	r2, r0	@ tmp140, IRQn
  64 0004 6B46     		mov	r3, sp	@ tmp141,
  65 0006 0733     		add	r3, r3, #7	@ tmp141,
  66 0008 1A70     		strb	r2, [r3]	@ tmp142, IRQn
 813:.\cmsis_core/core_cm0.h ****   NVIC->ISER[0] = (1 << ((uint32_t)(IRQn) & 0x1F)); /* enable interrupt */
  67              		.loc 1 813 0
  68 000a 074B     		ldr	r3, .L2	@ D.4762,
  69 000c 6A46     		mov	r2, sp	@ tmp143,
  70 000e 0732     		add	r2, r2, #7	@ tmp143,
  71 0010 1278     		ldrb	r2, [r2]	@ IRQn.0, IRQn
  72 0012 111C     		mov	r1, r2	@ D.4764, IRQn.0
  73 0014 1F22     		mov	r2, #31	@ tmp144,
  74 0016 0A40     		and	r2, r1	@ D.4765, D.4764
  75 0018 0121     		mov	r1, #1	@ tmp145,
  76 001a 081C     		mov	r0, r1	@, tmp145
  77 001c 9040     		lsl	r0, r0, r2	@,, D.4765
  78 001e 021C     		mov	r2, r0	@ D.4766,
  79 0020 1A60     		str	r2, [r3]	@ D.4767, D.4762_1->ISER
 814:.\cmsis_core/core_cm0.h **** }
  80              		.loc 1 814 0
  81 0022 02B0     		add	sp, sp, #8	@,,
  82              		@ sp needed for prologue	@
  83 0024 7047     		bx	lr
  84              	.L3:
  85 0026 C046     		.align	2
  86              	.L2:
  87 0028 00E100E0 		.word	-536813312
  88              		.cfi_endproc
  89              	.LFE11:
  90              		.size	NVIC_EnableIRQ, .-NVIC_EnableIRQ
  91              		.section	.text.NVIC_SetPriority,"ax",%progbits
  92              		.align	2
  93              		.code	16
  94              		.thumb_func
  95              		.type	NVIC_SetPriority, %function
  96              	NVIC_SetPriority:
  97              	.LFB16:
 815:.\cmsis_core/core_cm0.h **** 
ARM GAS  C:\Users\Mariano\AppData\Local\Temp\ccAk74Yw.s 			page 17


 816:.\cmsis_core/core_cm0.h **** /**
 817:.\cmsis_core/core_cm0.h ****  * @brief  Disable the interrupt line for external interrupt specified
 818:.\cmsis_core/core_cm0.h ****  * 
 819:.\cmsis_core/core_cm0.h ****  * @param  IRQn   The positive number of the external interrupt to disable
 820:.\cmsis_core/core_cm0.h ****  * 
 821:.\cmsis_core/core_cm0.h ****  * Disable a device specific interupt in the NVIC interrupt controller.
 822:.\cmsis_core/core_cm0.h ****  * The interrupt number cannot be a negative value.
 823:.\cmsis_core/core_cm0.h ****  */
 824:.\cmsis_core/core_cm0.h **** static __INLINE void NVIC_DisableIRQ(IRQn_Type IRQn)
 825:.\cmsis_core/core_cm0.h **** {
 826:.\cmsis_core/core_cm0.h ****   NVIC->ICER[0] = (1 << ((uint32_t)(IRQn) & 0x1F)); /* disable interrupt */
 827:.\cmsis_core/core_cm0.h **** }
 828:.\cmsis_core/core_cm0.h **** 
 829:.\cmsis_core/core_cm0.h **** /**
 830:.\cmsis_core/core_cm0.h ****  * @brief  Read the interrupt pending bit for a device specific interrupt source
 831:.\cmsis_core/core_cm0.h ****  * 
 832:.\cmsis_core/core_cm0.h ****  * @param  IRQn    The number of the device specifc interrupt
 833:.\cmsis_core/core_cm0.h ****  * @return         1 = interrupt pending, 0 = interrupt not pending
 834:.\cmsis_core/core_cm0.h ****  *
 835:.\cmsis_core/core_cm0.h ****  * Read the pending register in NVIC and return 1 if its status is pending, 
 836:.\cmsis_core/core_cm0.h ****  * otherwise it returns 0
 837:.\cmsis_core/core_cm0.h ****  */
 838:.\cmsis_core/core_cm0.h **** static __INLINE uint32_t NVIC_GetPendingIRQ(IRQn_Type IRQn)
 839:.\cmsis_core/core_cm0.h **** {
 840:.\cmsis_core/core_cm0.h ****   return((uint32_t) ((NVIC->ISPR[0] & (1 << ((uint32_t)(IRQn) & 0x1F)))?1:0)); /* Return 1 if pendi
 841:.\cmsis_core/core_cm0.h **** }
 842:.\cmsis_core/core_cm0.h **** 
 843:.\cmsis_core/core_cm0.h **** /**
 844:.\cmsis_core/core_cm0.h ****  * @brief  Set the pending bit for an external interrupt
 845:.\cmsis_core/core_cm0.h ****  * 
 846:.\cmsis_core/core_cm0.h ****  * @param  IRQn    The number of the interrupt for set pending
 847:.\cmsis_core/core_cm0.h ****  *
 848:.\cmsis_core/core_cm0.h ****  * Set the pending bit for the specified interrupt.
 849:.\cmsis_core/core_cm0.h ****  * The interrupt number cannot be a negative value.
 850:.\cmsis_core/core_cm0.h ****  */
 851:.\cmsis_core/core_cm0.h **** static __INLINE void NVIC_SetPendingIRQ(IRQn_Type IRQn)
 852:.\cmsis_core/core_cm0.h **** {
 853:.\cmsis_core/core_cm0.h ****   NVIC->ISPR[0] = (1 << ((uint32_t)(IRQn) & 0x1F)); /* set interrupt pending */
 854:.\cmsis_core/core_cm0.h **** }
 855:.\cmsis_core/core_cm0.h **** 
 856:.\cmsis_core/core_cm0.h **** /**
 857:.\cmsis_core/core_cm0.h ****  * @brief  Clear the pending bit for an external interrupt
 858:.\cmsis_core/core_cm0.h ****  *
 859:.\cmsis_core/core_cm0.h ****  * @param  IRQn    The number of the interrupt for clear pending
 860:.\cmsis_core/core_cm0.h ****  *
 861:.\cmsis_core/core_cm0.h ****  * Clear the pending bit for the specified interrupt. 
 862:.\cmsis_core/core_cm0.h ****  * The interrupt number cannot be a negative value.
 863:.\cmsis_core/core_cm0.h ****  */
 864:.\cmsis_core/core_cm0.h **** static __INLINE void NVIC_ClearPendingIRQ(IRQn_Type IRQn)
 865:.\cmsis_core/core_cm0.h **** {
 866:.\cmsis_core/core_cm0.h ****   NVIC->ICPR[0] = (1 << ((uint32_t)(IRQn) & 0x1F)); /* Clear pending interrupt */
 867:.\cmsis_core/core_cm0.h **** }
 868:.\cmsis_core/core_cm0.h **** 
 869:.\cmsis_core/core_cm0.h **** /**
 870:.\cmsis_core/core_cm0.h ****  * @brief  Set the priority for an interrupt
 871:.\cmsis_core/core_cm0.h ****  *
 872:.\cmsis_core/core_cm0.h ****  * @param  IRQn      The number of the interrupt for set priority
ARM GAS  C:\Users\Mariano\AppData\Local\Temp\ccAk74Yw.s 			page 18


 873:.\cmsis_core/core_cm0.h ****  * @param  priority  The priority to set
 874:.\cmsis_core/core_cm0.h ****  *
 875:.\cmsis_core/core_cm0.h ****  * Set the priority for the specified interrupt. The interrupt 
 876:.\cmsis_core/core_cm0.h ****  * number can be positive to specify an external (device specific) 
 877:.\cmsis_core/core_cm0.h ****  * interrupt, or negative to specify an internal (core) interrupt.
 878:.\cmsis_core/core_cm0.h ****  *
 879:.\cmsis_core/core_cm0.h ****  * Note: The priority cannot be set for every core interrupt.
 880:.\cmsis_core/core_cm0.h ****  */
 881:.\cmsis_core/core_cm0.h **** /*
 882:.\cmsis_core/core_cm0.h **** static __INLINE void NVIC_SetPriority(IRQn_Type IRQn, uint32_t priority)
 883:.\cmsis_core/core_cm0.h **** {
 884:.\cmsis_core/core_cm0.h ****   if(IRQn < 0) {
 885:.\cmsis_core/core_cm0.h ****     SCB->SHP[_SHP_IDX(IRQn)] = (SCB->SHP[_SHP_IDX(IRQn)] & ~(0xFF << _BIT_SHIFT(IRQn))) | 
 886:.\cmsis_core/core_cm0.h ****         (((priority << (8 - __NVIC_PRIO_BITS)) & 0xFF) << _BIT_SHIFT(IRQn)); }
 887:.\cmsis_core/core_cm0.h ****   else {
 888:.\cmsis_core/core_cm0.h ****     NVIC->IPR[_IP_IDX(IRQn)] = (NVIC->IPR[_IP_IDX(IRQn)] & ~(0xFF << _BIT_SHIFT(IRQn))) |
 889:.\cmsis_core/core_cm0.h ****         (((priority << (8 - __NVIC_PRIO_BITS)) & 0xFF) << _BIT_SHIFT(IRQn)); }
 890:.\cmsis_core/core_cm0.h **** }
 891:.\cmsis_core/core_cm0.h **** */
 892:.\cmsis_core/core_cm0.h **** static __INLINE void NVIC_SetPriority(IRQn_Type IRQn, uint32_t priority)
 893:.\cmsis_core/core_cm0.h **** {
  98              		.loc 1 893 0
  99              		.cfi_startproc
 100 0000 30B5     		push	{r4, r5, lr}	@
 101              	.LCFI1:
 102              		.cfi_def_cfa_offset 12
 103              		.cfi_offset 4, -12
 104              		.cfi_offset 5, -8
 105              		.cfi_offset 14, -4
 106 0002 83B0     		sub	sp, sp, #12	@,,
 107              	.LCFI2:
 108              		.cfi_def_cfa_offset 24
 109 0004 021C     		mov	r2, r0	@ tmp190, IRQn
 110 0006 0091     		str	r1, [sp]	@ priority, priority
 111 0008 6B46     		mov	r3, sp	@ tmp191,
 112 000a 0733     		add	r3, r3, #7	@ tmp191,
 113 000c 1A70     		strb	r2, [r3]	@ tmp192, IRQn
 894:.\cmsis_core/core_cm0.h ****   if(IRQn < 0) {
 114              		.loc 1 894 0
 115 000e 6B46     		mov	r3, sp	@ tmp193,
 116 0010 0733     		add	r3, r3, #7	@ tmp193,
 117 0012 1B78     		ldrb	r3, [r3]	@ tmp194, IRQn
 118 0014 7F2B     		cmp	r3, #127	@ tmp194,
 119 0016 36D9     		bls	.L5	@,
 895:.\cmsis_core/core_cm0.h ****     SCB->SHP[_SHP_IDX(IRQn)] = (SCB->SHP[_SHP_IDX(IRQn)] & ~(0xFF << _BIT_SHIFT(IRQn))) |
 120              		.loc 1 895 0
 121 0018 3349     		ldr	r1, .L7	@ D.4770,
 122 001a 6B46     		mov	r3, sp	@ tmp195,
 123 001c 0733     		add	r3, r3, #7	@ tmp195,
 124 001e 1B78     		ldrb	r3, [r3]	@ IRQn.1, IRQn
 125 0020 1A1C     		mov	r2, r3	@ D.4772, IRQn.1
 126 0022 0F23     		mov	r3, #15	@ tmp196,
 127 0024 1340     		and	r3, r2	@ D.4773, D.4772
 128 0026 083B     		sub	r3, r3, #8	@ D.4774,
 129 0028 9808     		lsr	r0, r3, #2	@ D.4775, D.4774,
 130 002a 2F4A     		ldr	r2, .L7	@ D.4776,
 131 002c 6B46     		mov	r3, sp	@ tmp197,
ARM GAS  C:\Users\Mariano\AppData\Local\Temp\ccAk74Yw.s 			page 19


 132 002e 0733     		add	r3, r3, #7	@ tmp197,
 133 0030 1B78     		ldrb	r3, [r3]	@ IRQn.2, IRQn
 134 0032 1C1C     		mov	r4, r3	@ D.4778, IRQn.2
 135 0034 0F23     		mov	r3, #15	@ tmp198,
 136 0036 2340     		and	r3, r4	@ D.4779, D.4778
 137 0038 083B     		sub	r3, r3, #8	@ D.4780,
 138 003a 9B08     		lsr	r3, r3, #2	@ D.4781, D.4780,
 139 003c 0633     		add	r3, r3, #6	@ tmp199,
 140 003e 9B00     		lsl	r3, r3, #2	@ tmp200, tmp199,
 141 0040 D318     		add	r3, r2, r3	@ tmp201, D.4776, tmp200
 142 0042 5B68     		ldr	r3, [r3, #4]	@ D.4782, D.4776_8->SHP
 143 0044 6A46     		mov	r2, sp	@ tmp202,
 144 0046 0732     		add	r2, r2, #7	@ tmp202,
 145 0048 1278     		ldrb	r2, [r2]	@ IRQn.3, IRQn
 146 004a 141C     		mov	r4, r2	@ D.4784, IRQn.3
 147 004c 0322     		mov	r2, #3	@ tmp203,
 148 004e 2240     		and	r2, r4	@ D.4785, D.4784
 149 0050 D200     		lsl	r2, r2, #3	@ D.4786, D.4785,
 150 0052 FF24     		mov	r4, #255	@ tmp204,
 151 0054 251C     		mov	r5, r4	@, tmp204
 152 0056 9540     		lsl	r5, r5, r2	@,, D.4787
 153 0058 2A1C     		mov	r2, r5	@ D.4788,
 154 005a D243     		mvn	r2, r2	@ D.4789, D.4788
 155 005c 1A40     		and	r2, r3	@ D.4791, D.4782
 896:.\cmsis_core/core_cm0.h ****         (((priority << (8 - __NVIC_PRIO_BITS)) & 0xFF) << _BIT_SHIFT(IRQn)); }
 156              		.loc 1 896 0
 157 005e 009B     		ldr	r3, [sp]	@ tmp205, priority
 158 0060 9C01     		lsl	r4, r3, #6	@ D.4792, tmp205,
 159 0062 FF23     		mov	r3, #255	@ tmp206,
 160 0064 1C40     		and	r4, r3	@ D.4793, tmp206
 161 0066 6B46     		mov	r3, sp	@ tmp207,
 162 0068 0733     		add	r3, r3, #7	@ tmp207,
 163 006a 1B78     		ldrb	r3, [r3]	@ IRQn.4, IRQn
 164 006c 1D1C     		mov	r5, r3	@ D.4795, IRQn.4
 165 006e 0323     		mov	r3, #3	@ tmp208,
 166 0070 2B40     		and	r3, r5	@ D.4796, D.4795
 167 0072 DB00     		lsl	r3, r3, #3	@ D.4797, D.4796,
 168 0074 251C     		mov	r5, r4	@, D.4793
 169 0076 9D40     		lsl	r5, r5, r3	@,, D.4798
 170 0078 2B1C     		mov	r3, r5	@ D.4799,
 895:.\cmsis_core/core_cm0.h ****     SCB->SHP[_SHP_IDX(IRQn)] = (SCB->SHP[_SHP_IDX(IRQn)] & ~(0xFF << _BIT_SHIFT(IRQn))) |
 171              		.loc 1 895 0
 172 007a 1A43     		orr	r2, r3	@ D.4800, D.4799
 173 007c 831D     		add	r3, r0, #6	@ tmp209, D.4775,
 174 007e 9B00     		lsl	r3, r3, #2	@ tmp210, tmp209,
 175 0080 CB18     		add	r3, r1, r3	@ tmp211, D.4770, tmp210
 176 0082 5A60     		str	r2, [r3, #4]	@ D.4800, D.4770_2->SHP
 177 0084 2DE0     		b	.L4	@
 178              	.L5:
 897:.\cmsis_core/core_cm0.h ****   else {
 898:.\cmsis_core/core_cm0.h ****     NVIC->IP[_IP_IDX(IRQn)] = (NVIC->IP[_IP_IDX(IRQn)] & ~(0xFF << _BIT_SHIFT(IRQn))) |
 179              		.loc 1 898 0
 180 0086 194B     		ldr	r3, .L7+4	@ D.4802,
 181 0088 6A46     		mov	r2, sp	@ tmp212,
 182 008a 0732     		add	r2, r2, #7	@ tmp212,
 183 008c 1278     		ldrb	r2, [r2]	@ D.4803, IRQn
 184 008e 52B2     		sxtb	r2, r2	@ D.4803, D.4803
ARM GAS  C:\Users\Mariano\AppData\Local\Temp\ccAk74Yw.s 			page 20


 185 0090 9208     		lsr	r2, r2, #2	@ D.4804, D.4803,
 186 0092 1649     		ldr	r1, .L7+4	@ D.4805,
 187 0094 6846     		mov	r0, sp	@ tmp213,
 188 0096 0730     		add	r0, r0, #7	@ tmp213,
 189 0098 0078     		ldrb	r0, [r0]	@ D.4806, IRQn
 190 009a 40B2     		sxtb	r0, r0	@ D.4806, D.4806
 191 009c 8008     		lsr	r0, r0, #2	@ D.4807, D.4806,
 192 009e C030     		add	r0, r0, #192	@ tmp214,
 193 00a0 8000     		lsl	r0, r0, #2	@ tmp215, tmp214,
 194 00a2 4158     		ldr	r1, [r0, r1]	@ D.4808, D.4805_37->IP
 195 00a4 6846     		mov	r0, sp	@ tmp216,
 196 00a6 0730     		add	r0, r0, #7	@ tmp216,
 197 00a8 0078     		ldrb	r0, [r0]	@ IRQn.5, IRQn
 198 00aa 041C     		mov	r4, r0	@ D.4810, IRQn.5
 199 00ac 0320     		mov	r0, #3	@ tmp217,
 200 00ae 2040     		and	r0, r4	@ D.4811, D.4810
 201 00b0 C000     		lsl	r0, r0, #3	@ D.4812, D.4811,
 202 00b2 FF24     		mov	r4, #255	@ tmp218,
 203 00b4 251C     		mov	r5, r4	@, tmp218
 204 00b6 8540     		lsl	r5, r5, r0	@,, D.4813
 205 00b8 281C     		mov	r0, r5	@ D.4814,
 206 00ba C043     		mvn	r0, r0	@ D.4815, D.4814
 207 00bc 0840     		and	r0, r1	@ D.4817, D.4808
 899:.\cmsis_core/core_cm0.h ****         (((priority << (8 - __NVIC_PRIO_BITS)) & 0xFF) << _BIT_SHIFT(IRQn)); }
 208              		.loc 1 899 0
 209 00be 0099     		ldr	r1, [sp]	@ tmp219, priority
 210 00c0 8C01     		lsl	r4, r1, #6	@ D.4818, tmp219,
 211 00c2 FF21     		mov	r1, #255	@ tmp220,
 212 00c4 0C40     		and	r4, r1	@ D.4819, tmp220
 213 00c6 6946     		mov	r1, sp	@ tmp221,
 214 00c8 0731     		add	r1, r1, #7	@ tmp221,
 215 00ca 0978     		ldrb	r1, [r1]	@ IRQn.6, IRQn
 216 00cc 0D1C     		mov	r5, r1	@ D.4821, IRQn.6
 217 00ce 0321     		mov	r1, #3	@ tmp222,
 218 00d0 2940     		and	r1, r5	@ D.4822, D.4821
 219 00d2 C900     		lsl	r1, r1, #3	@ D.4823, D.4822,
 220 00d4 251C     		mov	r5, r4	@, D.4819
 221 00d6 8D40     		lsl	r5, r5, r1	@,, D.4824
 222 00d8 291C     		mov	r1, r5	@ D.4825,
 898:.\cmsis_core/core_cm0.h ****     NVIC->IP[_IP_IDX(IRQn)] = (NVIC->IP[_IP_IDX(IRQn)] & ~(0xFF << _BIT_SHIFT(IRQn))) |
 223              		.loc 1 898 0
 224 00da 0143     		orr	r1, r0	@ D.4826, D.4817
 225 00dc C032     		add	r2, r2, #192	@ tmp223,
 226 00de 9200     		lsl	r2, r2, #2	@ tmp224, tmp223,
 227 00e0 D150     		str	r1, [r2, r3]	@ D.4826, D.4802_34->IP
 228              	.L4:
 900:.\cmsis_core/core_cm0.h **** }
 229              		.loc 1 900 0
 230 00e2 03B0     		add	sp, sp, #12	@,,
 231              		@ sp needed for prologue	@
 232 00e4 30BD     		pop	{r4, r5, pc}
 233              	.L8:
 234 00e6 C046     		.align	2
 235              	.L7:
 236 00e8 00ED00E0 		.word	-536810240
 237 00ec 00E100E0 		.word	-536813312
 238              		.cfi_endproc
ARM GAS  C:\Users\Mariano\AppData\Local\Temp\ccAk74Yw.s 			page 21


 239              	.LFE16:
 240              		.size	NVIC_SetPriority, .-NVIC_SetPriority
 241              		.section	.text.GPIO_Config,"ax",%progbits
 242              		.align	2
 243              		.global	GPIO_Config
 244              		.code	16
 245              		.thumb_func
 246              		.type	GPIO_Config, %function
 247              	GPIO_Config:
 248              	.LFB20:
 249              		.file 2 ".\\src\\stm32f0x_gpio.c"
   1:.\src/stm32f0x_gpio.c **** /**
   2:.\src/stm32f0x_gpio.c ****   ******************************************************************************
   3:.\src/stm32f0x_gpio.c ****   * @file    Template_2/stm32f0_gpio.c
   4:.\src/stm32f0x_gpio.c ****   * @author  Nahuel
   5:.\src/stm32f0x_gpio.c ****   * @version V1.0
   6:.\src/stm32f0x_gpio.c ****   * @date    22-August-2014
   7:.\src/stm32f0x_gpio.c ****   * @brief   GPIO functions.
   8:.\src/stm32f0x_gpio.c ****   ******************************************************************************
   9:.\src/stm32f0x_gpio.c ****   * @attention
  10:.\src/stm32f0x_gpio.c ****   *
  11:.\src/stm32f0x_gpio.c ****   * Use this functions to configure global inputs/outputs.
  12:.\src/stm32f0x_gpio.c ****   *
  13:.\src/stm32f0x_gpio.c ****   ******************************************************************************
  14:.\src/stm32f0x_gpio.c ****   */
  15:.\src/stm32f0x_gpio.c **** 
  16:.\src/stm32f0x_gpio.c **** /* Includes ------------------------------------------------------------------*/
  17:.\src/stm32f0x_gpio.c **** #include "stm32f0x_gpio.h"
  18:.\src/stm32f0x_gpio.c **** #include "stm32f0xx_gpio.h"
  19:.\src/stm32f0x_gpio.c **** #include "stm32f0xx_misc.h"
  20:.\src/stm32f0x_gpio.c **** #include "stm32f0xx_exti.h"
  21:.\src/stm32f0x_gpio.c **** 
  22:.\src/stm32f0x_gpio.c **** #include "hard.h"
  23:.\src/stm32f0x_gpio.c **** 
  24:.\src/stm32f0x_gpio.c **** 
  25:.\src/stm32f0x_gpio.c **** 
  26:.\src/stm32f0x_gpio.c **** //--- Private typedef ---//
  27:.\src/stm32f0x_gpio.c **** //--- Private define ---//
  28:.\src/stm32f0x_gpio.c **** //--- Private macro ---//
  29:.\src/stm32f0x_gpio.c **** //--- Private variables ---//
  30:.\src/stm32f0x_gpio.c **** //--- Private function prototypes ---//
  31:.\src/stm32f0x_gpio.c **** //--- Private functions ---//
  32:.\src/stm32f0x_gpio.c **** 
  33:.\src/stm32f0x_gpio.c **** //-------------------------------------------//
  34:.\src/stm32f0x_gpio.c **** // @brief  GPIO configure.
  35:.\src/stm32f0x_gpio.c **** // @param  None
  36:.\src/stm32f0x_gpio.c **** // @retval None
  37:.\src/stm32f0x_gpio.c **** //------------------------------------------//
  38:.\src/stm32f0x_gpio.c **** void GPIO_Config (void)
  39:.\src/stm32f0x_gpio.c **** {
 250              		.loc 2 39 0
 251              		.cfi_startproc
 252 0000 00B5     		push	{lr}	@
 253              	.LCFI3:
 254              		.cfi_def_cfa_offset 4
 255              		.cfi_offset 14, -4
 256 0002 85B0     		sub	sp, sp, #20	@,,
ARM GAS  C:\Users\Mariano\AppData\Local\Temp\ccAk74Yw.s 			page 22


 257              	.LCFI4:
 258              		.cfi_def_cfa_offset 24
  40:.\src/stm32f0x_gpio.c **** 	unsigned long temp;
  41:.\src/stm32f0x_gpio.c **** 	EXTI_InitTypeDef EXTI_InitStructure;
  42:.\src/stm32f0x_gpio.c **** //	NVIC_InitTypeDef NVIC_InitStructure;
  43:.\src/stm32f0x_gpio.c **** 
  44:.\src/stm32f0x_gpio.c **** 
  45:.\src/stm32f0x_gpio.c **** 	//--- MODER ---//
  46:.\src/stm32f0x_gpio.c **** 	//00: Input mode (reset state)
  47:.\src/stm32f0x_gpio.c **** 	//01: General purpose output mode
  48:.\src/stm32f0x_gpio.c **** 	//10: Alternate function mode
  49:.\src/stm32f0x_gpio.c **** 	//11: Analog mode
  50:.\src/stm32f0x_gpio.c **** 
  51:.\src/stm32f0x_gpio.c **** 	//--- OTYPER ---//
  52:.\src/stm32f0x_gpio.c **** 	//These bits are written by software to configure the I/O output type.
  53:.\src/stm32f0x_gpio.c **** 	//0: Output push-pull (reset state)
  54:.\src/stm32f0x_gpio.c **** 	//1: Output open-drain
  55:.\src/stm32f0x_gpio.c **** 
  56:.\src/stm32f0x_gpio.c **** 	//--- ORSPEEDR ---//
  57:.\src/stm32f0x_gpio.c **** 	//These bits are written by software to configure the I/O output speed.
  58:.\src/stm32f0x_gpio.c **** 	//x0: Low speed.
  59:.\src/stm32f0x_gpio.c **** 	//01: Medium speed.
  60:.\src/stm32f0x_gpio.c **** 	//11: High speed.
  61:.\src/stm32f0x_gpio.c **** 	//Note: Refer to the device datasheet for the frequency.
  62:.\src/stm32f0x_gpio.c **** 
  63:.\src/stm32f0x_gpio.c **** 	//--- PUPDR ---//
  64:.\src/stm32f0x_gpio.c **** 	//These bits are written by software to configure the I/O pull-up or pull-down
  65:.\src/stm32f0x_gpio.c **** 	//00: No pull-up, pull-down
  66:.\src/stm32f0x_gpio.c **** 	//01: Pull-up
  67:.\src/stm32f0x_gpio.c **** 	//10: Pull-down
  68:.\src/stm32f0x_gpio.c **** 	//11: Reserved
  69:.\src/stm32f0x_gpio.c **** 
  70:.\src/stm32f0x_gpio.c **** 
  71:.\src/stm32f0x_gpio.c **** #ifdef GPIOA_ENABLE
  72:.\src/stm32f0x_gpio.c **** 
  73:.\src/stm32f0x_gpio.c **** 	//--- GPIO A ---//
  74:.\src/stm32f0x_gpio.c **** 	if (!GPIOA_CLK)
 259              		.loc 2 74 0
 260 0004 524B     		ldr	r3, .L12	@ D.4724,
 261 0006 5A69     		ldr	r2, [r3, #20]	@ D.4725, D.4724_1->AHBENR
 262 0008 8023     		mov	r3, #128	@ tmp257,
 263 000a 9B02     		lsl	r3, r3, #10	@ tmp168, tmp257,
 264 000c 1340     		and	r3, r2	@ D.4726, D.4725
 265 000e 06D1     		bne	.L10	@,
  75:.\src/stm32f0x_gpio.c **** 		GPIOA_CLK_ON;
 266              		.loc 2 75 0
 267 0010 4F4B     		ldr	r3, .L12	@ D.4729,
 268 0012 4F4A     		ldr	r2, .L12	@ D.4730,
 269 0014 5269     		ldr	r2, [r2, #20]	@ D.4731, D.4730_5->AHBENR
 270 0016 8021     		mov	r1, #128	@ tmp256,
 271 0018 8902     		lsl	r1, r1, #10	@ tmp169, tmp256,
 272 001a 0A43     		orr	r2, r1	@ D.4732, tmp169
 273 001c 5A61     		str	r2, [r3, #20]	@ D.4732, D.4729_4->AHBENR
 274              	.L10:
  76:.\src/stm32f0x_gpio.c **** 
  77:.\src/stm32f0x_gpio.c **** #ifdef VER_1_0
  78:.\src/stm32f0x_gpio.c **** 	temp = GPIOA->MODER;	//2 bits por pin
ARM GAS  C:\Users\Mariano\AppData\Local\Temp\ccAk74Yw.s 			page 23


 275              		.loc 2 78 0
 276 001e 9023     		mov	r3, #144	@ tmp245,
 277 0020 DB05     		lsl	r3, r3, #23	@ D.4733, tmp245,
 278 0022 1B68     		ldr	r3, [r3]	@ tmp170, D.4733_8->MODER
 279 0024 0393     		str	r3, [sp, #12]	@ tmp170, temp
  79:.\src/stm32f0x_gpio.c **** 	temp &= 0x3C000000;		//PA0 - PA5 out push_pull; PA6 alternate function; PA7 out push pull;
 280              		.loc 2 79 0
 281 0026 039A     		ldr	r2, [sp, #12]	@ tmp172, temp
 282 0028 F023     		mov	r3, #240	@ tmp246,
 283 002a 9B05     		lsl	r3, r3, #22	@ tmp173, tmp246,
 284 002c 1340     		and	r3, r2	@ tmp171, tmp172
 285 002e 0393     		str	r3, [sp, #12]	@ tmp171, temp
  80:.\src/stm32f0x_gpio.c **** 	temp |= 0x01686555;		//PA8 input; PA9 PA10 alternativa; PA11 PA12 out push_pull; PA15 input
 286              		.loc 2 80 0
 287 0030 039B     		ldr	r3, [sp, #12]	@ tmp175, temp
 288 0032 484A     		ldr	r2, .L12+4	@ tmp176,
 289 0034 1343     		orr	r3, r2	@ tmp174, tmp176
 290 0036 0393     		str	r3, [sp, #12]	@ tmp174, temp
  81:.\src/stm32f0x_gpio.c **** 	GPIOA->MODER = temp;
 291              		.loc 2 81 0
 292 0038 9023     		mov	r3, #144	@ tmp247,
 293 003a DB05     		lsl	r3, r3, #23	@ D.4734, tmp247,
 294 003c 039A     		ldr	r2, [sp, #12]	@ tmp177, temp
 295 003e 1A60     		str	r2, [r3]	@ tmp177, D.4734_12->MODER
  82:.\src/stm32f0x_gpio.c **** 
  83:.\src/stm32f0x_gpio.c **** 	temp = GPIOA->OTYPER;	//1 bit por pin
 296              		.loc 2 83 0
 297 0040 9023     		mov	r3, #144	@ tmp248,
 298 0042 DB05     		lsl	r3, r3, #23	@ D.4735, tmp248,
 299 0044 9B88     		ldrh	r3, [r3, #4]	@ tmp178,
 300 0046 9BB2     		uxth	r3, r3	@ D.4736, tmp178
 301 0048 0393     		str	r3, [sp, #12]	@ D.4736, temp
  84:.\src/stm32f0x_gpio.c **** 	temp &= 0xFFFFE700;
 302              		.loc 2 84 0
 303 004a 039A     		ldr	r2, [sp, #12]	@ tmp180, temp
 304 004c 424B     		ldr	r3, .L12+8	@ tmp181,
 305 004e 1340     		and	r3, r2	@ tmp179, tmp180
 306 0050 0393     		str	r3, [sp, #12]	@ tmp179, temp
  85:.\src/stm32f0x_gpio.c **** 	temp |= 0x00000000;		//PA0 a PA7 push pull; PA11 PA12 push pull
  86:.\src/stm32f0x_gpio.c **** 	GPIOA->OTYPER = temp;
 307              		.loc 2 86 0
 308 0052 9023     		mov	r3, #144	@ tmp249,
 309 0054 DB05     		lsl	r3, r3, #23	@ D.4737, tmp249,
 310 0056 039A     		ldr	r2, [sp, #12]	@ tmp183, temp
 311 0058 92B2     		uxth	r2, r2	@ D.4738, tmp182
 312 005a 9A80     		strh	r2, [r3, #4]	@ tmp184, D.4737_18->OTYPER
  87:.\src/stm32f0x_gpio.c **** 
  88:.\src/stm32f0x_gpio.c **** 	temp = GPIOA->OSPEEDR;	//2 bits por pin
 313              		.loc 2 88 0
 314 005c 9023     		mov	r3, #144	@ tmp250,
 315 005e DB05     		lsl	r3, r3, #23	@ D.4739, tmp250,
 316 0060 9B68     		ldr	r3, [r3, #8]	@ tmp185, D.4739_20->OSPEEDR
 317 0062 0393     		str	r3, [sp, #12]	@ tmp185, temp
  89:.\src/stm32f0x_gpio.c **** 	temp &= 0xFC3F0000;
 318              		.loc 2 89 0
 319 0064 039A     		ldr	r2, [sp, #12]	@ tmp187, temp
 320 0066 3D4B     		ldr	r3, .L12+12	@ tmp188,
ARM GAS  C:\Users\Mariano\AppData\Local\Temp\ccAk74Yw.s 			page 24


 321 0068 1340     		and	r3, r2	@ tmp186, tmp187
 322 006a 0393     		str	r3, [sp, #12]	@ tmp186, temp
  90:.\src/stm32f0x_gpio.c **** 	temp |= 0x00000000;		//low speed
  91:.\src/stm32f0x_gpio.c **** 	GPIOA->OSPEEDR = temp;
 323              		.loc 2 91 0
 324 006c 9023     		mov	r3, #144	@ tmp251,
 325 006e DB05     		lsl	r3, r3, #23	@ D.4740, tmp251,
 326 0070 039A     		ldr	r2, [sp, #12]	@ tmp189, temp
 327 0072 9A60     		str	r2, [r3, #8]	@ tmp189, D.4740_24->OSPEEDR
  92:.\src/stm32f0x_gpio.c **** 
  93:.\src/stm32f0x_gpio.c **** 	temp = GPIOA->PUPDR;	//2 bits por pin
 328              		.loc 2 93 0
 329 0074 9023     		mov	r3, #144	@ tmp252,
 330 0076 DB05     		lsl	r3, r3, #23	@ D.4741, tmp252,
 331 0078 DB68     		ldr	r3, [r3, #12]	@ tmp190, D.4741_25->PUPDR
 332 007a 0393     		str	r3, [sp, #12]	@ tmp190, temp
  94:.\src/stm32f0x_gpio.c **** 	temp &= 0x3FFFFFFF;
 333              		.loc 2 94 0
 334 007c 039B     		ldr	r3, [sp, #12]	@ tmp192, temp
 335 007e 9B00     		lsl	r3, r3, #2	@ tmp193, tmp192,
 336 0080 9B08     		lsr	r3, r3, #2	@ tmp191, tmp193,
 337 0082 0393     		str	r3, [sp, #12]	@ tmp191, temp
  95:.\src/stm32f0x_gpio.c **** 	temp |= 0x40000000;		//PA15 con pullup
 338              		.loc 2 95 0
 339 0084 039B     		ldr	r3, [sp, #12]	@ tmp195, temp
 340 0086 8022     		mov	r2, #128	@ tmp253,
 341 0088 D205     		lsl	r2, r2, #23	@ tmp196, tmp253,
 342 008a 1343     		orr	r3, r2	@ tmp194, tmp196
 343 008c 0393     		str	r3, [sp, #12]	@ tmp194, temp
  96:.\src/stm32f0x_gpio.c **** 	GPIOA->PUPDR = temp;
 344              		.loc 2 96 0
 345 008e 9023     		mov	r3, #144	@ tmp254,
 346 0090 DB05     		lsl	r3, r3, #23	@ D.4742, tmp254,
 347 0092 039A     		ldr	r2, [sp, #12]	@ tmp197, temp
 348 0094 DA60     		str	r2, [r3, #12]	@ tmp197, D.4742_29->PUPDR
  97:.\src/stm32f0x_gpio.c **** #endif
  98:.\src/stm32f0x_gpio.c **** 
  99:.\src/stm32f0x_gpio.c **** 
 100:.\src/stm32f0x_gpio.c **** 	//Alternate Fuction
 101:.\src/stm32f0x_gpio.c **** 	//GPIOA->AFR[0] = 0x11000000;	//PA7 -> AF1; PA6 -> AF1
 102:.\src/stm32f0x_gpio.c **** 
 103:.\src/stm32f0x_gpio.c **** 
 104:.\src/stm32f0x_gpio.c **** #endif
 105:.\src/stm32f0x_gpio.c **** 
 106:.\src/stm32f0x_gpio.c **** #ifdef GPIOB_ENABLE
 107:.\src/stm32f0x_gpio.c **** 
 108:.\src/stm32f0x_gpio.c **** 	//--- GPIO B ---//
 109:.\src/stm32f0x_gpio.c **** 	if (!GPIOB_CLK)
 349              		.loc 2 109 0
 350 0096 2E4B     		ldr	r3, .L12	@ D.4743,
 351 0098 5A69     		ldr	r2, [r3, #20]	@ D.4744, D.4743_30->AHBENR
 352 009a 8023     		mov	r3, #128	@ tmp255,
 353 009c DB02     		lsl	r3, r3, #11	@ tmp198, tmp255,
 354 009e 1340     		and	r3, r2	@ D.4745, D.4744
 355 00a0 06D1     		bne	.L11	@,
 110:.\src/stm32f0x_gpio.c **** 		GPIOB_CLK_ON;
 356              		.loc 2 110 0
ARM GAS  C:\Users\Mariano\AppData\Local\Temp\ccAk74Yw.s 			page 25


 357 00a2 2B4B     		ldr	r3, .L12	@ D.4748,
 358 00a4 2A4A     		ldr	r2, .L12	@ D.4749,
 359 00a6 5269     		ldr	r2, [r2, #20]	@ D.4750, D.4749_34->AHBENR
 360 00a8 8021     		mov	r1, #128	@ tmp244,
 361 00aa C902     		lsl	r1, r1, #11	@ tmp199, tmp244,
 362 00ac 0A43     		orr	r2, r1	@ D.4751, tmp199
 363 00ae 5A61     		str	r2, [r3, #20]	@ D.4751, D.4748_33->AHBENR
 364              	.L11:
 111:.\src/stm32f0x_gpio.c **** 
 112:.\src/stm32f0x_gpio.c **** 	temp = GPIOB->MODER;	//2 bits por pin
 365              		.loc 2 112 0
 366 00b0 2B4B     		ldr	r3, .L12+16	@ D.4752,
 367 00b2 1B68     		ldr	r3, [r3]	@ tmp200, D.4752_37->MODER
 368 00b4 0393     		str	r3, [sp, #12]	@ tmp200, temp
 113:.\src/stm32f0x_gpio.c **** 	temp &= 0xFFFF0F30;		//PB0 analog input; PB1 PB3 input PB6 PB7 output
 369              		.loc 2 113 0
 370 00b6 039A     		ldr	r2, [sp, #12]	@ tmp202, temp
 371 00b8 2A4B     		ldr	r3, .L12+20	@ tmp203,
 372 00ba 1340     		and	r3, r2	@ tmp201, tmp202
 373 00bc 0393     		str	r3, [sp, #12]	@ tmp201, temp
 114:.\src/stm32f0x_gpio.c **** 	temp |= 0x00005003;
 374              		.loc 2 114 0
 375 00be 039B     		ldr	r3, [sp, #12]	@ tmp205, temp
 376 00c0 294A     		ldr	r2, .L12+24	@ tmp206,
 377 00c2 1343     		orr	r3, r2	@ tmp204, tmp206
 378 00c4 0393     		str	r3, [sp, #12]	@ tmp204, temp
 115:.\src/stm32f0x_gpio.c **** 	GPIOB->MODER = temp;
 379              		.loc 2 115 0
 380 00c6 264B     		ldr	r3, .L12+16	@ D.4753,
 381 00c8 039A     		ldr	r2, [sp, #12]	@ tmp207, temp
 382 00ca 1A60     		str	r2, [r3]	@ tmp207, D.4753_41->MODER
 116:.\src/stm32f0x_gpio.c **** 
 117:.\src/stm32f0x_gpio.c **** 	temp = GPIOB->OTYPER;	//1 bit por pin
 383              		.loc 2 117 0
 384 00cc 244B     		ldr	r3, .L12+16	@ D.4754,
 385 00ce 9B88     		ldrh	r3, [r3, #4]	@ tmp208,
 386 00d0 9BB2     		uxth	r3, r3	@ D.4755, tmp208
 387 00d2 0393     		str	r3, [sp, #12]	@ D.4755, temp
 118:.\src/stm32f0x_gpio.c **** 	temp &= 0xFFFFFF3F;
 388              		.loc 2 118 0
 389 00d4 039B     		ldr	r3, [sp, #12]	@ tmp210, temp
 390 00d6 C022     		mov	r2, #192	@ tmp211,
 391 00d8 9343     		bic	r3, r2	@ tmp209, tmp211
 392 00da 0393     		str	r3, [sp, #12]	@ tmp209, temp
 119:.\src/stm32f0x_gpio.c **** 	temp |= 0x00000040;		//PB6 open drain PB7 push pull
 393              		.loc 2 119 0
 394 00dc 039B     		ldr	r3, [sp, #12]	@ tmp213, temp
 395 00de 4022     		mov	r2, #64	@ tmp214,
 396 00e0 1343     		orr	r3, r2	@ tmp212, tmp214
 397 00e2 0393     		str	r3, [sp, #12]	@ tmp212, temp
 120:.\src/stm32f0x_gpio.c **** 	GPIOB->OTYPER = temp;
 398              		.loc 2 120 0
 399 00e4 1E4B     		ldr	r3, .L12+16	@ D.4756,
 400 00e6 039A     		ldr	r2, [sp, #12]	@ tmp216, temp
 401 00e8 92B2     		uxth	r2, r2	@ D.4757, tmp215
 402 00ea 9A80     		strh	r2, [r3, #4]	@ tmp217, D.4756_47->OTYPER
 121:.\src/stm32f0x_gpio.c **** 
ARM GAS  C:\Users\Mariano\AppData\Local\Temp\ccAk74Yw.s 			page 26


 122:.\src/stm32f0x_gpio.c **** 	temp = GPIOB->OSPEEDR;	//2 bits por pin
 403              		.loc 2 122 0
 404 00ec 1C4B     		ldr	r3, .L12+16	@ D.4758,
 405 00ee 9B68     		ldr	r3, [r3, #8]	@ tmp218, D.4758_49->OSPEEDR
 406 00f0 0393     		str	r3, [sp, #12]	@ tmp218, temp
 123:.\src/stm32f0x_gpio.c **** 	temp &= 0xFFFF0FFF;
 407              		.loc 2 123 0
 408 00f2 039A     		ldr	r2, [sp, #12]	@ tmp220, temp
 409 00f4 1D4B     		ldr	r3, .L12+28	@ tmp221,
 410 00f6 1340     		and	r3, r2	@ tmp219, tmp220
 411 00f8 0393     		str	r3, [sp, #12]	@ tmp219, temp
 124:.\src/stm32f0x_gpio.c **** 	temp |= 0x00000000;		//low speed
 125:.\src/stm32f0x_gpio.c **** 	GPIOB->OSPEEDR = temp;
 412              		.loc 2 125 0
 413 00fa 194B     		ldr	r3, .L12+16	@ D.4759,
 414 00fc 039A     		ldr	r2, [sp, #12]	@ tmp222, temp
 415 00fe 9A60     		str	r2, [r3, #8]	@ tmp222, D.4759_53->OSPEEDR
 126:.\src/stm32f0x_gpio.c **** 
 127:.\src/stm32f0x_gpio.c **** 	temp = GPIOB->PUPDR;	//2 bits por pin
 416              		.loc 2 127 0
 417 0100 174B     		ldr	r3, .L12+16	@ D.4760,
 418 0102 DB68     		ldr	r3, [r3, #12]	@ tmp223, D.4760_54->PUPDR
 419 0104 0393     		str	r3, [sp, #12]	@ tmp223, temp
 128:.\src/stm32f0x_gpio.c **** 	temp &= 0xFFFFFF33;		//PB1 PB3 pull up
 420              		.loc 2 128 0
 421 0106 039B     		ldr	r3, [sp, #12]	@ tmp225, temp
 422 0108 CC22     		mov	r2, #204	@ tmp226,
 423 010a 9343     		bic	r3, r2	@ tmp224, tmp226
 424 010c 0393     		str	r3, [sp, #12]	@ tmp224, temp
 129:.\src/stm32f0x_gpio.c **** 	temp |= 0x00000044;
 425              		.loc 2 129 0
 426 010e 039B     		ldr	r3, [sp, #12]	@ tmp228, temp
 427 0110 4422     		mov	r2, #68	@ tmp229,
 428 0112 1343     		orr	r3, r2	@ tmp227, tmp229
 429 0114 0393     		str	r3, [sp, #12]	@ tmp227, temp
 130:.\src/stm32f0x_gpio.c **** 	GPIOB->PUPDR = temp;
 430              		.loc 2 130 0
 431 0116 124B     		ldr	r3, .L12+16	@ D.4761,
 432 0118 039A     		ldr	r2, [sp, #12]	@ tmp230, temp
 433 011a DA60     		str	r2, [r3, #12]	@ tmp230, D.4761_58->PUPDR
 131:.\src/stm32f0x_gpio.c **** 
 132:.\src/stm32f0x_gpio.c **** 	//Alternate Fuction
 133:.\src/stm32f0x_gpio.c **** 	//GPIOB->AFR[0] = 0x11000000;	//PA7 -> AF1; PA6 -> AF1
 134:.\src/stm32f0x_gpio.c **** 
 135:.\src/stm32f0x_gpio.c **** #endif
 136:.\src/stm32f0x_gpio.c **** 
 137:.\src/stm32f0x_gpio.c **** #ifdef GPIOF_ENABLE
 138:.\src/stm32f0x_gpio.c **** 
 139:.\src/stm32f0x_gpio.c **** 	//--- GPIO F ---//
 140:.\src/stm32f0x_gpio.c **** 	if (!GPIOF_CLK)
 141:.\src/stm32f0x_gpio.c **** 		GPIOF_CLK_ON;
 142:.\src/stm32f0x_gpio.c **** 
 143:.\src/stm32f0x_gpio.c **** 	temp = GPIOF->MODER;
 144:.\src/stm32f0x_gpio.c **** 	temp &= 0xFFFFFFFF;
 145:.\src/stm32f0x_gpio.c **** 	temp |= 0x00000000;
 146:.\src/stm32f0x_gpio.c **** 	GPIOF->MODER = temp;
 147:.\src/stm32f0x_gpio.c **** 
ARM GAS  C:\Users\Mariano\AppData\Local\Temp\ccAk74Yw.s 			page 27


 148:.\src/stm32f0x_gpio.c **** 	temp = GPIOF->OTYPER;
 149:.\src/stm32f0x_gpio.c **** 	temp &= 0xFFFFFFFF;
 150:.\src/stm32f0x_gpio.c **** 	temp |= 0x00000000;
 151:.\src/stm32f0x_gpio.c **** 	GPIOF->OTYPER = temp;
 152:.\src/stm32f0x_gpio.c **** 
 153:.\src/stm32f0x_gpio.c **** 	temp = GPIOF->OSPEEDR;
 154:.\src/stm32f0x_gpio.c **** 	temp &= 0xFFFFFFFF;
 155:.\src/stm32f0x_gpio.c **** 	temp |= 0x00000000;
 156:.\src/stm32f0x_gpio.c **** 	GPIOF->OSPEEDR = temp;
 157:.\src/stm32f0x_gpio.c **** 
 158:.\src/stm32f0x_gpio.c **** 	temp = GPIOF->PUPDR;
 159:.\src/stm32f0x_gpio.c **** 	temp &= 0xFFFFFFFF;
 160:.\src/stm32f0x_gpio.c **** 	temp |= 0x00000000;
 161:.\src/stm32f0x_gpio.c **** 	GPIOF->PUPDR = temp;
 162:.\src/stm32f0x_gpio.c **** 
 163:.\src/stm32f0x_gpio.c **** #endif
 164:.\src/stm32f0x_gpio.c **** 
 165:.\src/stm32f0x_gpio.c **** 
 166:.\src/stm32f0x_gpio.c **** 	//EXTI_InitStructure.EXTI_Line = EXTI_Line0;
 167:.\src/stm32f0x_gpio.c **** 	//EXTI_InitStructure.EXTI_Mode = EXTI_Mode_Interrupt;
 168:.\src/stm32f0x_gpio.c **** 	//EXTI_InitStructure.EXTI_Trigger = EXTI_Trigger_Rising_Falling;
 169:.\src/stm32f0x_gpio.c **** 	//EXTI_InitStructure.EXTI_LineCmd = ENABLE;
 170:.\src/stm32f0x_gpio.c **** 	//EXTI_Init(&EXTI_InitStructure);
 171:.\src/stm32f0x_gpio.c **** 	EXTI_InitStructure.EXTI_Line = EXTI_Line8;
 434              		.loc 2 171 0
 435 011c 01AB     		add	r3, sp, #4	@ tmp231,,
 436 011e 8022     		mov	r2, #128	@ tmp243,
 437 0120 5200     		lsl	r2, r2, #1	@ tmp232, tmp243,
 438 0122 1A60     		str	r2, [r3]	@ tmp232, EXTI_InitStructure.EXTI_Line
 172:.\src/stm32f0x_gpio.c **** 	EXTI_InitStructure.EXTI_Mode = EXTI_Mode_Interrupt;
 439              		.loc 2 172 0
 440 0124 01AB     		add	r3, sp, #4	@ tmp233,,
 441 0126 0022     		mov	r2, #0	@ tmp234,
 442 0128 1A71     		strb	r2, [r3, #4]	@ tmp235, EXTI_InitStructure.EXTI_Mode
 173:.\src/stm32f0x_gpio.c **** 	EXTI_InitStructure.EXTI_Trigger = EXTI_Trigger_Rising_Falling;
 443              		.loc 2 173 0
 444 012a 01AB     		add	r3, sp, #4	@ tmp236,,
 445 012c 1022     		mov	r2, #16	@ tmp237,
 446 012e 5A71     		strb	r2, [r3, #5]	@ tmp238, EXTI_InitStructure.EXTI_Trigger
 174:.\src/stm32f0x_gpio.c **** 	EXTI_InitStructure.EXTI_LineCmd = ENABLE;
 447              		.loc 2 174 0
 448 0130 01AB     		add	r3, sp, #4	@ tmp239,,
 449 0132 0122     		mov	r2, #1	@ tmp240,
 450 0134 9A71     		strb	r2, [r3, #6]	@ tmp241, EXTI_InitStructure.EXTI_LineCmd
 175:.\src/stm32f0x_gpio.c **** 	EXTI_Init(&EXTI_InitStructure);
 451              		.loc 2 175 0
 452 0136 01AB     		add	r3, sp, #4	@ tmp242,,
 453 0138 181C     		mov	r0, r3	@, tmp242
 454 013a FFF7FEFF 		bl	EXTI_Init	@
 176:.\src/stm32f0x_gpio.c **** 
 177:.\src/stm32f0x_gpio.c **** 		//GPIO_EXTILineConfig(GPIO_PortSourceGPIOB, GPIO_PinSource12);
 178:.\src/stm32f0x_gpio.c **** 
 179:.\src/stm32f0x_gpio.c **** 	// Enable and set Button EXTI Interrupt to the lowest priority
 180:.\src/stm32f0x_gpio.c **** 	//NVIC_InitStructure.NVIC_IRQChannel = EXTI0_IRQn;
 181:.\src/stm32f0x_gpio.c **** 	//NVIC_InitStructure.NVIC_IRQChannelPreemptionPriority = 0x0F;
 182:.\src/stm32f0x_gpio.c **** 	//NVIC_InitStructure.NVIC_IRQChannelSubPriority = 0x0F;
 183:.\src/stm32f0x_gpio.c **** 	//NVIC_InitStructure.NVIC_IRQChannelCmd = ENABLE;
ARM GAS  C:\Users\Mariano\AppData\Local\Temp\ccAk74Yw.s 			page 28


 184:.\src/stm32f0x_gpio.c **** 
 185:.\src/stm32f0x_gpio.c **** 	/*
 186:.\src/stm32f0x_gpio.c **** 	NVIC_InitStructure.NVIC_IRQChannel = EXTI4_15_IRQn;
 187:.\src/stm32f0x_gpio.c **** 	NVIC_InitStructure.NVIC_IRQChannelPriority = 0x5;
 188:.\src/stm32f0x_gpio.c **** 	NVIC_InitStructure.NVIC_IRQChannelCmd = ENABLE;
 189:.\src/stm32f0x_gpio.c **** 
 190:.\src/stm32f0x_gpio.c **** 	NVIC_Init(&NVIC_InitStructure);
 191:.\src/stm32f0x_gpio.c **** 	*/
 192:.\src/stm32f0x_gpio.c **** 
 193:.\src/stm32f0x_gpio.c **** 	/*
 194:.\src/stm32f0x_gpio.c **** 	SYSCFG->EXTICR[3] = 0x00000000; //Select Port A for pin 8 external interrupt by writing 0000 in EX
 195:.\src/stm32f0x_gpio.c **** 	EXTI->IMR = 0x0010; //Configure the corresponding mask bit in the EXTI_IMR register
 196:.\src/stm32f0x_gpio.c **** 	EXTI->EMR = 0x0010; //Configure the corresponding mask bit in the EXTI_IMR register
 197:.\src/stm32f0x_gpio.c **** 	EXTI->RTSR = 0x0010; //Configure the Trigger Selection bits of the Interrupt line on rising edge
 198:.\src/stm32f0x_gpio.c **** 	EXTI->FTSR = 0x0010; //Configure the Trigger Selection bits of the Interrupt line on falling edge
 199:.\src/stm32f0x_gpio.c **** 	*/
 200:.\src/stm32f0x_gpio.c **** 	NVIC_EnableIRQ(EXTI4_15_IRQn);
 455              		.loc 2 200 0
 456 013e 0720     		mov	r0, #7	@,
 457 0140 FFF7FEFF 		bl	NVIC_EnableIRQ	@
 201:.\src/stm32f0x_gpio.c **** 	NVIC_SetPriority(EXTI4_15_IRQn, 6);
 458              		.loc 2 201 0
 459 0144 0720     		mov	r0, #7	@,
 460 0146 0621     		mov	r1, #6	@,
 461 0148 FFF7FEFF 		bl	NVIC_SetPriority	@
 202:.\src/stm32f0x_gpio.c **** 
 203:.\src/stm32f0x_gpio.c **** 
 204:.\src/stm32f0x_gpio.c **** }
 462              		.loc 2 204 0
 463 014c 05B0     		add	sp, sp, #20	@,,
 464              		@ sp needed for prologue	@
 465 014e 00BD     		pop	{pc}
 466              	.L13:
 467              		.align	2
 468              	.L12:
 469 0150 00100240 		.word	1073876992
 470 0154 55656801 		.word	23618901
 471 0158 00E7FFFF 		.word	-6400
 472 015c 00003FFC 		.word	-62980096
 473 0160 00040048 		.word	1207960576
 474 0164 300FFFFF 		.word	-61648
 475 0168 03500000 		.word	20483
 476 016c FF0FFFFF 		.word	-61441
 477              		.cfi_endproc
 478              	.LFE20:
 479              		.size	GPIO_Config, .-GPIO_Config
 480              		.section	.text.EXTIOff,"ax",%progbits
 481              		.align	2
 482              		.global	EXTIOff
 483              		.code	16
 484              		.thumb_func
 485              		.type	EXTIOff, %function
 486              	EXTIOff:
 487              	.LFB21:
 205:.\src/stm32f0x_gpio.c **** 
 206:.\src/stm32f0x_gpio.c **** inline void EXTIOff (void)
 207:.\src/stm32f0x_gpio.c **** {
ARM GAS  C:\Users\Mariano\AppData\Local\Temp\ccAk74Yw.s 			page 29


 488              		.loc 2 207 0
 489              		.cfi_startproc
 208:.\src/stm32f0x_gpio.c **** 	EXTI->IMR &= ~0x00000100;
 490              		.loc 2 208 0
 491 0000 034B     		ldr	r3, .L15	@ D.4720,
 492 0002 034A     		ldr	r2, .L15	@ D.4721,
 493 0004 1168     		ldr	r1, [r2]	@ D.4722, D.4721_2->IMR
 494 0006 034A     		ldr	r2, .L15+4	@ tmp138,
 495 0008 0A40     		and	r2, r1	@ D.4723, D.4722
 496 000a 1A60     		str	r2, [r3]	@ D.4723, D.4720_1->IMR
 209:.\src/stm32f0x_gpio.c **** }
 497              		.loc 2 209 0
 498              		@ sp needed for prologue	@
 499 000c 7047     		bx	lr
 500              	.L16:
 501 000e C046     		.align	2
 502              	.L15:
 503 0010 00040140 		.word	1073808384
 504 0014 FFFEFFFF 		.word	-257
 505              		.cfi_endproc
 506              	.LFE21:
 507              		.size	EXTIOff, .-EXTIOff
 508              		.section	.text.EXTIOn,"ax",%progbits
 509              		.align	2
 510              		.global	EXTIOn
 511              		.code	16
 512              		.thumb_func
 513              		.type	EXTIOn, %function
 514              	EXTIOn:
 515              	.LFB22:
 210:.\src/stm32f0x_gpio.c **** 
 211:.\src/stm32f0x_gpio.c **** inline void EXTIOn (void)
 212:.\src/stm32f0x_gpio.c **** {
 516              		.loc 2 212 0
 517              		.cfi_startproc
 213:.\src/stm32f0x_gpio.c **** 	EXTI->IMR |= 0x00000100;
 518              		.loc 2 213 0
 519 0000 034B     		ldr	r3, .L18	@ D.4716,
 520 0002 034A     		ldr	r2, .L18	@ D.4717,
 521 0004 1268     		ldr	r2, [r2]	@ D.4718, D.4717_2->IMR
 522 0006 8021     		mov	r1, #128	@ tmp139,
 523 0008 4900     		lsl	r1, r1, #1	@ tmp138, tmp139,
 524 000a 0A43     		orr	r2, r1	@ D.4719, tmp138
 525 000c 1A60     		str	r2, [r3]	@ D.4719, D.4716_1->IMR
 214:.\src/stm32f0x_gpio.c **** }
 526              		.loc 2 214 0
 527              		@ sp needed for prologue	@
 528 000e 7047     		bx	lr
 529              	.L19:
 530              		.align	2
 531              	.L18:
 532 0010 00040140 		.word	1073808384
 533              		.cfi_endproc
 534              	.LFE22:
 535              		.size	EXTIOn, .-EXTIOn
 536              		.text
 537              	.Letext0:
ARM GAS  C:\Users\Mariano\AppData\Local\Temp\ccAk74Yw.s 			page 30


 538              		.file 3 ".\\cmsis_boot/stm32f0xx.h"
 539              		.file 4 "c:\\program files (x86)\\gnu tools arm embedded\\4.7 2013q2\\bin\\../lib/gcc/arm-none-eab
 540              		.file 5 "..\\STM32F0xx_StdPeriph_Lib_V1.3.1\\Libraries\\STM32F0xx_StdPeriph_Driver\\inc/stm32f0xx_
 541              		.section	.debug_info,"",%progbits
 542              	.Ldebug_info0:
 543 0000 DE060000 		.4byte	0x6de
 544 0004 0200     		.2byte	0x2
 545 0006 00000000 		.4byte	.Ldebug_abbrev0
 546 000a 04       		.byte	0x4
 547 000b 01       		.uleb128 0x1
 548 000c 1C020000 		.4byte	.LASF104
 549 0010 01       		.byte	0x1
 550 0011 AA000000 		.4byte	.LASF105
 551 0015 E3000000 		.4byte	.LASF106
 552 0019 00000000 		.4byte	.Ldebug_ranges0+0
 553 001d 00000000 		.4byte	0
 554 0021 00000000 		.4byte	0
 555 0025 00000000 		.4byte	.Ldebug_line0
 556 0029 02       		.uleb128 0x2
 557 002a 8A020000 		.4byte	.LASF98
 558 002e 01       		.byte	0x1
 559 002f 03       		.byte	0x3
 560 0030 C7       		.byte	0xc7
 561 0031 E4000000 		.4byte	0xe4
 562 0035 03       		.uleb128 0x3
 563 0036 36040000 		.4byte	.LASF0
 564 003a 72       		.sleb128 -14
 565 003b 03       		.uleb128 0x3
 566 003c 4E010000 		.4byte	.LASF1
 567 0040 73       		.sleb128 -13
 568 0041 03       		.uleb128 0x3
 569 0042 18050000 		.4byte	.LASF2
 570 0046 7B       		.sleb128 -5
 571 0047 03       		.uleb128 0x3
 572 0048 08040000 		.4byte	.LASF3
 573 004c 7E       		.sleb128 -2
 574 004d 03       		.uleb128 0x3
 575 004e 70020000 		.4byte	.LASF4
 576 0052 7F       		.sleb128 -1
 577 0053 03       		.uleb128 0x3
 578 0054 81000000 		.4byte	.LASF5
 579 0058 00       		.sleb128 0
 580 0059 03       		.uleb128 0x3
 581 005a FE040000 		.4byte	.LASF6
 582 005e 02       		.sleb128 2
 583 005f 03       		.uleb128 0x3
 584 0060 EA030000 		.4byte	.LASF7
 585 0064 03       		.sleb128 3
 586 0065 03       		.uleb128 0x3
 587 0066 D3040000 		.4byte	.LASF8
 588 006a 04       		.sleb128 4
 589 006b 03       		.uleb128 0x3
 590 006c 9F040000 		.4byte	.LASF9
 591 0070 05       		.sleb128 5
 592 0071 03       		.uleb128 0x3
 593 0072 29040000 		.4byte	.LASF10
 594 0076 06       		.sleb128 6
ARM GAS  C:\Users\Mariano\AppData\Local\Temp\ccAk74Yw.s 			page 31


 595 0077 03       		.uleb128 0x3
 596 0078 A3030000 		.4byte	.LASF11
 597 007c 07       		.sleb128 7
 598 007d 03       		.uleb128 0x3
 599 007e 0D030000 		.4byte	.LASF12
 600 0082 09       		.sleb128 9
 601 0083 03       		.uleb128 0x3
 602 0084 14040000 		.4byte	.LASF13
 603 0088 0A       		.sleb128 10
 604 0089 03       		.uleb128 0x3
 605 008a D5030000 		.4byte	.LASF14
 606 008e 0B       		.sleb128 11
 607 008f 03       		.uleb128 0x3
 608 0090 99030000 		.4byte	.LASF15
 609 0094 0C       		.sleb128 12
 610 0095 03       		.uleb128 0x3
 611 0096 65010000 		.4byte	.LASF16
 612 009a 0D       		.sleb128 13
 613 009b 03       		.uleb128 0x3
 614 009c 7D020000 		.4byte	.LASF17
 615 00a0 0E       		.sleb128 14
 616 00a1 03       		.uleb128 0x3
 617 00a2 07050000 		.4byte	.LASF18
 618 00a6 10       		.sleb128 16
 619 00a7 03       		.uleb128 0x3
 620 00a8 99010000 		.4byte	.LASF19
 621 00ac 13       		.sleb128 19
 622 00ad 03       		.uleb128 0x3
 623 00ae 65020000 		.4byte	.LASF20
 624 00b2 14       		.sleb128 20
 625 00b3 03       		.uleb128 0x3
 626 00b4 E9020000 		.4byte	.LASF21
 627 00b8 15       		.sleb128 21
 628 00b9 03       		.uleb128 0x3
 629 00ba C0030000 		.4byte	.LASF22
 630 00be 16       		.sleb128 22
 631 00bf 03       		.uleb128 0x3
 632 00c0 CB030000 		.4byte	.LASF23
 633 00c4 17       		.sleb128 23
 634 00c5 03       		.uleb128 0x3
 635 00c6 8B040000 		.4byte	.LASF24
 636 00ca 18       		.sleb128 24
 637 00cb 03       		.uleb128 0x3
 638 00cc 09020000 		.4byte	.LASF25
 639 00d0 19       		.sleb128 25
 640 00d1 03       		.uleb128 0x3
 641 00d2 A2020000 		.4byte	.LASF26
 642 00d6 1A       		.sleb128 26
 643 00d7 03       		.uleb128 0x3
 644 00d8 52030000 		.4byte	.LASF27
 645 00dc 1B       		.sleb128 27
 646 00dd 03       		.uleb128 0x3
 647 00de 73030000 		.4byte	.LASF28
 648 00e2 1C       		.sleb128 28
 649 00e3 00       		.byte	0
 650 00e4 04       		.uleb128 0x4
 651 00e5 F5030000 		.4byte	.LASF32
ARM GAS  C:\Users\Mariano\AppData\Local\Temp\ccAk74Yw.s 			page 32


 652 00e9 03       		.byte	0x3
 653 00ea 5F01     		.2byte	0x15f
 654 00ec 29000000 		.4byte	0x29
 655 00f0 05       		.uleb128 0x5
 656 00f1 01       		.byte	0x1
 657 00f2 06       		.byte	0x6
 658 00f3 99000000 		.4byte	.LASF29
 659 00f7 05       		.uleb128 0x5
 660 00f8 01       		.byte	0x1
 661 00f9 08       		.byte	0x8
 662 00fa 65030000 		.4byte	.LASF30
 663 00fe 05       		.uleb128 0x5
 664 00ff 02       		.byte	0x2
 665 0100 05       		.byte	0x5
 666 0101 8A030000 		.4byte	.LASF31
 667 0105 06       		.uleb128 0x6
 668 0106 30010000 		.4byte	.LASF33
 669 010a 04       		.byte	0x4
 670 010b 36       		.byte	0x36
 671 010c 10010000 		.4byte	0x110
 672 0110 05       		.uleb128 0x5
 673 0111 02       		.byte	0x2
 674 0112 07       		.byte	0x7
 675 0113 DA010000 		.4byte	.LASF34
 676 0117 05       		.uleb128 0x5
 677 0118 04       		.byte	0x4
 678 0119 05       		.byte	0x5
 679 011a C0000000 		.4byte	.LASF35
 680 011e 06       		.uleb128 0x6
 681 011f FF030000 		.4byte	.LASF36
 682 0123 04       		.byte	0x4
 683 0124 50       		.byte	0x50
 684 0125 29010000 		.4byte	0x129
 685 0129 05       		.uleb128 0x5
 686 012a 04       		.byte	0x4
 687 012b 07       		.byte	0x7
 688 012c A9010000 		.4byte	.LASF37
 689 0130 05       		.uleb128 0x5
 690 0131 08       		.byte	0x8
 691 0132 05       		.byte	0x5
 692 0133 8B000000 		.4byte	.LASF38
 693 0137 05       		.uleb128 0x5
 694 0138 08       		.byte	0x8
 695 0139 07       		.byte	0x7
 696 013a 5F000000 		.4byte	.LASF39
 697 013e 07       		.uleb128 0x7
 698 013f 04       		.byte	0x4
 699 0140 05       		.byte	0x5
 700 0141 696E7400 		.ascii	"int\000"
 701 0145 05       		.uleb128 0x5
 702 0146 04       		.byte	0x4
 703 0147 07       		.byte	0x7
 704 0148 8C010000 		.4byte	.LASF40
 705 014c 08       		.uleb128 0x8
 706 014d 2003     		.2byte	0x320
 707 014f 01       		.byte	0x1
 708 0150 71       		.byte	0x71
ARM GAS  C:\Users\Mariano\AppData\Local\Temp\ccAk74Yw.s 			page 33


 709 0151 E9010000 		.4byte	0x1e9
 710 0155 09       		.uleb128 0x9
 711 0156 94030000 		.4byte	.LASF41
 712 015a 01       		.byte	0x1
 713 015b 73       		.byte	0x73
 714 015c 00020000 		.4byte	0x200
 715 0160 02       		.byte	0x2
 716 0161 23       		.byte	0x23
 717 0162 00       		.uleb128 0
 718 0163 09       		.uleb128 0x9
 719 0164 2A030000 		.4byte	.LASF42
 720 0168 01       		.byte	0x1
 721 0169 74       		.byte	0x74
 722 016a 05020000 		.4byte	0x205
 723 016e 02       		.byte	0x2
 724 016f 23       		.byte	0x23
 725 0170 04       		.uleb128 0x4
 726 0171 09       		.uleb128 0x9
 727 0172 BC020000 		.4byte	.LASF43
 728 0176 01       		.byte	0x1
 729 0177 75       		.byte	0x75
 730 0178 15020000 		.4byte	0x215
 731 017c 03       		.byte	0x3
 732 017d 23       		.byte	0x23
 733 017e 8001     		.uleb128 0x80
 734 0180 09       		.uleb128 0x9
 735 0181 05000000 		.4byte	.LASF44
 736 0185 01       		.byte	0x1
 737 0186 76       		.byte	0x76
 738 0187 05020000 		.4byte	0x205
 739 018b 03       		.byte	0x3
 740 018c 23       		.byte	0x23
 741 018d 8401     		.uleb128 0x84
 742 018f 09       		.uleb128 0x9
 743 0190 7C000000 		.4byte	.LASF45
 744 0194 01       		.byte	0x1
 745 0195 77       		.byte	0x77
 746 0196 1A020000 		.4byte	0x21a
 747 019a 03       		.byte	0x3
 748 019b 23       		.byte	0x23
 749 019c 8002     		.uleb128 0x100
 750 019e 09       		.uleb128 0x9
 751 019f 3E030000 		.4byte	.LASF46
 752 01a3 01       		.byte	0x1
 753 01a4 78       		.byte	0x78
 754 01a5 05020000 		.4byte	0x205
 755 01a9 03       		.byte	0x3
 756 01aa 23       		.byte	0x23
 757 01ab 8402     		.uleb128 0x104
 758 01ad 09       		.uleb128 0x9
 759 01ae 00000000 		.4byte	.LASF47
 760 01b2 01       		.byte	0x1
 761 01b3 79       		.byte	0x79
 762 01b4 1F020000 		.4byte	0x21f
 763 01b8 03       		.byte	0x3
 764 01b9 23       		.byte	0x23
 765 01ba 8003     		.uleb128 0x180
ARM GAS  C:\Users\Mariano\AppData\Local\Temp\ccAk74Yw.s 			page 34


 766 01bc 09       		.uleb128 0x9
 767 01bd 48030000 		.4byte	.LASF48
 768 01c1 01       		.byte	0x1
 769 01c2 7A       		.byte	0x7a
 770 01c3 05020000 		.4byte	0x205
 771 01c7 03       		.byte	0x3
 772 01c8 23       		.byte	0x23
 773 01c9 8403     		.uleb128 0x184
 774 01cb 09       		.uleb128 0x9
 775 01cc 95040000 		.4byte	.LASF49
 776 01d0 01       		.byte	0x1
 777 01d1 7B       		.byte	0x7b
 778 01d2 24020000 		.4byte	0x224
 779 01d6 03       		.byte	0x3
 780 01d7 23       		.byte	0x23
 781 01d8 8004     		.uleb128 0x200
 782 01da 0A       		.uleb128 0xa
 783 01db 495000   		.ascii	"IP\000"
 784 01de 01       		.byte	0x1
 785 01df 7C       		.byte	0x7c
 786 01e0 44020000 		.4byte	0x244
 787 01e4 03       		.byte	0x3
 788 01e5 23       		.byte	0x23
 789 01e6 8006     		.uleb128 0x300
 790 01e8 00       		.byte	0
 791 01e9 0B       		.uleb128 0xb
 792 01ea 1E010000 		.4byte	0x11e
 793 01ee F9010000 		.4byte	0x1f9
 794 01f2 0C       		.uleb128 0xc
 795 01f3 F9010000 		.4byte	0x1f9
 796 01f7 00       		.byte	0
 797 01f8 00       		.byte	0
 798 01f9 05       		.uleb128 0x5
 799 01fa 04       		.byte	0x4
 800 01fb 07       		.byte	0x7
 801 01fc 8F020000 		.4byte	.LASF50
 802 0200 0D       		.uleb128 0xd
 803 0201 E9010000 		.4byte	0x1e9
 804 0205 0B       		.uleb128 0xb
 805 0206 1E010000 		.4byte	0x11e
 806 020a 15020000 		.4byte	0x215
 807 020e 0C       		.uleb128 0xc
 808 020f F9010000 		.4byte	0x1f9
 809 0213 1E       		.byte	0x1e
 810 0214 00       		.byte	0
 811 0215 0D       		.uleb128 0xd
 812 0216 E9010000 		.4byte	0x1e9
 813 021a 0D       		.uleb128 0xd
 814 021b E9010000 		.4byte	0x1e9
 815 021f 0D       		.uleb128 0xd
 816 0220 E9010000 		.4byte	0x1e9
 817 0224 0B       		.uleb128 0xb
 818 0225 1E010000 		.4byte	0x11e
 819 0229 34020000 		.4byte	0x234
 820 022d 0C       		.uleb128 0xc
 821 022e F9010000 		.4byte	0x1f9
 822 0232 3F       		.byte	0x3f
ARM GAS  C:\Users\Mariano\AppData\Local\Temp\ccAk74Yw.s 			page 35


 823 0233 00       		.byte	0
 824 0234 0B       		.uleb128 0xb
 825 0235 1E010000 		.4byte	0x11e
 826 0239 44020000 		.4byte	0x244
 827 023d 0C       		.uleb128 0xc
 828 023e F9010000 		.4byte	0x1f9
 829 0242 07       		.byte	0x7
 830 0243 00       		.byte	0
 831 0244 0D       		.uleb128 0xd
 832 0245 34020000 		.4byte	0x234
 833 0249 06       		.uleb128 0x6
 834 024a C9020000 		.4byte	.LASF51
 835 024e 01       		.byte	0x1
 836 024f 7D       		.byte	0x7d
 837 0250 4C010000 		.4byte	0x14c
 838 0254 0E       		.uleb128 0xe
 839 0255 34       		.byte	0x34
 840 0256 01       		.byte	0x1
 841 0257 86       		.byte	0x86
 842 0258 F7020000 		.4byte	0x2f7
 843 025c 09       		.uleb128 0x9
 844 025d F4020000 		.4byte	.LASF52
 845 0261 01       		.byte	0x1
 846 0262 88       		.byte	0x88
 847 0263 F7020000 		.4byte	0x2f7
 848 0267 02       		.byte	0x2
 849 0268 23       		.byte	0x23
 850 0269 00       		.uleb128 0
 851 026a 09       		.uleb128 0x9
 852 026b ED010000 		.4byte	.LASF53
 853 026f 01       		.byte	0x1
 854 0270 89       		.byte	0x89
 855 0271 FC020000 		.4byte	0x2fc
 856 0275 02       		.byte	0x2
 857 0276 23       		.byte	0x23
 858 0277 04       		.uleb128 0x4
 859 0278 09       		.uleb128 0x9
 860 0279 2A030000 		.4byte	.LASF42
 861 027d 01       		.byte	0x1
 862 027e 8A       		.byte	0x8a
 863 027f 1E010000 		.4byte	0x11e
 864 0283 02       		.byte	0x2
 865 0284 23       		.byte	0x23
 866 0285 08       		.uleb128 0x8
 867 0286 09       		.uleb128 0x9
 868 0287 F2010000 		.4byte	.LASF54
 869 028b 01       		.byte	0x1
 870 028c 8B       		.byte	0x8b
 871 028d FC020000 		.4byte	0x2fc
 872 0291 02       		.byte	0x2
 873 0292 23       		.byte	0x23
 874 0293 0C       		.uleb128 0xc
 875 0294 0A       		.uleb128 0xa
 876 0295 53435200 		.ascii	"SCR\000"
 877 0299 01       		.byte	0x1
 878 029a 8C       		.byte	0x8c
 879 029b FC020000 		.4byte	0x2fc
ARM GAS  C:\Users\Mariano\AppData\Local\Temp\ccAk74Yw.s 			page 36


 880 029f 02       		.byte	0x2
 881 02a0 23       		.byte	0x23
 882 02a1 10       		.uleb128 0x10
 883 02a2 0A       		.uleb128 0xa
 884 02a3 43435200 		.ascii	"CCR\000"
 885 02a7 01       		.byte	0x1
 886 02a8 8D       		.byte	0x8d
 887 02a9 FC020000 		.4byte	0x2fc
 888 02ad 02       		.byte	0x2
 889 02ae 23       		.byte	0x23
 890 02af 14       		.uleb128 0x14
 891 02b0 09       		.uleb128 0x9
 892 02b1 34030000 		.4byte	.LASF55
 893 02b5 01       		.byte	0x1
 894 02b6 8E       		.byte	0x8e
 895 02b7 1E010000 		.4byte	0x11e
 896 02bb 02       		.byte	0x2
 897 02bc 23       		.byte	0x23
 898 02bd 18       		.uleb128 0x18
 899 02be 0A       		.uleb128 0xa
 900 02bf 53485000 		.ascii	"SHP\000"
 901 02c3 01       		.byte	0x1
 902 02c4 8F       		.byte	0x8f
 903 02c5 11030000 		.4byte	0x311
 904 02c9 02       		.byte	0x2
 905 02ca 23       		.byte	0x23
 906 02cb 1C       		.uleb128 0x1c
 907 02cc 09       		.uleb128 0x9
 908 02cd 7F030000 		.4byte	.LASF56
 909 02d1 01       		.byte	0x1
 910 02d2 90       		.byte	0x90
 911 02d3 FC020000 		.4byte	0x2fc
 912 02d7 02       		.byte	0x2
 913 02d8 23       		.byte	0x23
 914 02d9 24       		.uleb128 0x24
 915 02da 09       		.uleb128 0x9
 916 02db 3E030000 		.4byte	.LASF46
 917 02df 01       		.byte	0x1
 918 02e0 91       		.byte	0x91
 919 02e1 01030000 		.4byte	0x301
 920 02e5 02       		.byte	0x2
 921 02e6 23       		.byte	0x23
 922 02e7 28       		.uleb128 0x28
 923 02e8 09       		.uleb128 0x9
 924 02e9 F8010000 		.4byte	.LASF57
 925 02ed 01       		.byte	0x1
 926 02ee 92       		.byte	0x92
 927 02ef FC020000 		.4byte	0x2fc
 928 02f3 02       		.byte	0x2
 929 02f4 23       		.byte	0x23
 930 02f5 30       		.uleb128 0x30
 931 02f6 00       		.byte	0
 932 02f7 0F       		.uleb128 0xf
 933 02f8 FC020000 		.4byte	0x2fc
 934 02fc 0D       		.uleb128 0xd
 935 02fd 1E010000 		.4byte	0x11e
 936 0301 0B       		.uleb128 0xb
ARM GAS  C:\Users\Mariano\AppData\Local\Temp\ccAk74Yw.s 			page 37


 937 0302 1E010000 		.4byte	0x11e
 938 0306 11030000 		.4byte	0x311
 939 030a 0C       		.uleb128 0xc
 940 030b F9010000 		.4byte	0x1f9
 941 030f 01       		.byte	0x1
 942 0310 00       		.byte	0
 943 0311 0D       		.uleb128 0xd
 944 0312 01030000 		.4byte	0x301
 945 0316 06       		.uleb128 0x6
 946 0317 7E010000 		.4byte	.LASF58
 947 031b 01       		.byte	0x1
 948 031c 93       		.byte	0x93
 949 031d 54020000 		.4byte	0x254
 950 0321 10       		.uleb128 0x10
 951 0322 01       		.byte	0x1
 952 0323 03       		.byte	0x3
 953 0324 6F01     		.2byte	0x16f
 954 0326 37030000 		.4byte	0x337
 955 032a 03       		.uleb128 0x3
 956 032b 51000000 		.4byte	.LASF59
 957 032f 00       		.sleb128 0
 958 0330 03       		.uleb128 0x3
 959 0331 29010000 		.4byte	.LASF60
 960 0335 01       		.sleb128 1
 961 0336 00       		.byte	0
 962 0337 04       		.uleb128 0x4
 963 0338 AC020000 		.4byte	.LASF61
 964 033c 03       		.byte	0x3
 965 033d 6F01     		.2byte	0x16f
 966 033f 21030000 		.4byte	0x321
 967 0343 11       		.uleb128 0x11
 968 0344 18       		.byte	0x18
 969 0345 03       		.byte	0x3
 970 0346 3A02     		.2byte	0x23a
 971 0348 A6030000 		.4byte	0x3a6
 972 034c 12       		.uleb128 0x12
 973 034d 494D5200 		.ascii	"IMR\000"
 974 0351 03       		.byte	0x3
 975 0352 3C02     		.2byte	0x23c
 976 0354 FC020000 		.4byte	0x2fc
 977 0358 02       		.byte	0x2
 978 0359 23       		.byte	0x23
 979 035a 00       		.uleb128 0
 980 035b 12       		.uleb128 0x12
 981 035c 454D5200 		.ascii	"EMR\000"
 982 0360 03       		.byte	0x3
 983 0361 3D02     		.2byte	0x23d
 984 0363 FC020000 		.4byte	0x2fc
 985 0367 02       		.byte	0x2
 986 0368 23       		.byte	0x23
 987 0369 04       		.uleb128 0x4
 988 036a 13       		.uleb128 0x13
 989 036b A4010000 		.4byte	.LASF62
 990 036f 03       		.byte	0x3
 991 0370 3E02     		.2byte	0x23e
 992 0372 FC020000 		.4byte	0x2fc
 993 0376 02       		.byte	0x2
ARM GAS  C:\Users\Mariano\AppData\Local\Temp\ccAk74Yw.s 			page 38


 994 0377 23       		.byte	0x23
 995 0378 08       		.uleb128 0x8
 996 0379 13       		.uleb128 0x13
 997 037a 85030000 		.4byte	.LASF63
 998 037e 03       		.byte	0x3
 999 037f 3F02     		.2byte	0x23f
 1000 0381 FC020000 		.4byte	0x2fc
 1001 0385 02       		.byte	0x2
 1002 0386 23       		.byte	0x23
 1003 0387 0C       		.uleb128 0xc
 1004 0388 13       		.uleb128 0x13
 1005 0389 4B000000 		.4byte	.LASF64
 1006 038d 03       		.byte	0x3
 1007 038e 4002     		.2byte	0x240
 1008 0390 FC020000 		.4byte	0x2fc
 1009 0394 02       		.byte	0x2
 1010 0395 23       		.byte	0x23
 1011 0396 10       		.uleb128 0x10
 1012 0397 12       		.uleb128 0x12
 1013 0398 505200   		.ascii	"PR\000"
 1014 039b 03       		.byte	0x3
 1015 039c 4102     		.2byte	0x241
 1016 039e FC020000 		.4byte	0x2fc
 1017 03a2 02       		.byte	0x2
 1018 03a3 23       		.byte	0x23
 1019 03a4 14       		.uleb128 0x14
 1020 03a5 00       		.byte	0
 1021 03a6 04       		.uleb128 0x4
 1022 03a7 F1040000 		.4byte	.LASF65
 1023 03ab 03       		.byte	0x3
 1024 03ac 4202     		.2byte	0x242
 1025 03ae 43030000 		.4byte	0x343
 1026 03b2 0D       		.uleb128 0xd
 1027 03b3 05010000 		.4byte	0x105
 1028 03b7 11       		.uleb128 0x11
 1029 03b8 2C       		.byte	0x2c
 1030 03b9 03       		.byte	0x3
 1031 03ba 6902     		.2byte	0x269
 1032 03bc 93040000 		.4byte	0x493
 1033 03c0 13       		.uleb128 0x13
 1034 03c1 59000000 		.4byte	.LASF66
 1035 03c5 03       		.byte	0x3
 1036 03c6 6B02     		.2byte	0x26b
 1037 03c8 FC020000 		.4byte	0x2fc
 1038 03cc 02       		.byte	0x2
 1039 03cd 23       		.byte	0x23
 1040 03ce 00       		.uleb128 0
 1041 03cf 13       		.uleb128 0x13
 1042 03d0 28000000 		.4byte	.LASF67
 1043 03d4 03       		.byte	0x3
 1044 03d5 6C02     		.2byte	0x26c
 1045 03d7 B2030000 		.4byte	0x3b2
 1046 03db 02       		.byte	0x2
 1047 03dc 23       		.byte	0x23
 1048 03dd 04       		.uleb128 0x4
 1049 03de 13       		.uleb128 0x13
 1050 03df 2A030000 		.4byte	.LASF42
ARM GAS  C:\Users\Mariano\AppData\Local\Temp\ccAk74Yw.s 			page 39


 1051 03e3 03       		.byte	0x3
 1052 03e4 6D02     		.2byte	0x26d
 1053 03e6 05010000 		.4byte	0x105
 1054 03ea 02       		.byte	0x2
 1055 03eb 23       		.byte	0x23
 1056 03ec 06       		.uleb128 0x6
 1057 03ed 13       		.uleb128 0x13
 1058 03ee 5D010000 		.4byte	.LASF68
 1059 03f2 03       		.byte	0x3
 1060 03f3 6E02     		.2byte	0x26e
 1061 03f5 FC020000 		.4byte	0x2fc
 1062 03f9 02       		.byte	0x2
 1063 03fa 23       		.byte	0x23
 1064 03fb 08       		.uleb128 0x8
 1065 03fc 13       		.uleb128 0x13
 1066 03fd 76000000 		.4byte	.LASF69
 1067 0401 03       		.byte	0x3
 1068 0402 6F02     		.2byte	0x26f
 1069 0404 FC020000 		.4byte	0x2fc
 1070 0408 02       		.byte	0x2
 1071 0409 23       		.byte	0x23
 1072 040a 0C       		.uleb128 0xc
 1073 040b 12       		.uleb128 0x12
 1074 040c 49445200 		.ascii	"IDR\000"
 1075 0410 03       		.byte	0x3
 1076 0411 7002     		.2byte	0x270
 1077 0413 B2030000 		.4byte	0x3b2
 1078 0417 02       		.byte	0x2
 1079 0418 23       		.byte	0x23
 1080 0419 10       		.uleb128 0x10
 1081 041a 13       		.uleb128 0x13
 1082 041b 34030000 		.4byte	.LASF55
 1083 041f 03       		.byte	0x3
 1084 0420 7102     		.2byte	0x271
 1085 0422 05010000 		.4byte	0x105
 1086 0426 02       		.byte	0x2
 1087 0427 23       		.byte	0x23
 1088 0428 12       		.uleb128 0x12
 1089 0429 12       		.uleb128 0x12
 1090 042a 4F445200 		.ascii	"ODR\000"
 1091 042e 03       		.byte	0x3
 1092 042f 7202     		.2byte	0x272
 1093 0431 B2030000 		.4byte	0x3b2
 1094 0435 02       		.byte	0x2
 1095 0436 23       		.byte	0x23
 1096 0437 14       		.uleb128 0x14
 1097 0438 13       		.uleb128 0x13
 1098 0439 3E030000 		.4byte	.LASF46
 1099 043d 03       		.byte	0x3
 1100 043e 7302     		.2byte	0x273
 1101 0440 05010000 		.4byte	0x105
 1102 0444 02       		.byte	0x2
 1103 0445 23       		.byte	0x23
 1104 0446 16       		.uleb128 0x16
 1105 0447 13       		.uleb128 0x13
 1106 0448 A5000000 		.4byte	.LASF70
 1107 044c 03       		.byte	0x3
ARM GAS  C:\Users\Mariano\AppData\Local\Temp\ccAk74Yw.s 			page 40


 1108 044d 7402     		.2byte	0x274
 1109 044f FC020000 		.4byte	0x2fc
 1110 0453 02       		.byte	0x2
 1111 0454 23       		.byte	0x23
 1112 0455 18       		.uleb128 0x18
 1113 0456 13       		.uleb128 0x13
 1114 0457 0E000000 		.4byte	.LASF71
 1115 045b 03       		.byte	0x3
 1116 045c 7502     		.2byte	0x275
 1117 045e FC020000 		.4byte	0x2fc
 1118 0462 02       		.byte	0x2
 1119 0463 23       		.byte	0x23
 1120 0464 1C       		.uleb128 0x1c
 1121 0465 12       		.uleb128 0x12
 1122 0466 41465200 		.ascii	"AFR\000"
 1123 046a 03       		.byte	0x3
 1124 046b 7602     		.2byte	0x276
 1125 046d 93040000 		.4byte	0x493
 1126 0471 02       		.byte	0x2
 1127 0472 23       		.byte	0x23
 1128 0473 20       		.uleb128 0x20
 1129 0474 12       		.uleb128 0x12
 1130 0475 42525200 		.ascii	"BRR\000"
 1131 0479 03       		.byte	0x3
 1132 047a 7702     		.2byte	0x277
 1133 047c B2030000 		.4byte	0x3b2
 1134 0480 02       		.byte	0x2
 1135 0481 23       		.byte	0x23
 1136 0482 28       		.uleb128 0x28
 1137 0483 13       		.uleb128 0x13
 1138 0484 48030000 		.4byte	.LASF48
 1139 0488 03       		.byte	0x3
 1140 0489 7802     		.2byte	0x278
 1141 048b 05010000 		.4byte	0x105
 1142 048f 02       		.byte	0x2
 1143 0490 23       		.byte	0x23
 1144 0491 2A       		.uleb128 0x2a
 1145 0492 00       		.byte	0
 1146 0493 0D       		.uleb128 0xd
 1147 0494 01030000 		.4byte	0x301
 1148 0498 04       		.uleb128 0x4
 1149 0499 BB010000 		.4byte	.LASF72
 1150 049d 03       		.byte	0x3
 1151 049e 7902     		.2byte	0x279
 1152 04a0 B7030000 		.4byte	0x3b7
 1153 04a4 11       		.uleb128 0x11
 1154 04a5 38       		.byte	0x38
 1155 04a6 03       		.byte	0x3
 1156 04a7 B502     		.2byte	0x2b5
 1157 04a9 7F050000 		.4byte	0x57f
 1158 04ad 12       		.uleb128 0x12
 1159 04ae 435200   		.ascii	"CR\000"
 1160 04b1 03       		.byte	0x3
 1161 04b2 B702     		.2byte	0x2b7
 1162 04b4 FC020000 		.4byte	0x2fc
 1163 04b8 02       		.byte	0x2
 1164 04b9 23       		.byte	0x23
ARM GAS  C:\Users\Mariano\AppData\Local\Temp\ccAk74Yw.s 			page 41


 1165 04ba 00       		.uleb128 0
 1166 04bb 13       		.uleb128 0x13
 1167 04bc EC040000 		.4byte	.LASF73
 1168 04c0 03       		.byte	0x3
 1169 04c1 B802     		.2byte	0x2b8
 1170 04c3 FC020000 		.4byte	0x2fc
 1171 04c7 02       		.byte	0x2
 1172 04c8 23       		.byte	0x23
 1173 04c9 04       		.uleb128 0x4
 1174 04ca 12       		.uleb128 0x12
 1175 04cb 43495200 		.ascii	"CIR\000"
 1176 04cf 03       		.byte	0x3
 1177 04d0 B902     		.2byte	0x2b9
 1178 04d2 FC020000 		.4byte	0x2fc
 1179 04d6 02       		.byte	0x2
 1180 04d7 23       		.byte	0x23
 1181 04d8 08       		.uleb128 0x8
 1182 04d9 13       		.uleb128 0x13
 1183 04da C9000000 		.4byte	.LASF74
 1184 04de 03       		.byte	0x3
 1185 04df BA02     		.2byte	0x2ba
 1186 04e1 FC020000 		.4byte	0x2fc
 1187 04e5 02       		.byte	0x2
 1188 04e6 23       		.byte	0x23
 1189 04e7 0C       		.uleb128 0xc
 1190 04e8 13       		.uleb128 0x13
 1191 04e9 D3020000 		.4byte	.LASF75
 1192 04ed 03       		.byte	0x3
 1193 04ee BB02     		.2byte	0x2bb
 1194 04f0 FC020000 		.4byte	0x2fc
 1195 04f4 02       		.byte	0x2
 1196 04f5 23       		.byte	0x23
 1197 04f6 10       		.uleb128 0x10
 1198 04f7 13       		.uleb128 0x13
 1199 04f8 11050000 		.4byte	.LASF76
 1200 04fc 03       		.byte	0x3
 1201 04fd BC02     		.2byte	0x2bc
 1202 04ff FC020000 		.4byte	0x2fc
 1203 0503 02       		.byte	0x2
 1204 0504 23       		.byte	0x23
 1205 0505 14       		.uleb128 0x14
 1206 0506 13       		.uleb128 0x13
 1207 0507 C0040000 		.4byte	.LASF77
 1208 050b 03       		.byte	0x3
 1209 050c BD02     		.2byte	0x2bd
 1210 050e FC020000 		.4byte	0x2fc
 1211 0512 02       		.byte	0x2
 1212 0513 23       		.byte	0x23
 1213 0514 18       		.uleb128 0x18
 1214 0515 13       		.uleb128 0x13
 1215 0516 6F040000 		.4byte	.LASF78
 1216 051a 03       		.byte	0x3
 1217 051b BE02     		.2byte	0x2be
 1218 051d FC020000 		.4byte	0x2fc
 1219 0521 02       		.byte	0x2
 1220 0522 23       		.byte	0x23
 1221 0523 1C       		.uleb128 0x1c
ARM GAS  C:\Users\Mariano\AppData\Local\Temp\ccAk74Yw.s 			page 42


 1222 0524 13       		.uleb128 0x13
 1223 0525 C8040000 		.4byte	.LASF79
 1224 0529 03       		.byte	0x3
 1225 052a BF02     		.2byte	0x2bf
 1226 052c FC020000 		.4byte	0x2fc
 1227 0530 02       		.byte	0x2
 1228 0531 23       		.byte	0x23
 1229 0532 20       		.uleb128 0x20
 1230 0533 12       		.uleb128 0x12
 1231 0534 43535200 		.ascii	"CSR\000"
 1232 0538 03       		.byte	0x3
 1233 0539 C002     		.2byte	0x2c0
 1234 053b FC020000 		.4byte	0x2fc
 1235 053f 02       		.byte	0x2
 1236 0540 23       		.byte	0x23
 1237 0541 24       		.uleb128 0x24
 1238 0542 13       		.uleb128 0x13
 1239 0543 C1020000 		.4byte	.LASF80
 1240 0547 03       		.byte	0x3
 1241 0548 C102     		.2byte	0x2c1
 1242 054a FC020000 		.4byte	0x2fc
 1243 054e 02       		.byte	0x2
 1244 054f 23       		.byte	0x23
 1245 0550 28       		.uleb128 0x28
 1246 0551 13       		.uleb128 0x13
 1247 0552 C8010000 		.4byte	.LASF81
 1248 0556 03       		.byte	0x3
 1249 0557 C202     		.2byte	0x2c2
 1250 0559 FC020000 		.4byte	0x2fc
 1251 055d 02       		.byte	0x2
 1252 055e 23       		.byte	0x23
 1253 055f 2C       		.uleb128 0x2c
 1254 0560 13       		.uleb128 0x13
 1255 0561 CD040000 		.4byte	.LASF82
 1256 0565 03       		.byte	0x3
 1257 0566 C302     		.2byte	0x2c3
 1258 0568 FC020000 		.4byte	0x2fc
 1259 056c 02       		.byte	0x2
 1260 056d 23       		.byte	0x23
 1261 056e 30       		.uleb128 0x30
 1262 056f 12       		.uleb128 0x12
 1263 0570 43523200 		.ascii	"CR2\000"
 1264 0574 03       		.byte	0x3
 1265 0575 C402     		.2byte	0x2c4
 1266 0577 FC020000 		.4byte	0x2fc
 1267 057b 02       		.byte	0x2
 1268 057c 23       		.byte	0x23
 1269 057d 34       		.uleb128 0x34
 1270 057e 00       		.byte	0
 1271 057f 04       		.uleb128 0x4
 1272 0580 CE010000 		.4byte	.LASF83
 1273 0584 03       		.byte	0x3
 1274 0585 C502     		.2byte	0x2c5
 1275 0587 A4040000 		.4byte	0x4a4
 1276 058b 14       		.uleb128 0x14
 1277 058c 01       		.byte	0x1
 1278 058d 05       		.byte	0x5
ARM GAS  C:\Users\Mariano\AppData\Local\Temp\ccAk74Yw.s 			page 43


 1279 058e 36       		.byte	0x36
 1280 058f A0050000 		.4byte	0x5a0
 1281 0593 03       		.uleb128 0x3
 1282 0594 AC040000 		.4byte	.LASF84
 1283 0598 00       		.sleb128 0
 1284 0599 03       		.uleb128 0x3
 1285 059a DC040000 		.4byte	.LASF85
 1286 059e 04       		.sleb128 4
 1287 059f 00       		.byte	0
 1288 05a0 06       		.uleb128 0x6
 1289 05a1 D2000000 		.4byte	.LASF86
 1290 05a5 05       		.byte	0x5
 1291 05a6 39       		.byte	0x39
 1292 05a7 8B050000 		.4byte	0x58b
 1293 05ab 14       		.uleb128 0x14
 1294 05ac 01       		.byte	0x1
 1295 05ad 05       		.byte	0x5
 1296 05ae 42       		.byte	0x42
 1297 05af C6050000 		.4byte	0x5c6
 1298 05b3 03       		.uleb128 0x3
 1299 05b4 77040000 		.4byte	.LASF87
 1300 05b8 08       		.sleb128 8
 1301 05b9 03       		.uleb128 0x3
 1302 05ba 39010000 		.4byte	.LASF88
 1303 05be 0C       		.sleb128 12
 1304 05bf 03       		.uleb128 0x3
 1305 05c0 2F000000 		.4byte	.LASF89
 1306 05c4 10       		.sleb128 16
 1307 05c5 00       		.byte	0
 1308 05c6 06       		.uleb128 0x6
 1309 05c7 4A040000 		.4byte	.LASF90
 1310 05cb 05       		.byte	0x5
 1311 05cc 46       		.byte	0x46
 1312 05cd AB050000 		.4byte	0x5ab
 1313 05d1 0E       		.uleb128 0xe
 1314 05d2 08       		.byte	0x8
 1315 05d3 05       		.byte	0x5
 1316 05d4 4F       		.byte	0x4f
 1317 05d5 12060000 		.4byte	0x612
 1318 05d9 09       		.uleb128 0x9
 1319 05da 98020000 		.4byte	.LASF91
 1320 05de 05       		.byte	0x5
 1321 05df 51       		.byte	0x51
 1322 05e0 1E010000 		.4byte	0x11e
 1323 05e4 02       		.byte	0x2
 1324 05e5 23       		.byte	0x23
 1325 05e6 00       		.uleb128 0
 1326 05e7 09       		.uleb128 0x9
 1327 05e8 20030000 		.4byte	.LASF92
 1328 05ec 05       		.byte	0x5
 1329 05ed 54       		.byte	0x54
 1330 05ee A0050000 		.4byte	0x5a0
 1331 05f2 02       		.byte	0x2
 1332 05f3 23       		.byte	0x23
 1333 05f4 04       		.uleb128 0x4
 1334 05f5 09       		.uleb128 0x9
 1335 05f6 DC020000 		.4byte	.LASF93
ARM GAS  C:\Users\Mariano\AppData\Local\Temp\ccAk74Yw.s 			page 44


 1336 05fa 05       		.byte	0x5
 1337 05fb 57       		.byte	0x57
 1338 05fc C6050000 		.4byte	0x5c6
 1339 0600 02       		.byte	0x2
 1340 0601 23       		.byte	0x23
 1341 0602 05       		.uleb128 0x5
 1342 0603 09       		.uleb128 0x9
 1343 0604 1B000000 		.4byte	.LASF94
 1344 0608 05       		.byte	0x5
 1345 0609 5A       		.byte	0x5a
 1346 060a 37030000 		.4byte	0x337
 1347 060e 02       		.byte	0x2
 1348 060f 23       		.byte	0x23
 1349 0610 06       		.uleb128 0x6
 1350 0611 00       		.byte	0
 1351 0612 06       		.uleb128 0x6
 1352 0613 5E040000 		.4byte	.LASF95
 1353 0617 05       		.byte	0x5
 1354 0618 5C       		.byte	0x5c
 1355 0619 D1050000 		.4byte	0x5d1
 1356 061d 15       		.uleb128 0x15
 1357 061e B1030000 		.4byte	.LASF96
 1358 0622 01       		.byte	0x1
 1359 0623 2B03     		.2byte	0x32b
 1360 0625 01       		.byte	0x1
 1361 0626 00000000 		.4byte	.LFB11
 1362 062a 2C000000 		.4byte	.LFE11
 1363 062e 00000000 		.4byte	.LLST0
 1364 0632 01       		.byte	0x1
 1365 0633 47060000 		.4byte	0x647
 1366 0637 16       		.uleb128 0x16
 1367 0638 8A020000 		.4byte	.LASF98
 1368 063c 01       		.byte	0x1
 1369 063d 2B03     		.2byte	0x32b
 1370 063f E4000000 		.4byte	0xe4
 1371 0643 02       		.byte	0x2
 1372 0644 91       		.byte	0x91
 1373 0645 7F       		.sleb128 -1
 1374 0646 00       		.byte	0
 1375 0647 15       		.uleb128 0x15
 1376 0648 21050000 		.4byte	.LASF97
 1377 064c 01       		.byte	0x1
 1378 064d 7C03     		.2byte	0x37c
 1379 064f 01       		.byte	0x1
 1380 0650 00000000 		.4byte	.LFB16
 1381 0654 F0000000 		.4byte	.LFE16
 1382 0658 20000000 		.4byte	.LLST1
 1383 065c 01       		.byte	0x1
 1384 065d 80060000 		.4byte	0x680
 1385 0661 16       		.uleb128 0x16
 1386 0662 8A020000 		.4byte	.LASF98
 1387 0666 01       		.byte	0x1
 1388 0667 7C03     		.2byte	0x37c
 1389 0669 E4000000 		.4byte	0xe4
 1390 066d 02       		.byte	0x2
 1391 066e 91       		.byte	0x91
 1392 066f 6F       		.sleb128 -17
ARM GAS  C:\Users\Mariano\AppData\Local\Temp\ccAk74Yw.s 			page 45


 1393 0670 16       		.uleb128 0x16
 1394 0671 13020000 		.4byte	.LASF99
 1395 0675 01       		.byte	0x1
 1396 0676 7C03     		.2byte	0x37c
 1397 0678 1E010000 		.4byte	0x11e
 1398 067c 02       		.byte	0x2
 1399 067d 91       		.byte	0x91
 1400 067e 68       		.sleb128 -24
 1401 067f 00       		.byte	0
 1402 0680 17       		.uleb128 0x17
 1403 0681 01       		.byte	0x1
 1404 0682 FD010000 		.4byte	.LASF107
 1405 0686 02       		.byte	0x2
 1406 0687 26       		.byte	0x26
 1407 0688 01       		.byte	0x1
 1408 0689 00000000 		.4byte	.LFB20
 1409 068d 70010000 		.4byte	.LFE20
 1410 0691 4C000000 		.4byte	.LLST2
 1411 0695 01       		.byte	0x1
 1412 0696 B7060000 		.4byte	0x6b7
 1413 069a 18       		.uleb128 0x18
 1414 069b 87010000 		.4byte	.LASF100
 1415 069f 02       		.byte	0x2
 1416 06a0 28       		.byte	0x28
 1417 06a1 29010000 		.4byte	0x129
 1418 06a5 02       		.byte	0x2
 1419 06a6 91       		.byte	0x91
 1420 06a7 74       		.sleb128 -12
 1421 06a8 18       		.uleb128 0x18
 1422 06a9 FA020000 		.4byte	.LASF101
 1423 06ad 02       		.byte	0x2
 1424 06ae 29       		.byte	0x29
 1425 06af 12060000 		.4byte	0x612
 1426 06b3 02       		.byte	0x2
 1427 06b4 91       		.byte	0x91
 1428 06b5 6C       		.sleb128 -20
 1429 06b6 00       		.byte	0
 1430 06b7 19       		.uleb128 0x19
 1431 06b8 01       		.byte	0x1
 1432 06b9 13000000 		.4byte	.LASF102
 1433 06bd 02       		.byte	0x2
 1434 06be CE       		.byte	0xce
 1435 06bf 01       		.byte	0x1
 1436 06c0 00000000 		.4byte	.LFB21
 1437 06c4 18000000 		.4byte	.LFE21
 1438 06c8 02       		.byte	0x2
 1439 06c9 7D       		.byte	0x7d
 1440 06ca 00       		.sleb128 0
 1441 06cb 01       		.byte	0x1
 1442 06cc 19       		.uleb128 0x19
 1443 06cd 01       		.byte	0x1
 1444 06ce 5E030000 		.4byte	.LASF103
 1445 06d2 02       		.byte	0x2
 1446 06d3 D3       		.byte	0xd3
 1447 06d4 01       		.byte	0x1
 1448 06d5 00000000 		.4byte	.LFB22
 1449 06d9 14000000 		.4byte	.LFE22
ARM GAS  C:\Users\Mariano\AppData\Local\Temp\ccAk74Yw.s 			page 46


 1450 06dd 02       		.byte	0x2
 1451 06de 7D       		.byte	0x7d
 1452 06df 00       		.sleb128 0
 1453 06e0 01       		.byte	0x1
 1454 06e1 00       		.byte	0
 1455              		.section	.debug_abbrev,"",%progbits
 1456              	.Ldebug_abbrev0:
 1457 0000 01       		.uleb128 0x1
 1458 0001 11       		.uleb128 0x11
 1459 0002 01       		.byte	0x1
 1460 0003 25       		.uleb128 0x25
 1461 0004 0E       		.uleb128 0xe
 1462 0005 13       		.uleb128 0x13
 1463 0006 0B       		.uleb128 0xb
 1464 0007 03       		.uleb128 0x3
 1465 0008 0E       		.uleb128 0xe
 1466 0009 1B       		.uleb128 0x1b
 1467 000a 0E       		.uleb128 0xe
 1468 000b 55       		.uleb128 0x55
 1469 000c 06       		.uleb128 0x6
 1470 000d 11       		.uleb128 0x11
 1471 000e 01       		.uleb128 0x1
 1472 000f 52       		.uleb128 0x52
 1473 0010 01       		.uleb128 0x1
 1474 0011 10       		.uleb128 0x10
 1475 0012 06       		.uleb128 0x6
 1476 0013 00       		.byte	0
 1477 0014 00       		.byte	0
 1478 0015 02       		.uleb128 0x2
 1479 0016 04       		.uleb128 0x4
 1480 0017 01       		.byte	0x1
 1481 0018 03       		.uleb128 0x3
 1482 0019 0E       		.uleb128 0xe
 1483 001a 0B       		.uleb128 0xb
 1484 001b 0B       		.uleb128 0xb
 1485 001c 3A       		.uleb128 0x3a
 1486 001d 0B       		.uleb128 0xb
 1487 001e 3B       		.uleb128 0x3b
 1488 001f 0B       		.uleb128 0xb
 1489 0020 01       		.uleb128 0x1
 1490 0021 13       		.uleb128 0x13
 1491 0022 00       		.byte	0
 1492 0023 00       		.byte	0
 1493 0024 03       		.uleb128 0x3
 1494 0025 28       		.uleb128 0x28
 1495 0026 00       		.byte	0
 1496 0027 03       		.uleb128 0x3
 1497 0028 0E       		.uleb128 0xe
 1498 0029 1C       		.uleb128 0x1c
 1499 002a 0D       		.uleb128 0xd
 1500 002b 00       		.byte	0
 1501 002c 00       		.byte	0
 1502 002d 04       		.uleb128 0x4
 1503 002e 16       		.uleb128 0x16
 1504 002f 00       		.byte	0
 1505 0030 03       		.uleb128 0x3
 1506 0031 0E       		.uleb128 0xe
ARM GAS  C:\Users\Mariano\AppData\Local\Temp\ccAk74Yw.s 			page 47


 1507 0032 3A       		.uleb128 0x3a
 1508 0033 0B       		.uleb128 0xb
 1509 0034 3B       		.uleb128 0x3b
 1510 0035 05       		.uleb128 0x5
 1511 0036 49       		.uleb128 0x49
 1512 0037 13       		.uleb128 0x13
 1513 0038 00       		.byte	0
 1514 0039 00       		.byte	0
 1515 003a 05       		.uleb128 0x5
 1516 003b 24       		.uleb128 0x24
 1517 003c 00       		.byte	0
 1518 003d 0B       		.uleb128 0xb
 1519 003e 0B       		.uleb128 0xb
 1520 003f 3E       		.uleb128 0x3e
 1521 0040 0B       		.uleb128 0xb
 1522 0041 03       		.uleb128 0x3
 1523 0042 0E       		.uleb128 0xe
 1524 0043 00       		.byte	0
 1525 0044 00       		.byte	0
 1526 0045 06       		.uleb128 0x6
 1527 0046 16       		.uleb128 0x16
 1528 0047 00       		.byte	0
 1529 0048 03       		.uleb128 0x3
 1530 0049 0E       		.uleb128 0xe
 1531 004a 3A       		.uleb128 0x3a
 1532 004b 0B       		.uleb128 0xb
 1533 004c 3B       		.uleb128 0x3b
 1534 004d 0B       		.uleb128 0xb
 1535 004e 49       		.uleb128 0x49
 1536 004f 13       		.uleb128 0x13
 1537 0050 00       		.byte	0
 1538 0051 00       		.byte	0
 1539 0052 07       		.uleb128 0x7
 1540 0053 24       		.uleb128 0x24
 1541 0054 00       		.byte	0
 1542 0055 0B       		.uleb128 0xb
 1543 0056 0B       		.uleb128 0xb
 1544 0057 3E       		.uleb128 0x3e
 1545 0058 0B       		.uleb128 0xb
 1546 0059 03       		.uleb128 0x3
 1547 005a 08       		.uleb128 0x8
 1548 005b 00       		.byte	0
 1549 005c 00       		.byte	0
 1550 005d 08       		.uleb128 0x8
 1551 005e 13       		.uleb128 0x13
 1552 005f 01       		.byte	0x1
 1553 0060 0B       		.uleb128 0xb
 1554 0061 05       		.uleb128 0x5
 1555 0062 3A       		.uleb128 0x3a
 1556 0063 0B       		.uleb128 0xb
 1557 0064 3B       		.uleb128 0x3b
 1558 0065 0B       		.uleb128 0xb
 1559 0066 01       		.uleb128 0x1
 1560 0067 13       		.uleb128 0x13
 1561 0068 00       		.byte	0
 1562 0069 00       		.byte	0
 1563 006a 09       		.uleb128 0x9
ARM GAS  C:\Users\Mariano\AppData\Local\Temp\ccAk74Yw.s 			page 48


 1564 006b 0D       		.uleb128 0xd
 1565 006c 00       		.byte	0
 1566 006d 03       		.uleb128 0x3
 1567 006e 0E       		.uleb128 0xe
 1568 006f 3A       		.uleb128 0x3a
 1569 0070 0B       		.uleb128 0xb
 1570 0071 3B       		.uleb128 0x3b
 1571 0072 0B       		.uleb128 0xb
 1572 0073 49       		.uleb128 0x49
 1573 0074 13       		.uleb128 0x13
 1574 0075 38       		.uleb128 0x38
 1575 0076 0A       		.uleb128 0xa
 1576 0077 00       		.byte	0
 1577 0078 00       		.byte	0
 1578 0079 0A       		.uleb128 0xa
 1579 007a 0D       		.uleb128 0xd
 1580 007b 00       		.byte	0
 1581 007c 03       		.uleb128 0x3
 1582 007d 08       		.uleb128 0x8
 1583 007e 3A       		.uleb128 0x3a
 1584 007f 0B       		.uleb128 0xb
 1585 0080 3B       		.uleb128 0x3b
 1586 0081 0B       		.uleb128 0xb
 1587 0082 49       		.uleb128 0x49
 1588 0083 13       		.uleb128 0x13
 1589 0084 38       		.uleb128 0x38
 1590 0085 0A       		.uleb128 0xa
 1591 0086 00       		.byte	0
 1592 0087 00       		.byte	0
 1593 0088 0B       		.uleb128 0xb
 1594 0089 01       		.uleb128 0x1
 1595 008a 01       		.byte	0x1
 1596 008b 49       		.uleb128 0x49
 1597 008c 13       		.uleb128 0x13
 1598 008d 01       		.uleb128 0x1
 1599 008e 13       		.uleb128 0x13
 1600 008f 00       		.byte	0
 1601 0090 00       		.byte	0
 1602 0091 0C       		.uleb128 0xc
 1603 0092 21       		.uleb128 0x21
 1604 0093 00       		.byte	0
 1605 0094 49       		.uleb128 0x49
 1606 0095 13       		.uleb128 0x13
 1607 0096 2F       		.uleb128 0x2f
 1608 0097 0B       		.uleb128 0xb
 1609 0098 00       		.byte	0
 1610 0099 00       		.byte	0
 1611 009a 0D       		.uleb128 0xd
 1612 009b 35       		.uleb128 0x35
 1613 009c 00       		.byte	0
 1614 009d 49       		.uleb128 0x49
 1615 009e 13       		.uleb128 0x13
 1616 009f 00       		.byte	0
 1617 00a0 00       		.byte	0
 1618 00a1 0E       		.uleb128 0xe
 1619 00a2 13       		.uleb128 0x13
 1620 00a3 01       		.byte	0x1
ARM GAS  C:\Users\Mariano\AppData\Local\Temp\ccAk74Yw.s 			page 49


 1621 00a4 0B       		.uleb128 0xb
 1622 00a5 0B       		.uleb128 0xb
 1623 00a6 3A       		.uleb128 0x3a
 1624 00a7 0B       		.uleb128 0xb
 1625 00a8 3B       		.uleb128 0x3b
 1626 00a9 0B       		.uleb128 0xb
 1627 00aa 01       		.uleb128 0x1
 1628 00ab 13       		.uleb128 0x13
 1629 00ac 00       		.byte	0
 1630 00ad 00       		.byte	0
 1631 00ae 0F       		.uleb128 0xf
 1632 00af 26       		.uleb128 0x26
 1633 00b0 00       		.byte	0
 1634 00b1 49       		.uleb128 0x49
 1635 00b2 13       		.uleb128 0x13
 1636 00b3 00       		.byte	0
 1637 00b4 00       		.byte	0
 1638 00b5 10       		.uleb128 0x10
 1639 00b6 04       		.uleb128 0x4
 1640 00b7 01       		.byte	0x1
 1641 00b8 0B       		.uleb128 0xb
 1642 00b9 0B       		.uleb128 0xb
 1643 00ba 3A       		.uleb128 0x3a
 1644 00bb 0B       		.uleb128 0xb
 1645 00bc 3B       		.uleb128 0x3b
 1646 00bd 05       		.uleb128 0x5
 1647 00be 01       		.uleb128 0x1
 1648 00bf 13       		.uleb128 0x13
 1649 00c0 00       		.byte	0
 1650 00c1 00       		.byte	0
 1651 00c2 11       		.uleb128 0x11
 1652 00c3 13       		.uleb128 0x13
 1653 00c4 01       		.byte	0x1
 1654 00c5 0B       		.uleb128 0xb
 1655 00c6 0B       		.uleb128 0xb
 1656 00c7 3A       		.uleb128 0x3a
 1657 00c8 0B       		.uleb128 0xb
 1658 00c9 3B       		.uleb128 0x3b
 1659 00ca 05       		.uleb128 0x5
 1660 00cb 01       		.uleb128 0x1
 1661 00cc 13       		.uleb128 0x13
 1662 00cd 00       		.byte	0
 1663 00ce 00       		.byte	0
 1664 00cf 12       		.uleb128 0x12
 1665 00d0 0D       		.uleb128 0xd
 1666 00d1 00       		.byte	0
 1667 00d2 03       		.uleb128 0x3
 1668 00d3 08       		.uleb128 0x8
 1669 00d4 3A       		.uleb128 0x3a
 1670 00d5 0B       		.uleb128 0xb
 1671 00d6 3B       		.uleb128 0x3b
 1672 00d7 05       		.uleb128 0x5
 1673 00d8 49       		.uleb128 0x49
 1674 00d9 13       		.uleb128 0x13
 1675 00da 38       		.uleb128 0x38
 1676 00db 0A       		.uleb128 0xa
 1677 00dc 00       		.byte	0
ARM GAS  C:\Users\Mariano\AppData\Local\Temp\ccAk74Yw.s 			page 50


 1678 00dd 00       		.byte	0
 1679 00de 13       		.uleb128 0x13
 1680 00df 0D       		.uleb128 0xd
 1681 00e0 00       		.byte	0
 1682 00e1 03       		.uleb128 0x3
 1683 00e2 0E       		.uleb128 0xe
 1684 00e3 3A       		.uleb128 0x3a
 1685 00e4 0B       		.uleb128 0xb
 1686 00e5 3B       		.uleb128 0x3b
 1687 00e6 05       		.uleb128 0x5
 1688 00e7 49       		.uleb128 0x49
 1689 00e8 13       		.uleb128 0x13
 1690 00e9 38       		.uleb128 0x38
 1691 00ea 0A       		.uleb128 0xa
 1692 00eb 00       		.byte	0
 1693 00ec 00       		.byte	0
 1694 00ed 14       		.uleb128 0x14
 1695 00ee 04       		.uleb128 0x4
 1696 00ef 01       		.byte	0x1
 1697 00f0 0B       		.uleb128 0xb
 1698 00f1 0B       		.uleb128 0xb
 1699 00f2 3A       		.uleb128 0x3a
 1700 00f3 0B       		.uleb128 0xb
 1701 00f4 3B       		.uleb128 0x3b
 1702 00f5 0B       		.uleb128 0xb
 1703 00f6 01       		.uleb128 0x1
 1704 00f7 13       		.uleb128 0x13
 1705 00f8 00       		.byte	0
 1706 00f9 00       		.byte	0
 1707 00fa 15       		.uleb128 0x15
 1708 00fb 2E       		.uleb128 0x2e
 1709 00fc 01       		.byte	0x1
 1710 00fd 03       		.uleb128 0x3
 1711 00fe 0E       		.uleb128 0xe
 1712 00ff 3A       		.uleb128 0x3a
 1713 0100 0B       		.uleb128 0xb
 1714 0101 3B       		.uleb128 0x3b
 1715 0102 05       		.uleb128 0x5
 1716 0103 27       		.uleb128 0x27
 1717 0104 0C       		.uleb128 0xc
 1718 0105 11       		.uleb128 0x11
 1719 0106 01       		.uleb128 0x1
 1720 0107 12       		.uleb128 0x12
 1721 0108 01       		.uleb128 0x1
 1722 0109 40       		.uleb128 0x40
 1723 010a 06       		.uleb128 0x6
 1724 010b 9742     		.uleb128 0x2117
 1725 010d 0C       		.uleb128 0xc
 1726 010e 01       		.uleb128 0x1
 1727 010f 13       		.uleb128 0x13
 1728 0110 00       		.byte	0
 1729 0111 00       		.byte	0
 1730 0112 16       		.uleb128 0x16
 1731 0113 05       		.uleb128 0x5
 1732 0114 00       		.byte	0
 1733 0115 03       		.uleb128 0x3
 1734 0116 0E       		.uleb128 0xe
ARM GAS  C:\Users\Mariano\AppData\Local\Temp\ccAk74Yw.s 			page 51


 1735 0117 3A       		.uleb128 0x3a
 1736 0118 0B       		.uleb128 0xb
 1737 0119 3B       		.uleb128 0x3b
 1738 011a 05       		.uleb128 0x5
 1739 011b 49       		.uleb128 0x49
 1740 011c 13       		.uleb128 0x13
 1741 011d 02       		.uleb128 0x2
 1742 011e 0A       		.uleb128 0xa
 1743 011f 00       		.byte	0
 1744 0120 00       		.byte	0
 1745 0121 17       		.uleb128 0x17
 1746 0122 2E       		.uleb128 0x2e
 1747 0123 01       		.byte	0x1
 1748 0124 3F       		.uleb128 0x3f
 1749 0125 0C       		.uleb128 0xc
 1750 0126 03       		.uleb128 0x3
 1751 0127 0E       		.uleb128 0xe
 1752 0128 3A       		.uleb128 0x3a
 1753 0129 0B       		.uleb128 0xb
 1754 012a 3B       		.uleb128 0x3b
 1755 012b 0B       		.uleb128 0xb
 1756 012c 27       		.uleb128 0x27
 1757 012d 0C       		.uleb128 0xc
 1758 012e 11       		.uleb128 0x11
 1759 012f 01       		.uleb128 0x1
 1760 0130 12       		.uleb128 0x12
 1761 0131 01       		.uleb128 0x1
 1762 0132 40       		.uleb128 0x40
 1763 0133 06       		.uleb128 0x6
 1764 0134 9642     		.uleb128 0x2116
 1765 0136 0C       		.uleb128 0xc
 1766 0137 01       		.uleb128 0x1
 1767 0138 13       		.uleb128 0x13
 1768 0139 00       		.byte	0
 1769 013a 00       		.byte	0
 1770 013b 18       		.uleb128 0x18
 1771 013c 34       		.uleb128 0x34
 1772 013d 00       		.byte	0
 1773 013e 03       		.uleb128 0x3
 1774 013f 0E       		.uleb128 0xe
 1775 0140 3A       		.uleb128 0x3a
 1776 0141 0B       		.uleb128 0xb
 1777 0142 3B       		.uleb128 0x3b
 1778 0143 0B       		.uleb128 0xb
 1779 0144 49       		.uleb128 0x49
 1780 0145 13       		.uleb128 0x13
 1781 0146 02       		.uleb128 0x2
 1782 0147 0A       		.uleb128 0xa
 1783 0148 00       		.byte	0
 1784 0149 00       		.byte	0
 1785 014a 19       		.uleb128 0x19
 1786 014b 2E       		.uleb128 0x2e
 1787 014c 00       		.byte	0
 1788 014d 3F       		.uleb128 0x3f
 1789 014e 0C       		.uleb128 0xc
 1790 014f 03       		.uleb128 0x3
 1791 0150 0E       		.uleb128 0xe
ARM GAS  C:\Users\Mariano\AppData\Local\Temp\ccAk74Yw.s 			page 52


 1792 0151 3A       		.uleb128 0x3a
 1793 0152 0B       		.uleb128 0xb
 1794 0153 3B       		.uleb128 0x3b
 1795 0154 0B       		.uleb128 0xb
 1796 0155 27       		.uleb128 0x27
 1797 0156 0C       		.uleb128 0xc
 1798 0157 11       		.uleb128 0x11
 1799 0158 01       		.uleb128 0x1
 1800 0159 12       		.uleb128 0x12
 1801 015a 01       		.uleb128 0x1
 1802 015b 40       		.uleb128 0x40
 1803 015c 0A       		.uleb128 0xa
 1804 015d 9742     		.uleb128 0x2117
 1805 015f 0C       		.uleb128 0xc
 1806 0160 00       		.byte	0
 1807 0161 00       		.byte	0
 1808 0162 00       		.byte	0
 1809              		.section	.debug_loc,"",%progbits
 1810              	.Ldebug_loc0:
 1811              	.LLST0:
 1812 0000 00000000 		.4byte	.LFB11
 1813 0004 02000000 		.4byte	.LCFI0
 1814 0008 0200     		.2byte	0x2
 1815 000a 7D       		.byte	0x7d
 1816 000b 00       		.sleb128 0
 1817 000c 02000000 		.4byte	.LCFI0
 1818 0010 2C000000 		.4byte	.LFE11
 1819 0014 0200     		.2byte	0x2
 1820 0016 7D       		.byte	0x7d
 1821 0017 08       		.sleb128 8
 1822 0018 00000000 		.4byte	0
 1823 001c 00000000 		.4byte	0
 1824              	.LLST1:
 1825 0020 00000000 		.4byte	.LFB16
 1826 0024 02000000 		.4byte	.LCFI1
 1827 0028 0200     		.2byte	0x2
 1828 002a 7D       		.byte	0x7d
 1829 002b 00       		.sleb128 0
 1830 002c 02000000 		.4byte	.LCFI1
 1831 0030 04000000 		.4byte	.LCFI2
 1832 0034 0200     		.2byte	0x2
 1833 0036 7D       		.byte	0x7d
 1834 0037 0C       		.sleb128 12
 1835 0038 04000000 		.4byte	.LCFI2
 1836 003c F0000000 		.4byte	.LFE16
 1837 0040 0200     		.2byte	0x2
 1838 0042 7D       		.byte	0x7d
 1839 0043 18       		.sleb128 24
 1840 0044 00000000 		.4byte	0
 1841 0048 00000000 		.4byte	0
 1842              	.LLST2:
 1843 004c 00000000 		.4byte	.LFB20
 1844 0050 02000000 		.4byte	.LCFI3
 1845 0054 0200     		.2byte	0x2
 1846 0056 7D       		.byte	0x7d
 1847 0057 00       		.sleb128 0
 1848 0058 02000000 		.4byte	.LCFI3
ARM GAS  C:\Users\Mariano\AppData\Local\Temp\ccAk74Yw.s 			page 53


 1849 005c 04000000 		.4byte	.LCFI4
 1850 0060 0200     		.2byte	0x2
 1851 0062 7D       		.byte	0x7d
 1852 0063 04       		.sleb128 4
 1853 0064 04000000 		.4byte	.LCFI4
 1854 0068 70010000 		.4byte	.LFE20
 1855 006c 0200     		.2byte	0x2
 1856 006e 7D       		.byte	0x7d
 1857 006f 18       		.sleb128 24
 1858 0070 00000000 		.4byte	0
 1859 0074 00000000 		.4byte	0
 1860              		.section	.debug_aranges,"",%progbits
 1861 0000 3C000000 		.4byte	0x3c
 1862 0004 0200     		.2byte	0x2
 1863 0006 00000000 		.4byte	.Ldebug_info0
 1864 000a 04       		.byte	0x4
 1865 000b 00       		.byte	0
 1866 000c 0000     		.2byte	0
 1867 000e 0000     		.2byte	0
 1868 0010 00000000 		.4byte	.LFB11
 1869 0014 2C000000 		.4byte	.LFE11-.LFB11
 1870 0018 00000000 		.4byte	.LFB16
 1871 001c F0000000 		.4byte	.LFE16-.LFB16
 1872 0020 00000000 		.4byte	.LFB20
 1873 0024 70010000 		.4byte	.LFE20-.LFB20
 1874 0028 00000000 		.4byte	.LFB21
 1875 002c 18000000 		.4byte	.LFE21-.LFB21
 1876 0030 00000000 		.4byte	.LFB22
 1877 0034 14000000 		.4byte	.LFE22-.LFB22
 1878 0038 00000000 		.4byte	0
 1879 003c 00000000 		.4byte	0
 1880              		.section	.debug_ranges,"",%progbits
 1881              	.Ldebug_ranges0:
 1882 0000 00000000 		.4byte	.LFB11
 1883 0004 2C000000 		.4byte	.LFE11
 1884 0008 00000000 		.4byte	.LFB16
 1885 000c F0000000 		.4byte	.LFE16
 1886 0010 00000000 		.4byte	.LFB20
 1887 0014 70010000 		.4byte	.LFE20
 1888 0018 00000000 		.4byte	.LFB21
 1889 001c 18000000 		.4byte	.LFE21
 1890 0020 00000000 		.4byte	.LFB22
 1891 0024 14000000 		.4byte	.LFE22
 1892 0028 00000000 		.4byte	0
 1893 002c 00000000 		.4byte	0
 1894              		.section	.debug_line,"",%progbits
 1895              	.Ldebug_line0:
 1896 0000 E9010000 		.section	.debug_str,"MS",%progbits,1
 1896      02004C01 
 1896      00000201 
 1896      FB0E0D00 
 1896      01010101 
 1897              	.LASF47:
 1898 0000 49435052 		.ascii	"ICPR\000"
 1898      00
 1899              	.LASF44:
 1900 0005 52534552 		.ascii	"RSERVED1\000"
ARM GAS  C:\Users\Mariano\AppData\Local\Temp\ccAk74Yw.s 			page 54


 1900      56454431 
 1900      00
 1901              	.LASF71:
 1902 000e 4C434B52 		.ascii	"LCKR\000"
 1902      00
 1903              	.LASF102:
 1904 0013 45585449 		.ascii	"EXTIOff\000"
 1904      4F666600 
 1905              	.LASF94:
 1906 001b 45585449 		.ascii	"EXTI_LineCmd\000"
 1906      5F4C696E 
 1906      65436D64 
 1906      00
 1907              	.LASF67:
 1908 0028 4F545950 		.ascii	"OTYPER\000"
 1908      455200
 1909              	.LASF89:
 1910 002f 45585449 		.ascii	"EXTI_Trigger_Rising_Falling\000"
 1910      5F547269 
 1910      67676572 
 1910      5F526973 
 1910      696E675F 
 1911              	.LASF64:
 1912 004b 53574945 		.ascii	"SWIER\000"
 1912      5200
 1913              	.LASF59:
 1914 0051 44495341 		.ascii	"DISABLE\000"
 1914      424C4500 
 1915              	.LASF66:
 1916 0059 4D4F4445 		.ascii	"MODER\000"
 1916      5200
 1917              	.LASF39:
 1918 005f 6C6F6E67 		.ascii	"long long unsigned int\000"
 1918      206C6F6E 
 1918      6720756E 
 1918      7369676E 
 1918      65642069 
 1919              	.LASF69:
 1920 0076 50555044 		.ascii	"PUPDR\000"
 1920      5200
 1921              	.LASF45:
 1922 007c 49535052 		.ascii	"ISPR\000"
 1922      00
 1923              	.LASF5:
 1924 0081 57574447 		.ascii	"WWDG_IRQn\000"
 1924      5F495251 
 1924      6E00
 1925              	.LASF38:
 1926 008b 6C6F6E67 		.ascii	"long long int\000"
 1926      206C6F6E 
 1926      6720696E 
 1926      7400
 1927              	.LASF29:
 1928 0099 7369676E 		.ascii	"signed char\000"
 1928      65642063 
 1928      68617200 
 1929              	.LASF70:
ARM GAS  C:\Users\Mariano\AppData\Local\Temp\ccAk74Yw.s 			page 55


 1930 00a5 42535252 		.ascii	"BSRR\000"
 1930      00
 1931              	.LASF105:
 1932 00aa 2E5C7372 		.ascii	".\\src\\stm32f0x_gpio.c\000"
 1932      635C7374 
 1932      6D333266 
 1932      30785F67 
 1932      70696F2E 
 1933              	.LASF35:
 1934 00c0 6C6F6E67 		.ascii	"long int\000"
 1934      20696E74 
 1934      00
 1935              	.LASF74:
 1936 00c9 41504232 		.ascii	"APB2RSTR\000"
 1936      52535452 
 1936      00
 1937              	.LASF86:
 1938 00d2 45585449 		.ascii	"EXTIMode_TypeDef\000"
 1938      4D6F6465 
 1938      5F547970 
 1938      65446566 
 1938      00
 1939              	.LASF106:
 1940 00e3 433A5C55 		.ascii	"C:\\Users\\Mariano\\Documents\\Proyectos\\eclipse_s"
 1940      73657273 
 1940      5C4D6172 
 1940      69616E6F 
 1940      5C446F63 
 1941 0111 746D3332 		.ascii	"tm32\\Planolux_DMX512_P1\000"
 1941      5C506C61 
 1941      6E6F6C75 
 1941      785F444D 
 1941      58353132 
 1942              	.LASF60:
 1943 0129 454E4142 		.ascii	"ENABLE\000"
 1943      4C4500
 1944              	.LASF33:
 1945 0130 75696E74 		.ascii	"uint16_t\000"
 1945      31365F74 
 1945      00
 1946              	.LASF88:
 1947 0139 45585449 		.ascii	"EXTI_Trigger_Falling\000"
 1947      5F547269 
 1947      67676572 
 1947      5F46616C 
 1947      6C696E67 
 1948              	.LASF1:
 1949 014e 48617264 		.ascii	"HardFault_IRQn\000"
 1949      4661756C 
 1949      745F4952 
 1949      516E00
 1950              	.LASF68:
 1951 015d 4F535045 		.ascii	"OSPEEDR\000"
 1951      45445200 
 1952              	.LASF16:
 1953 0165 54494D31 		.ascii	"TIM1_BRK_UP_TRG_COM_IRQn\000"
 1953      5F42524B 
ARM GAS  C:\Users\Mariano\AppData\Local\Temp\ccAk74Yw.s 			page 56


 1953      5F55505F 
 1953      5452475F 
 1953      434F4D5F 
 1954              	.LASF58:
 1955 017e 5343425F 		.ascii	"SCB_Type\000"
 1955      54797065 
 1955      00
 1956              	.LASF100:
 1957 0187 74656D70 		.ascii	"temp\000"
 1957      00
 1958              	.LASF40:
 1959 018c 756E7369 		.ascii	"unsigned int\000"
 1959      676E6564 
 1959      20696E74 
 1959      00
 1960              	.LASF19:
 1961 0199 54494D31 		.ascii	"TIM14_IRQn\000"
 1961      345F4952 
 1961      516E00
 1962              	.LASF62:
 1963 01a4 52545352 		.ascii	"RTSR\000"
 1963      00
 1964              	.LASF37:
 1965 01a9 6C6F6E67 		.ascii	"long unsigned int\000"
 1965      20756E73 
 1965      69676E65 
 1965      6420696E 
 1965      7400
 1966              	.LASF72:
 1967 01bb 4750494F 		.ascii	"GPIO_TypeDef\000"
 1967      5F547970 
 1967      65446566 
 1967      00
 1968              	.LASF81:
 1969 01c8 43464752 		.ascii	"CFGR2\000"
 1969      3200
 1970              	.LASF83:
 1971 01ce 5243435F 		.ascii	"RCC_TypeDef\000"
 1971      54797065 
 1971      44656600 
 1972              	.LASF34:
 1973 01da 73686F72 		.ascii	"short unsigned int\000"
 1973      7420756E 
 1973      7369676E 
 1973      65642069 
 1973      6E7400
 1974              	.LASF53:
 1975 01ed 49435352 		.ascii	"ICSR\000"
 1975      00
 1976              	.LASF54:
 1977 01f2 41495243 		.ascii	"AIRCR\000"
 1977      5200
 1978              	.LASF57:
 1979 01f8 44465352 		.ascii	"DFSR\000"
 1979      00
 1980              	.LASF107:
 1981 01fd 4750494F 		.ascii	"GPIO_Config\000"
ARM GAS  C:\Users\Mariano\AppData\Local\Temp\ccAk74Yw.s 			page 57


 1981      5F436F6E 
 1981      66696700 
 1982              	.LASF25:
 1983 0209 53504931 		.ascii	"SPI1_IRQn\000"
 1983      5F495251 
 1983      6E00
 1984              	.LASF99:
 1985 0213 7072696F 		.ascii	"priority\000"
 1985      72697479 
 1985      00
 1986              	.LASF104:
 1987 021c 474E5520 		.ascii	"GNU C 4.7.4 20130613 (release) [ARM/embedded-4_7-br"
 1987      4320342E 
 1987      372E3420 
 1987      32303133 
 1987      30363133 
 1988 024f 616E6368 		.ascii	"anch revision 200083]\000"
 1988      20726576 
 1988      6973696F 
 1988      6E203230 
 1988      30303833 
 1989              	.LASF20:
 1990 0265 54494D31 		.ascii	"TIM15_IRQn\000"
 1990      355F4952 
 1990      516E00
 1991              	.LASF4:
 1992 0270 53797354 		.ascii	"SysTick_IRQn\000"
 1992      69636B5F 
 1992      4952516E 
 1992      00
 1993              	.LASF17:
 1994 027d 54494D31 		.ascii	"TIM1_CC_IRQn\000"
 1994      5F43435F 
 1994      4952516E 
 1994      00
 1995              	.LASF98:
 1996 028a 4952516E 		.ascii	"IRQn\000"
 1996      00
 1997              	.LASF50:
 1998 028f 73697A65 		.ascii	"sizetype\000"
 1998      74797065 
 1998      00
 1999              	.LASF91:
 2000 0298 45585449 		.ascii	"EXTI_Line\000"
 2000      5F4C696E 
 2000      6500
 2001              	.LASF26:
 2002 02a2 53504932 		.ascii	"SPI2_IRQn\000"
 2002      5F495251 
 2002      6E00
 2003              	.LASF61:
 2004 02ac 46756E63 		.ascii	"FunctionalState\000"
 2004      74696F6E 
 2004      616C5374 
 2004      61746500 
 2005              	.LASF43:
 2006 02bc 49434552 		.ascii	"ICER\000"
ARM GAS  C:\Users\Mariano\AppData\Local\Temp\ccAk74Yw.s 			page 58


 2006      00
 2007              	.LASF80:
 2008 02c1 41484252 		.ascii	"AHBRSTR\000"
 2008      53545200 
 2009              	.LASF51:
 2010 02c9 4E564943 		.ascii	"NVIC_Type\000"
 2010      5F547970 
 2010      6500
 2011              	.LASF75:
 2012 02d3 41504231 		.ascii	"APB1RSTR\000"
 2012      52535452 
 2012      00
 2013              	.LASF93:
 2014 02dc 45585449 		.ascii	"EXTI_Trigger\000"
 2014      5F547269 
 2014      67676572 
 2014      00
 2015              	.LASF21:
 2016 02e9 54494D31 		.ascii	"TIM16_IRQn\000"
 2016      365F4952 
 2016      516E00
 2017              	.LASF52:
 2018 02f4 43505549 		.ascii	"CPUID\000"
 2018      4400
 2019              	.LASF101:
 2020 02fa 45585449 		.ascii	"EXTI_InitStructure\000"
 2020      5F496E69 
 2020      74537472 
 2020      75637475 
 2020      726500
 2021              	.LASF12:
 2022 030d 444D4131 		.ascii	"DMA1_Channel1_IRQn\000"
 2022      5F436861 
 2022      6E6E656C 
 2022      315F4952 
 2022      516E00
 2023              	.LASF92:
 2024 0320 45585449 		.ascii	"EXTI_Mode\000"
 2024      5F4D6F64 
 2024      6500
 2025              	.LASF42:
 2026 032a 52455345 		.ascii	"RESERVED0\000"
 2026      52564544 
 2026      3000
 2027              	.LASF55:
 2028 0334 52455345 		.ascii	"RESERVED1\000"
 2028      52564544 
 2028      3100
 2029              	.LASF46:
 2030 033e 52455345 		.ascii	"RESERVED2\000"
 2030      52564544 
 2030      3200
 2031              	.LASF48:
 2032 0348 52455345 		.ascii	"RESERVED3\000"
 2032      52564544 
 2032      3300
 2033              	.LASF27:
ARM GAS  C:\Users\Mariano\AppData\Local\Temp\ccAk74Yw.s 			page 59


 2034 0352 55534152 		.ascii	"USART1_IRQn\000"
 2034      54315F49 
 2034      52516E00 
 2035              	.LASF103:
 2036 035e 45585449 		.ascii	"EXTIOn\000"
 2036      4F6E00
 2037              	.LASF30:
 2038 0365 756E7369 		.ascii	"unsigned char\000"
 2038      676E6564 
 2038      20636861 
 2038      7200
 2039              	.LASF28:
 2040 0373 55534152 		.ascii	"USART2_IRQn\000"
 2040      54325F49 
 2040      52516E00 
 2041              	.LASF56:
 2042 037f 53484353 		.ascii	"SHCSR\000"
 2042      5200
 2043              	.LASF63:
 2044 0385 46545352 		.ascii	"FTSR\000"
 2044      00
 2045              	.LASF31:
 2046 038a 73686F72 		.ascii	"short int\000"
 2046      7420696E 
 2046      7400
 2047              	.LASF41:
 2048 0394 49534552 		.ascii	"ISER\000"
 2048      00
 2049              	.LASF15:
 2050 0399 41444331 		.ascii	"ADC1_IRQn\000"
 2050      5F495251 
 2050      6E00
 2051              	.LASF11:
 2052 03a3 45585449 		.ascii	"EXTI4_15_IRQn\000"
 2052      345F3135 
 2052      5F495251 
 2052      6E00
 2053              	.LASF96:
 2054 03b1 4E564943 		.ascii	"NVIC_EnableIRQ\000"
 2054      5F456E61 
 2054      626C6549 
 2054      525100
 2055              	.LASF22:
 2056 03c0 54494D31 		.ascii	"TIM17_IRQn\000"
 2056      375F4952 
 2056      516E00
 2057              	.LASF23:
 2058 03cb 49324331 		.ascii	"I2C1_IRQn\000"
 2058      5F495251 
 2058      6E00
 2059              	.LASF14:
 2060 03d5 444D4131 		.ascii	"DMA1_Channel4_5_IRQn\000"
 2060      5F436861 
 2060      6E6E656C 
 2060      345F355F 
 2060      4952516E 
 2061              	.LASF7:
ARM GAS  C:\Users\Mariano\AppData\Local\Temp\ccAk74Yw.s 			page 60


 2062 03ea 464C4153 		.ascii	"FLASH_IRQn\000"
 2062      485F4952 
 2062      516E00
 2063              	.LASF32:
 2064 03f5 4952516E 		.ascii	"IRQn_Type\000"
 2064      5F547970 
 2064      6500
 2065              	.LASF36:
 2066 03ff 75696E74 		.ascii	"uint32_t\000"
 2066      33325F74 
 2066      00
 2067              	.LASF3:
 2068 0408 50656E64 		.ascii	"PendSV_IRQn\000"
 2068      53565F49 
 2068      52516E00 
 2069              	.LASF13:
 2070 0414 444D4131 		.ascii	"DMA1_Channel2_3_IRQn\000"
 2070      5F436861 
 2070      6E6E656C 
 2070      325F335F 
 2070      4952516E 
 2071              	.LASF10:
 2072 0429 45585449 		.ascii	"EXTI2_3_IRQn\000"
 2072      325F335F 
 2072      4952516E 
 2072      00
 2073              	.LASF0:
 2074 0436 4E6F6E4D 		.ascii	"NonMaskableInt_IRQn\000"
 2074      61736B61 
 2074      626C6549 
 2074      6E745F49 
 2074      52516E00 
 2075              	.LASF90:
 2076 044a 45585449 		.ascii	"EXTITrigger_TypeDef\000"
 2076      54726967 
 2076      6765725F 
 2076      54797065 
 2076      44656600 
 2077              	.LASF95:
 2078 045e 45585449 		.ascii	"EXTI_InitTypeDef\000"
 2078      5F496E69 
 2078      74547970 
 2078      65446566 
 2078      00
 2079              	.LASF78:
 2080 046f 41504231 		.ascii	"APB1ENR\000"
 2080      454E5200 
 2081              	.LASF87:
 2082 0477 45585449 		.ascii	"EXTI_Trigger_Rising\000"
 2082      5F547269 
 2082      67676572 
 2082      5F526973 
 2082      696E6700 
 2083              	.LASF24:
 2084 048b 49324332 		.ascii	"I2C2_IRQn\000"
 2084      5F495251 
 2084      6E00
ARM GAS  C:\Users\Mariano\AppData\Local\Temp\ccAk74Yw.s 			page 61


 2085              	.LASF49:
 2086 0495 52455345 		.ascii	"RESERVED4\000"
 2086      52564544 
 2086      3400
 2087              	.LASF9:
 2088 049f 45585449 		.ascii	"EXTI0_1_IRQn\000"
 2088      305F315F 
 2088      4952516E 
 2088      00
 2089              	.LASF84:
 2090 04ac 45585449 		.ascii	"EXTI_Mode_Interrupt\000"
 2090      5F4D6F64 
 2090      655F496E 
 2090      74657272 
 2090      75707400 
 2091              	.LASF77:
 2092 04c0 41504232 		.ascii	"APB2ENR\000"
 2092      454E5200 
 2093              	.LASF79:
 2094 04c8 42444352 		.ascii	"BDCR\000"
 2094      00
 2095              	.LASF82:
 2096 04cd 43464752 		.ascii	"CFGR3\000"
 2096      3300
 2097              	.LASF8:
 2098 04d3 5243435F 		.ascii	"RCC_IRQn\000"
 2098      4952516E 
 2098      00
 2099              	.LASF85:
 2100 04dc 45585449 		.ascii	"EXTI_Mode_Event\000"
 2100      5F4D6F64 
 2100      655F4576 
 2100      656E7400 
 2101              	.LASF73:
 2102 04ec 43464752 		.ascii	"CFGR\000"
 2102      00
 2103              	.LASF65:
 2104 04f1 45585449 		.ascii	"EXTI_TypeDef\000"
 2104      5F547970 
 2104      65446566 
 2104      00
 2105              	.LASF6:
 2106 04fe 5254435F 		.ascii	"RTC_IRQn\000"
 2106      4952516E 
 2106      00
 2107              	.LASF18:
 2108 0507 54494D33 		.ascii	"TIM3_IRQn\000"
 2108      5F495251 
 2108      6E00
 2109              	.LASF76:
 2110 0511 41484245 		.ascii	"AHBENR\000"
 2110      4E5200
 2111              	.LASF2:
 2112 0518 5356435F 		.ascii	"SVC_IRQn\000"
 2112      4952516E 
 2112      00
 2113              	.LASF97:
ARM GAS  C:\Users\Mariano\AppData\Local\Temp\ccAk74Yw.s 			page 62


 2114 0521 4E564943 		.ascii	"NVIC_SetPriority\000"
 2114      5F536574 
 2114      5072696F 
 2114      72697479 
 2114      00
 2115              		.ident	"GCC: (GNU Tools for ARM Embedded Processors) 4.7.4 20130613 (release) [ARM/embedded-4_7-br
ARM GAS  C:\Users\Mariano\AppData\Local\Temp\ccAk74Yw.s 			page 63


DEFINED SYMBOLS
                            *ABS*:00000000 stm32f0x_gpio.c
C:\Users\Mariano\AppData\Local\Temp\ccAk74Yw.s:51     .text.NVIC_EnableIRQ:00000000 $t
C:\Users\Mariano\AppData\Local\Temp\ccAk74Yw.s:55     .text.NVIC_EnableIRQ:00000000 NVIC_EnableIRQ
C:\Users\Mariano\AppData\Local\Temp\ccAk74Yw.s:87     .text.NVIC_EnableIRQ:00000028 $d
C:\Users\Mariano\AppData\Local\Temp\ccAk74Yw.s:92     .text.NVIC_SetPriority:00000000 $t
C:\Users\Mariano\AppData\Local\Temp\ccAk74Yw.s:96     .text.NVIC_SetPriority:00000000 NVIC_SetPriority
C:\Users\Mariano\AppData\Local\Temp\ccAk74Yw.s:236    .text.NVIC_SetPriority:000000e8 $d
C:\Users\Mariano\AppData\Local\Temp\ccAk74Yw.s:242    .text.GPIO_Config:00000000 $t
C:\Users\Mariano\AppData\Local\Temp\ccAk74Yw.s:247    .text.GPIO_Config:00000000 GPIO_Config
C:\Users\Mariano\AppData\Local\Temp\ccAk74Yw.s:469    .text.GPIO_Config:00000150 $d
C:\Users\Mariano\AppData\Local\Temp\ccAk74Yw.s:481    .text.EXTIOff:00000000 $t
C:\Users\Mariano\AppData\Local\Temp\ccAk74Yw.s:486    .text.EXTIOff:00000000 EXTIOff
C:\Users\Mariano\AppData\Local\Temp\ccAk74Yw.s:503    .text.EXTIOff:00000010 $d
C:\Users\Mariano\AppData\Local\Temp\ccAk74Yw.s:509    .text.EXTIOn:00000000 $t
C:\Users\Mariano\AppData\Local\Temp\ccAk74Yw.s:514    .text.EXTIOn:00000000 EXTIOn
C:\Users\Mariano\AppData\Local\Temp\ccAk74Yw.s:532    .text.EXTIOn:00000010 $d
                     .debug_frame:00000010 $d

UNDEFINED SYMBOLS
EXTI_Init
